
data/bytecode/4MNPdKu9wFMvEeZBMt3Eipfs5ovVWTJb31pEXDJAAxX5.bytecode:	file format elf64-bpf


Disassembly of section .text:

00000000000000e8 <.text>:
      e8: bf 16 00 00 00               	movl	$22, %edi
      ed: 00 00                        	addb	%al, (%rax)
      ef: 00 79 61                     	addb	%bh, 97(%rcx)
      f2: 00 00                        	addb	%al, (%rax)
      f4: 00 00                        	addb	%al, (%rax)
      f6: 00 00                        	addb	%al, (%rax)
      f8: 79 12                        	jns	0x10c <.text+0x24>
      fa: 00 00                        	addb	%al, (%rax)
      fc: 00 00                        	addb	%al, (%rax)
      fe: 00 00                        	addb	%al, (%rax)
     100: 07                           	<unknown>
     101: 02 00                        	addb	(%rax), %al
     103: 00 ff                        	addb	%bh, %bh
     105: ff ff                        	<unknown>
     107: ff 85 10 00 00 2f            	incl	788529168(%rbp)
     10d: 00 00                        	addb	%al, (%rax)
     10f: 00 79 61                     	addb	%bh, 97(%rcx)
     112: 00 00                        	addb	%al, (%rax)
     114: 00 00                        	addb	%al, (%rax)
     116: 00 00                        	addb	%al, (%rax)
     118: 79 12                        	jns	0x12c <.text+0x44>
     11a: 00 00                        	addb	%al, (%rax)
     11c: 00 00                        	addb	%al, (%rax)
     11e: 00 00                        	addb	%al, (%rax)
     120: 55                           	pushq	%rbp
     121: 02 0a                        	addb	(%rdx), %cl
     123: 00 00                        	addb	%al, (%rax)
     125: 00 00                        	addb	%al, (%rax)
     127: 00 79 12                     	addb	%bh, 18(%rcx)
     12a: 08 00                        	orb	%al, (%rax)
     12c: 00 00                        	addb	%al, (%rax)
     12e: 00 00                        	addb	%al, (%rax)
     130: 07                           	<unknown>
     131: 01 00                        	addl	%eax, (%rax)
     133: 00 08                        	addb	%cl, (%rax)
     135: 00 00                        	addb	%al, (%rax)
     137: 00 07                        	addb	%al, (%rdi)
     139: 02 00                        	addb	(%rax), %al
     13b: 00 ff                        	addb	%bh, %bh
     13d: ff ff                        	<unknown>
     13f: ff 85 10 00 00 28            	incl	671088656(%rbp)
     145: 00 00                        	addb	%al, (%rax)
     147: 00 79 61                     	addb	%bh, 97(%rcx)
     14a: 00 00                        	addb	%al, (%rax)
     14c: 00 00                        	addb	%al, (%rax)
     14e: 00 00                        	addb	%al, (%rax)
     150: 79 12                        	jns	0x164 <.text+0x7c>
     152: 08 00                        	orb	%al, (%rax)
     154: 00 00                        	addb	%al, (%rax)
     156: 00 00                        	addb	%al, (%rax)
     158: 55                           	pushq	%rbp
     159: 02 03                        	addb	(%rbx), %al
     15b: 00 00                        	addb	%al, (%rax)
     15d: 00 00                        	addb	%al, (%rax)
     15f: 00 b7 02 00 00 20            	addb	%dh, 536870914(%rdi)
     165: 00 00                        	addb	%al, (%rax)
     167: 00 b7 03 00 00 08            	addb	%dh, 134217731(%rdi)
     16d: 00 00                        	addb	%al, (%rax)
     16f: 00 85 10 00 00 ed            	addb	%al, -318767088(%rbp)
     175: 00 00                        	addb	%al, (%rax)
     177: 00 95 00 00 00 00            	addb	%dl, (%rbp)
     17d: 00 00                        	addb	%al, (%rax)
     17f: 00 bf 16 00 00 00            	addb	%bh, 22(%rdi)
     185: 00 00                        	addb	%al, (%rax)
     187: 00 79 61                     	addb	%bh, 97(%rcx)
     18a: 00 00                        	addb	%al, (%rax)
     18c: 00 00                        	addb	%al, (%rax)
     18e: 00 00                        	addb	%al, (%rax)
     190: 79 12                        	jns	0x1a4 <.text+0xbc>
     192: 00 00                        	addb	%al, (%rax)
     194: 00 00                        	addb	%al, (%rax)
     196: 00 00                        	addb	%al, (%rax)
     198: 07                           	<unknown>
     199: 02 00                        	addb	(%rax), %al
     19b: 00 ff                        	addb	%bh, %bh
     19d: ff ff                        	<unknown>
     19f: ff 85 10 00 00 1c            	incl	469762064(%rbp)
     1a5: 00 00                        	addb	%al, (%rax)
     1a7: 00 79 61                     	addb	%bh, 97(%rcx)
     1aa: 00 00                        	addb	%al, (%rax)
     1ac: 00 00                        	addb	%al, (%rax)
     1ae: 00 00                        	addb	%al, (%rax)
     1b0: 79 12                        	jns	0x1c4 <.text+0xdc>
     1b2: 00 00                        	addb	%al, (%rax)
     1b4: 00 00                        	addb	%al, (%rax)
     1b6: 00 00                        	addb	%al, (%rax)
     1b8: 55                           	pushq	%rbp
     1b9: 02 0a                        	addb	(%rdx), %cl
     1bb: 00 00                        	addb	%al, (%rax)
     1bd: 00 00                        	addb	%al, (%rax)
     1bf: 00 79 12                     	addb	%bh, 18(%rcx)
     1c2: 08 00                        	orb	%al, (%rax)
     1c4: 00 00                        	addb	%al, (%rax)
     1c6: 00 00                        	addb	%al, (%rax)
     1c8: 07                           	<unknown>
     1c9: 01 00                        	addl	%eax, (%rax)
     1cb: 00 08                        	addb	%cl, (%rax)
     1cd: 00 00                        	addb	%al, (%rax)
     1cf: 00 07                        	addb	%al, (%rdi)
     1d1: 02 00                        	addb	(%rax), %al
     1d3: 00 ff                        	addb	%bh, %bh
     1d5: ff ff                        	<unknown>
     1d7: ff 85 10 00 00 15            	incl	352321552(%rbp)
     1dd: 00 00                        	addb	%al, (%rax)
     1df: 00 79 61                     	addb	%bh, 97(%rcx)
     1e2: 00 00                        	addb	%al, (%rax)
     1e4: 00 00                        	addb	%al, (%rax)
     1e6: 00 00                        	addb	%al, (%rax)
     1e8: 79 12                        	jns	0x1fc <.text+0x114>
     1ea: 08 00                        	orb	%al, (%rax)
     1ec: 00 00                        	addb	%al, (%rax)
     1ee: 00 00                        	addb	%al, (%rax)
     1f0: 55                           	pushq	%rbp
     1f1: 02 03                        	addb	(%rbx), %al
     1f3: 00 00                        	addb	%al, (%rax)
     1f5: 00 00                        	addb	%al, (%rax)
     1f7: 00 b7 02 00 00 28            	addb	%dh, 671088642(%rdi)
     1fd: 00 00                        	addb	%al, (%rax)
     1ff: 00 b7 03 00 00 08            	addb	%dh, 134217731(%rdi)
     205: 00 00                        	addb	%al, (%rax)
     207: 00 85 10 00 00 da            	addb	%al, -637534192(%rbp)
     20d: 00 00                        	addb	%al, (%rax)
     20f: 00 95 00 00 00 00            	addb	%dl, (%rbp)
     215: 00 00                        	addb	%al, (%rax)
     217: 00 bf 25 00 00 00            	addb	%bh, 37(%rdi)
     21d: 00 00                        	addb	%al, (%rax)
     21f: 00 b7 00 00 00 01            	addb	%dh, 16777216(%rdi)
     225: 00 00                        	addb	%al, (%rax)
     227: 00 5d 45                     	addb	%bl, 69(%rbp)
     22a: 09 00                        	orl	%eax, (%rax)
     22c: 00 00                        	addb	%al, (%rax)
     22e: 00 00                        	addb	%al, (%rax)
     230: b7 00                        	movb	$0, %bh
     232: 00 00                        	addb	%al, (%rax)
     234: 00 00                        	addb	%al, (%rax)
     236: 00 00                        	addb	%al, (%rax)
     238: 1d 31 07 00 00               	sbbl	$1841, %eax
     23d: 00 00                        	addb	%al, (%rax)
     23f: 00 bf 32 00 00 00            	addb	%bh, 50(%rdi)
     245: 00 00                        	addb	%al, (%rax)
     247: 00 bf 53 00 00 00            	addb	%bh, 83(%rdi)
     24d: 00 00                        	addb	%al, (%rax)
     24f: 00 85 10 00 00 69            	addb	%al, 1761607696(%rbp)
     255: 10 00                        	adcb	%al, (%rax)
     257: 00 bf 01 00 00 00            	addb	%bh, 1(%rdi)
     25d: 00 00                        	addb	%al, (%rax)
     25f: 00 b7 00 00 00 01            	addb	%dh, 16777216(%rdi)
     265: 00 00                        	addb	%al, (%rax)
     267: 00 55 01                     	addb	%dl, 1(%rbp)
     26a: 01 00                        	addl	%eax, (%rax)
     26c: 00 00                        	addb	%al, (%rax)
     26e: 00 00                        	addb	%al, (%rax)
     270: b7 00                        	movb	$0, %bh
     272: 00 00                        	addb	%al, (%rax)
     274: 00 00                        	addb	%al, (%rax)
     276: 00 00                        	addb	%al, (%rax)
     278: 57                           	pushq	%rdi
     279: 00 00                        	addb	%al, (%rax)
     27b: 00 01                        	addb	%al, (%rcx)
     27d: 00 00                        	addb	%al, (%rax)
     27f: 00 95 00 00 00 00            	addb	%dl, (%rbp)
     285: 00 00                        	addb	%al, (%rax)
     287: 00 79 10                     	addb	%bh, 16(%rcx)
     28a: 00 00                        	addb	%al, (%rax)
     28c: 00 00                        	addb	%al, (%rax)
     28e: 00 00                        	addb	%al, (%rax)
     290: 7b 21                        	jnp	0x2b3 <.text+0x1cb>
     292: 00 00                        	addb	%al, (%rax)
     294: 00 00                        	addb	%al, (%rax)
     296: 00 00                        	addb	%al, (%rax)
     298: 95                           	xchgl	%ebp, %eax
     299: 00 00                        	addb	%al, (%rax)
     29b: 00 00                        	addb	%al, (%rax)
     29d: 00 00                        	addb	%al, (%rax)
     29f: 00 bf 17 00 00 00            	addb	%bh, 23(%rdi)
     2a5: 00 00                        	addb	%al, (%rax)
     2a7: 00 85 10 00 00 55            	addb	%al, 1426063376(%rbp)
     2ad: 00 00                        	addb	%al, (%rax)
     2af: 00 bf 06 00 00 00            	addb	%bh, 6(%rdi)
     2b5: 00 00                        	addb	%al, (%rax)
     2b7: 00 79 77                     	addb	%bh, 119(%rcx)
     2ba: 10 00                        	adcb	%al, (%rax)
     2bc: 00 00                        	addb	%al, (%rax)
     2be: 00 00                        	addb	%al, (%rax)
     2c0: 15 07 0a 00 00               	adcl	$2567, %eax
     2c5: 00 00                        	addb	%al, (%rax)
     2c7: 00 27                        	addb	%ah, (%rdi)
     2c9: 07                           	<unknown>
     2ca: 00 00                        	addb	%al, (%rax)
     2cc: 30 00                        	xorb	%al, (%rax)
     2ce: 00 00                        	addb	%al, (%rax)
     2d0: 07                           	<unknown>
     2d1: 06                           	<unknown>
     2d2: 00 00                        	addb	%al, (%rax)
     2d4: 10 00                        	adcb	%al, (%rax)
     2d6: 00 00                        	addb	%al, (%rax)
     2d8: bf 61 00 00 00               	movl	$97, %edi
     2dd: 00 00                        	addb	%al, (%rax)
     2df: 00 07                        	addb	%al, (%rdi)
     2e1: 01 00                        	addl	%eax, (%rax)
     2e3: 00 f8                        	addb	%bh, %al
     2e5: ff ff                        	<unknown>
     2e7: ff 85 10 00 00 bf            	incl	-1090519024(%rbp)
     2ed: ff ff                        	<unknown>
     2ef: ff bf 61 00 00 00            	<unknown>
     2f5: 00 00                        	addb	%al, (%rax)
     2f7: 00 85 10 00 00 d0            	addb	%al, -805306352(%rbp)
     2fd: ff ff                        	<unknown>
     2ff: ff 07                        	incl	(%rdi)
     301: 06                           	<unknown>
     302: 00 00                        	addb	%al, (%rax)
     304: 30 00                        	xorb	%al, (%rax)
     306: 00 00                        	addb	%al, (%rax)
     308: 07                           	<unknown>
     309: 07                           	<unknown>
     30a: 00 00                        	addb	%al, (%rax)
     30c: d0 ff                        	sarb	%bh
     30e: ff ff                        	<unknown>
     310: 55                           	pushq	%rbp
     311: 07                           	<unknown>
     312: f8                           	clc
     313: ff 00                        	incl	(%rax)
     315: 00 00                        	addb	%al, (%rax)
     317: 00 95 00 00 00 00            	addb	%dl, (%rbp)
     31d: 00 00                        	addb	%al, (%rax)
     31f: 00 bf 26 00 00 00            	addb	%bh, 38(%rdi)
     325: 00 00                        	addb	%al, (%rax)
     327: 00 bf 17 00 00 00            	addb	%bh, 23(%rdi)
     32d: 00 00                        	addb	%al, (%rax)
     32f: 00 bf 61 00 00 00            	addb	%bh, 97(%rdi)
     335: 00 00                        	addb	%al, (%rax)
     337: 00 85 10 00 00 43            	addb	%al, 1124073488(%rbp)
     33d: 00 00                        	addb	%al, (%rax)
     33f: 00 7b 07                     	addb	%bh, 7(%rbx)
     342: 00 00                        	addb	%al, (%rax)
     344: 00 00                        	addb	%al, (%rax)
     346: 00 00                        	addb	%al, (%rax)
     348: 79 61                        	jns	0x3ab <.text+0x2c3>
     34a: 10 00                        	adcb	%al, (%rax)
     34c: 00 00                        	addb	%al, (%rax)
     34e: 00 00                        	addb	%al, (%rax)
     350: 7b 17                        	jnp	0x369 <.text+0x281>
     352: 08 00                        	orb	%al, (%rax)
     354: 00 00                        	addb	%al, (%rax)
     356: 00 00                        	addb	%al, (%rax)
     358: 95                           	xchgl	%ebp, %eax
     359: 00 00                        	addb	%al, (%rax)
     35b: 00 00                        	addb	%al, (%rax)
     35d: 00 00                        	addb	%al, (%rax)
     35f: 00 bf 24 00 00 00            	addb	%bh, 36(%rdi)
     365: 00 00                        	addb	%al, (%rax)
     367: 00 79 12                     	addb	%bh, 18(%rcx)
     36a: 00 00                        	addb	%al, (%rax)
     36c: 00 00                        	addb	%al, (%rax)
     36e: 00 00                        	addb	%al, (%rax)
     370: 79 11                        	jns	0x383 <.text+0x29b>
     372: 08 00                        	orb	%al, (%rax)
     374: 00 00                        	addb	%al, (%rax)
     376: 00 00                        	addb	%al, (%rax)
     378: 0f 21 00                     	<unknown>
     37b: 00 00                        	addb	%al, (%rax)
     37d: 00 00                        	addb	%al, (%rax)
     37f: 00 79 25                     	addb	%bh, 37(%rcx)
     382: 00 00                        	addb	%al, (%rax)
     384: 00 00                        	addb	%al, (%rax)
     386: 00 00                        	addb	%al, (%rax)
     388: 15 05 01 00 00               	adcl	$261, %eax
     38d: 00 00                        	addb	%al, (%rax)
     38f: 00 bf 51 00 00 00            	addb	%bh, 81(%rdi)
     395: 00 00                        	addb	%al, (%rax)
     397: 00 bf 15 00 00 00            	addb	%bh, 21(%rdi)
     39d: 00 00                        	addb	%al, (%rax)
     39f: 00 1f                        	addb	%bl, (%rdi)
     3a1: 45 00 00                     	addb	%r8b, (%r8)
     3a4: 00 00                        	addb	%al, (%rax)
     3a6: 00 00                        	addb	%al, (%rax)
     3a8: b7 00                        	movb	$0, %bh
     3aa: 00 00                        	addb	%al, (%rax)
     3ac: 00 00                        	addb	%al, (%rax)
     3ae: 00 00                        	addb	%al, (%rax)
     3b0: b7 07                        	movb	$7, %bh
     3b2: 00 00                        	addb	%al, (%rax)
     3b4: 01 00                        	addl	%eax, (%rax)
     3b6: 00 00                        	addb	%al, (%rax)
     3b8: 2d 15 01 00 00               	subl	$277, %eax
     3bd: 00 00                        	addb	%al, (%rax)
     3bf: 00 b7 07 00 00 00            	addb	%dh, 7(%rdi)
     3c5: 00 00                        	addb	%al, (%rax)
     3c7: 00 b7 06 00 00 00            	addb	%dh, 6(%rdi)
     3cd: 00 00                        	addb	%al, (%rax)
     3cf: 00 55 07                     	addb	%dl, 7(%rbp)
     3d2: 01 00                        	addl	%eax, (%rax)
     3d4: 00 00                        	addb	%al, (%rax)
     3d6: 00 00                        	addb	%al, (%rax)
     3d8: bf 56 00 00 00               	movl	$86, %edi
     3dd: 00 00                        	addb	%al, (%rax)
     3df: 00 87 03 00 00 00            	addb	%al, 3(%rdi)
     3e5: 00 00                        	addb	%al, (%rax)
     3e7: 00 5f 36                     	addb	%bl, 54(%rdi)
     3ea: 00 00                        	addb	%al, (%rax)
     3ec: 00 00                        	addb	%al, (%rax)
     3ee: 00 00                        	addb	%al, (%rax)
     3f0: bf 21 00 00 00               	movl	$33, %edi
     3f5: 00 00                        	addb	%al, (%rax)
     3f7: 00 07                        	addb	%al, (%rdi)
     3f9: 01 00                        	addl	%eax, (%rax)
     3fb: 00 08                        	addb	%cl, (%rax)
     3fd: 00 00                        	addb	%al, (%rax)
     3ff: 00 2d 61 07 00 00            	addb	%ch, 1889(%rip)  # b66 <entrypoint+0x5c6>
     405: 00 00                        	addb	%al, (%rax)
     407: 00 7b 62                     	addb	%bh, 98(%rbx)
     40a: 00 00                        	addb	%al, (%rax)
     40c: 00 00                        	addb	%al, (%rax)
     40e: 00 00                        	addb	%al, (%rax)
     410: 15 06 05 00 00               	adcl	$1286, %eax
     415: 00 00                        	addb	%al, (%rax)
     417: 00 bf 61 00 00 00            	addb	%bh, 97(%rdi)
     41d: 00 00                        	addb	%al, (%rax)
     41f: 00 b7 02 00 00 00            	addb	%dh, 2(%rdi)
     425: 00 00                        	addb	%al, (%rax)
     427: 00 bf 43 00 00 00            	addb	%bh, 67(%rdi)
     42d: 00 00                        	addb	%al, (%rax)
     42f: 00 85 10 00 00 24            	addb	%al, 603979792(%rbp)
     435: 10 00                        	adcb	%al, (%rax)
     437: 00 bf 60 00 00 00            	addb	%bh, 96(%rdi)
     43d: 00 00                        	addb	%al, (%rax)
     43f: 00 95 00 00 00 00            	addb	%dl, (%rbp)
     445: 00 00                        	addb	%al, (%rax)
     447: 00 79 17                     	addb	%bh, 23(%rcx)
     44a: 00 00                        	addb	%al, (%rax)
     44c: 00 00                        	addb	%al, (%rax)
     44e: 00 00                        	addb	%al, (%rax)
     450: 79 11                        	jns	0x463 <.text+0x37b>
     452: 08 00                        	orb	%al, (%rax)
     454: 00 00                        	addb	%al, (%rax)
     456: 00 00                        	addb	%al, (%rax)
     458: 0f 71 00                     	<unknown>
     45b: 00 00                        	addb	%al, (%rax)
     45d: 00 00                        	addb	%al, (%rax)
     45f: 00 79 70                     	addb	%bh, 112(%rcx)
     462: 00 00                        	addb	%al, (%rax)
     464: 00 00                        	addb	%al, (%rax)
     466: 00 00                        	addb	%al, (%rax)
     468: 15 00 01 00 00               	adcl	$256, %eax
     46d: 00 00                        	addb	%al, (%rax)
     46f: 00 bf 01 00 00 00            	addb	%bh, 1(%rdi)
     475: 00 00                        	addb	%al, (%rax)
     477: 00 bf 18 00 00 00            	addb	%bh, 24(%rdi)
     47d: 00 00                        	addb	%al, (%rax)
     47f: 00 1f                        	addb	%bl, (%rdi)
     481: 58                           	popq	%rax
     482: 00 00                        	addb	%al, (%rax)
     484: 00 00                        	addb	%al, (%rax)
     486: 00 00                        	addb	%al, (%rax)
     488: b7 00                        	movb	$0, %bh
     48a: 00 00                        	addb	%al, (%rax)
     48c: 00 00                        	addb	%al, (%rax)
     48e: 00 00                        	addb	%al, (%rax)
     490: b7 09                        	movb	$9, %bh
     492: 00 00                        	addb	%al, (%rax)
     494: 01 00                        	addl	%eax, (%rax)
     496: 00 00                        	addb	%al, (%rax)
     498: 2d 18 01 00 00               	subl	$280, %eax
     49d: 00 00                        	addb	%al, (%rax)
     49f: 00 b7 09 00 00 00            	addb	%dh, 9(%rdi)
     4a5: 00 00                        	addb	%al, (%rax)
     4a7: 00 b7 06 00 00 00            	addb	%dh, 6(%rdi)
     4ad: 00 00                        	addb	%al, (%rax)
     4af: 00 55 09                     	addb	%dl, 9(%rbp)
     4b2: 01 00                        	addl	%eax, (%rax)
     4b4: 00 00                        	addb	%al, (%rax)
     4b6: 00 00                        	addb	%al, (%rax)
     4b8: bf 86 00 00 00               	movl	$134, %edi
     4bd: 00 00                        	addb	%al, (%rax)
     4bf: 00 87 04 00 00 00            	addb	%al, 4(%rdi)
     4c5: 00 00                        	addb	%al, (%rax)
     4c7: 00 5f 46                     	addb	%bl, 70(%rdi)
     4ca: 00 00                        	addb	%al, (%rax)
     4cc: 00 00                        	addb	%al, (%rax)
     4ce: 00 00                        	addb	%al, (%rax)
     4d0: bf 71 00 00 00               	movl	$113, %edi
     4d5: 00 00                        	addb	%al, (%rax)
     4d7: 00 07                        	addb	%al, (%rdi)
     4d9: 01 00                        	addl	%eax, (%rax)
     4db: 00 08                        	addb	%cl, (%rax)
     4dd: 00 00                        	addb	%al, (%rax)
     4df: 00 2d 61 08 00 00            	addb	%ch, 2145(%rip)  # d46 <entrypoint+0x7a6>
     4e5: 00 00                        	addb	%al, (%rax)
     4e7: 00 7b 67                     	addb	%bh, 103(%rbx)
     4ea: 00 00                        	addb	%al, (%rax)
     4ec: 00 00                        	addb	%al, (%rax)
     4ee: 00 00                        	addb	%al, (%rax)
     4f0: 15 06 06 00 00               	adcl	$1542, %eax
     4f5: 00 00                        	addb	%al, (%rax)
     4f7: 00 2d 53 01 00 00            	addb	%ch, 339(%rip)  # 650 <entrypoint+0xb0>
     4fd: 00 00                        	addb	%al, (%rax)
     4ff: 00 bf 35 00 00 00            	addb	%bh, 53(%rdi)
     505: 00 00                        	addb	%al, (%rax)
     507: 00 bf 61 00 00 00            	addb	%bh, 97(%rdi)
     50d: 00 00                        	addb	%al, (%rax)
     50f: 00 bf 53 00 00 00            	addb	%bh, 83(%rdi)
     515: 00 00                        	addb	%al, (%rax)
     517: 00 85 10 00 00 fc            	addb	%al, -67108848(%rbp)
     51d: 0f 00 00                     	sldtw	(%rax)
     520: bf 60 00 00 00               	movl	$96, %edi
     525: 00 00                        	addb	%al, (%rax)
     527: 00 95 00 00 00 00            	addb	%dl, (%rbp)
     52d: 00 00                        	addb	%al, (%rax)
     52f: 00 63 31                     	addb	%ah, 49(%rbx)
     532: 04 00                        	addb	$0, %al
     534: 00 00                        	addb	%al, (%rax)
     536: 00 00                        	addb	%al, (%rax)
     538: 63 21                        	movslq	(%rcx), %esp
     53a: 00 00                        	addb	%al, (%rax)
     53c: 00 00                        	addb	%al, (%rax)
     53e: 00 00                        	addb	%al, (%rax)
     540: 95                           	xchgl	%ebp, %eax
     541: 00 00                        	addb	%al, (%rax)
     543: 00 00                        	addb	%al, (%rax)
     545: 00 00                        	addb	%al, (%rax)
     547: 00 85 10 00 00 78            	addb	%al, 2013265936(%rbp)
     54d: 00 00                        	addb	%al, (%rax)
     54f: 00 95 00 00 00 00            	addb	%dl, (%rbp)
     555: 00 00                        	addb	%al, (%rax)
     557: 00 79 10                     	addb	%bh, 16(%rcx)
     55a: 00 00                        	addb	%al, (%rax)
     55c: 00 00                        	addb	%al, (%rax)
     55e: 00 00                        	addb	%al, (%rax)
     560: 95                           	xchgl	%ebp, %eax
     561: 00 00                        	addb	%al, (%rax)
     563: 00 00                        	addb	%al, (%rax)
     565: 00 00                        	addb	%al, (%rax)
     567: 00 79 12                     	addb	%bh, 18(%rcx)
     56a: 08 00                        	orb	%al, (%rax)
     56c: 00 00                        	addb	%al, (%rax)
     56e: 00 00                        	addb	%al, (%rax)
     570: 15 02 04 00 00               	adcl	$1026, %eax
     575: 00 00                        	addb	%al, (%rax)
     577: 00 79 11                     	addb	%bh, 17(%rcx)
     57a: 00 00                        	addb	%al, (%rax)
     57c: 00 00                        	addb	%al, (%rax)
     57e: 00 00                        	addb	%al, (%rax)
     580: 27                           	<unknown>
     581: 02 00                        	addb	(%rax), %al
     583: 00 30                        	addb	%dh, (%rax)
     585: 00 00                        	addb	%al, (%rax)
     587: 00 b7 03 00 00 08            	addb	%dh, 134217731(%rdi)
     58d: 00 00                        	addb	%al, (%rax)
     58f: 00 85 10 00 00 69            	addb	%al, 1761607696(%rbp)
     595: 00 00                        	addb	%al, (%rax)
     597: 00 95 00 00 00 00            	addb	%dl, (%rbp)
     59d: 00 00                        	addb	%al, (%rax)
     59f: 00 bf 12 00 00 00            	addb	%bh, 18(%rdi)

00000000000005a0 <entrypoint>:
     5a0: bf 12 00 00 00               	movl	$18, %edi
     5a5: 00 00                        	addb	%al, (%rax)
     5a7: 00 bf a1 00 00 00            	addb	%bh, 161(%rdi)
     5ad: 00 00                        	addb	%al, (%rax)
     5af: 00 07                        	addb	%al, (%rdi)
     5b1: 01 00                        	addl	%eax, (%rax)
     5b3: 00 d0                        	addb	%dl, %al
     5b5: ff ff                        	<unknown>
     5b7: ff 85 10 00 00 cc            	incl	-872415216(%rbp)
     5bd: 01 00                        	addl	%eax, (%rax)
     5bf: 00 79 a1                     	addb	%bh, -95(%rcx)
     5c2: e8 ff 00 00 00               	callq	0x6c6 <entrypoint+0x126>
     5c7: 00 7b 1a                     	addb	%bh, 26(%rbx)
     5ca: c8 ff 00 00                  	enter	$255, $0
     5ce: 00 00                        	addb	%al, (%rax)
     5d0: 79 a1                        	jns	0x573 <.text+0x48b>
     5d2: e0 ff                        	loopne	0x5d3 <entrypoint+0x33>
     5d4: 00 00                        	addb	%al, (%rax)
     5d6: 00 00                        	addb	%al, (%rax)
     5d8: 7b 1a                        	jnp	0x5f4 <entrypoint+0x54>
     5da: c0 ff 00                     	sarb	$0, %bh
     5dd: 00 00                        	addb	%al, (%rax)
     5df: 00 79 a1                     	addb	%bh, -95(%rcx)
     5e2: d8 ff                        	fdivr	%st(7), %st
     5e4: 00 00                        	addb	%al, (%rax)
     5e6: 00 00                        	addb	%al, (%rax)
     5e8: 7b 1a                        	jnp	0x604 <entrypoint+0x64>
     5ea: b8 ff 00 00 00               	movl	$255, %eax
     5ef: 00 79 a6                     	addb	%bh, -90(%rcx)
     5f2: f0                           	lock
     5f3: ff 00                        	incl	(%rax)
     5f5: 00 00                        	addb	%al, (%rax)
     5f7: 00 79 a7                     	addb	%bh, -89(%rcx)
     5fa: f8                           	clc
     5fb: ff 00                        	incl	(%rax)
     5fd: 00 00                        	addb	%al, (%rax)
     5ff: 00 bf a1 00 00 00            	addb	%bh, 161(%rdi)
     605: 00 00                        	addb	%al, (%rax)
     607: 00 07                        	addb	%al, (%rdi)
     609: 01 00                        	addl	%eax, (%rax)
     60b: 00 a8 ff ff ff bf            	addb	%ch, -1073741825(%rax)
     611: a2 00 00 00 00 00 00 07 02   	movabsb	%al, 146085512912830464
     61a: 00 00                        	addb	%al, (%rax)
     61c: b8 ff ff ff 85               	movl	$2248146943, %eax
     621: 10 00                        	adcb	%al, (%rax)
     623: 00 9f ff ff ff 79            	addb	%bl, 2046820351(%rdi)
     629: a1 b0 ff 00 00 00 00 15 01   	movabsl	77968568548917168, %eax
     632: 18 00                        	sbbb	%al, (%rax)
     634: 00 00                        	addb	%al, (%rax)
     636: 00 00                        	addb	%al, (%rax)
     638: b7 01                        	movb	$1, %bh
     63a: 00 00                        	addb	%al, (%rax)
     63c: 02 00                        	addb	(%rax), %al
     63e: 00 00                        	addb	%al, (%rax)
     640: 55                           	pushq	%rbp
     641: 07                           	<unknown>
     642: 1e                           	<unknown>
     643: 00 20                        	addb	%ah, (%rax)
     645: 00 00                        	addb	%al, (%rax)
     647: 00 79 a8                     	addb	%bh, -88(%rcx)
     64a: a8 ff                        	testb	$-1, %al
     64c: 00 00                        	addb	%al, (%rax)
     64e: 00 00                        	addb	%al, (%rax)
     650: bf a7 00 00 00               	movl	$167, %edi
     655: 00 00                        	addb	%al, (%rax)
     657: 00 07                        	addb	%al, (%rdi)
     659: 07                           	<unknown>
     65a: 00 00                        	addb	%al, (%rax)
     65c: d0 ff                        	sarb	%bh
     65e: ff ff                        	<unknown>
     660: bf 71 00 00 00               	movl	$113, %edi
     665: 00 00                        	addb	%al, (%rax)
     667: 00 bf 62 00 00 00            	addb	%bh, 98(%rdi)
     66d: 00 00                        	addb	%al, (%rax)
     66f: 00 b7 03 00 00 20            	addb	%dh, 536870915(%rdi)
     675: 00 00                        	addb	%al, (%rax)
     677: 00 85 10 00 00 26            	addb	%al, 637534224(%rbp)
     67d: 01 00                        	addl	%eax, (%rax)
     67f: 00 79 83                     	addb	%bh, -125(%rcx)
     682: 18 00                        	sbbb	%al, (%rax)
     684: 00 00                        	addb	%al, (%rax)
     686: 00 00                        	addb	%al, (%rax)
     688: bf 71 00 00 00               	movl	$113, %edi
     68d: 00 00                        	addb	%al, (%rax)
     68f: 00 b7 02 00 00 20            	addb	%dh, 536870914(%rdi)
     695: 00 00                        	addb	%al, (%rax)
     697: 00 b7 04 00 00 20            	addb	%dh, 536870916(%rdi)
     69d: 00 00                        	addb	%al, (%rax)
     69f: 00 85 10 00 00 6e            	addb	%al, 1845493776(%rbp)
     6a5: ff ff                        	<unknown>
     6a7: ff 55 00                     	callq	*(%rbp)
     6aa: 02 00                        	addb	(%rax), %al
     6ac: 00 00                        	addb	%al, (%rax)
     6ae: 00 00                        	addb	%al, (%rax)
     6b0: b7 06                        	movb	$6, %bh
     6b2: 00 00                        	addb	%al, (%rax)
     6b4: 00 00                        	addb	%al, (%rax)
     6b6: 00 00                        	addb	%al, (%rax)
     6b8: 05 00 11 00 00               	addl	$4352, %eax
     6bd: 00 00                        	addb	%al, (%rax)
     6bf: 00 18                        	addb	%bl, (%rax)
     6c1: 01 00                        	addl	%eax, (%rax)
     6c3: 00 80 87 00 00 00            	addb	%al, 135(%rax)
     6c9: 00 00                        	addb	%al, (%rax)
     6cb: 00 00                        	addb	%al, (%rax)
     6cd: 00 00                        	addb	%al, (%rax)
     6cf: 00 b7 02 00 00 16            	addb	%dh, 369098754(%rdi)
     6d5: 00 00                        	addb	%al, (%rax)
     6d7: 00 85 10 00 00 ff            	addb	%al, -16777200(%rbp)
     6dd: ff ff                        	<unknown>
     6df: ff b7 02 00 00 00            	pushq	2(%rdi)
     6e5: 01 00                        	addl	%eax, (%rax)
     6e7: 00 b7 01 00 00 00            	addb	%dh, 1(%rdi)
     6ed: 00 00                        	addb	%al, (%rax)
     6ef: 00 05 00 08 00 00            	addb	%al, 2048(%rip)  # ef5 <entrypoint+0x955>
     6f5: 00 00                        	addb	%al, (%rax)
     6f7: 00 bf a1 00 00 00            	addb	%bh, 161(%rdi)
     6fd: 00 00                        	addb	%al, (%rax)
     6ff: 00 07                        	addb	%al, (%rdi)
     701: 01 00                        	addl	%eax, (%rax)
     703: 00 a0 ff ff ff b7            	addb	%ah, -1207959553(%rax)
     709: 02 00                        	addb	(%rax), %al
     70b: 00 0a                        	addb	%cl, (%rdx)
     70d: 00 00                        	addb	%al, (%rax)
     70f: 00 85 10 00 00 c3            	addb	%al, -1023410160(%rbp)
     715: ff ff                        	<unknown>
     717: ff b7 06 00 00 00            	pushq	6(%rdi)
     71d: 00 00                        	addb	%al, (%rax)
     71f: 00 61 a2                     	addb	%ah, -94(%rcx)
     722: a4                           	movsb	(%rsi), %es:(%rdi)
     723: ff 00                        	incl	(%rax)
     725: 00 00                        	addb	%al, (%rax)
     727: 00 61 a1                     	addb	%ah, -95(%rcx)
     72a: a0 ff 00 00 00 00 15 01 02   	movabsb	144419752796750079, %al
     733: 00 0e                        	addb	%cl, (%rsi)
     735: 00 00                        	addb	%al, (%rax)
     737: 00 85 10 00 00 c1            	addb	%al, -1056964592(%rbp)
     73d: ff ff                        	<unknown>
     73f: ff bf 06 00 00 00            	<unknown>
     745: 00 00                        	addb	%al, (%rax)
     747: 00 bf a7 00 00 00            	addb	%bh, 167(%rdi)
     74d: 00 00                        	addb	%al, (%rax)
     74f: 00 07                        	addb	%al, (%rdi)
     751: 07                           	<unknown>
     752: 00 00                        	addb	%al, (%rax)
     754: b8 ff ff ff bf               	movl	$3221225471, %eax
     759: 71 00                        	jno	0x75b <entrypoint+0x1bb>
     75b: 00 00                        	addb	%al, (%rax)
     75d: 00 00                        	addb	%al, (%rax)
     75f: 00 85 10 00 00 67            	addb	%al, 1728053264(%rbp)
     765: ff ff                        	<unknown>
     767: ff bf 71 00 00 00            	<unknown>
     76d: 00 00                        	addb	%al, (%rax)
     76f: 00 85 10 00 00 be            	addb	%al, -1107296240(%rbp)
     775: ff ff                        	<unknown>
     777: ff bf 60 00 00 00            	<unknown>
     77d: 00 00                        	addb	%al, (%rax)
     77f: 00 95 00 00 00 00            	addb	%dl, (%rbp)
     785: 00 00                        	addb	%al, (%rax)
     787: 00 18                        	addb	%bl, (%rax)
     789: 03 00                        	addl	(%rax), %eax
		...
     793: 00 03                        	addb	%al, (%rbx)
     795: 00 00                        	addb	%al, (%rax)
     797: 00 79 33                     	addb	%bh, 51(%rcx)
     79a: 00 00                        	addb	%al, (%rax)
     79c: 00 00                        	addb	%al, (%rax)
     79e: 00 00                        	addb	%al, (%rax)
     7a0: 18 04 00                     	sbbb	%al, (%rax,%rax)
     7a3: 00 00                        	addb	%al, (%rax)
     7a5: 80 00 00                     	addb	$0, (%rax)
     7a8: 00 00                        	addb	%al, (%rax)
     7aa: 00 00                        	addb	%al, (%rax)
     7ac: 03 00                        	addl	(%rax), %eax
     7ae: 00 00                        	addb	%al, (%rax)
     7b0: 15 03 01 00 00               	adcl	$259, %eax
     7b5: 00 00                        	addb	%al, (%rax)
     7b7: 00 bf 34 00 00 00            	addb	%bh, 52(%rdi)
     7bd: 00 00                        	addb	%al, (%rax)
     7bf: 00 bf 43 00 00 00            	addb	%bh, 67(%rdi)
     7c5: 00 00                        	addb	%al, (%rax)
     7c7: 00 1f                        	addb	%bl, (%rdi)
     7c9: 13 00                        	adcl	(%rax), %eax
     7cb: 00 00                        	addb	%al, (%rax)
     7cd: 00 00                        	addb	%al, (%rax)
     7cf: 00 b7 00 00 00 00            	addb	%dh, (%rdi)
     7d5: 00 00                        	addb	%al, (%rax)
     7d7: 00 b7 05 00 00 01            	addb	%dh, 16777221(%rdi)
     7dd: 00 00                        	addb	%al, (%rax)
     7df: 00 2d 43 01 00 00            	addb	%ch, 323(%rip)  # 928 <entrypoint+0x388>
     7e5: 00 00                        	addb	%al, (%rax)
     7e7: 00 b7 05 00 00 00            	addb	%dh, 5(%rdi)
     7ed: 00 00                        	addb	%al, (%rax)
     7ef: 00 b7 01 00 00 00            	addb	%dh, 1(%rdi)
     7f5: 00 00                        	addb	%al, (%rax)
     7f7: 00 55 05                     	addb	%dl, 5(%rbp)
     7fa: 01 00                        	addl	%eax, (%rax)
     7fc: 00 00                        	addb	%al, (%rax)
     7fe: 00 00                        	addb	%al, (%rax)
     800: bf 31 00 00 00               	movl	$49, %edi
     805: 00 00                        	addb	%al, (%rax)
     807: 00 87 02 00 00 00            	addb	%al, 2(%rdi)
     80d: 00 00                        	addb	%al, (%rax)
     80f: 00 5f 21                     	addb	%bl, 33(%rdi)
     812: 00 00                        	addb	%al, (%rax)
     814: 00 00                        	addb	%al, (%rax)
     816: 00 00                        	addb	%al, (%rax)
     818: 18 02                        	sbbb	%al, (%rdx)
     81a: 00 00                        	addb	%al, (%rax)
     81c: 08 00                        	orb	%al, (%rax)
     81e: 00 00                        	addb	%al, (%rax)
     820: 00 00                        	addb	%al, (%rax)
     822: 00 00                        	addb	%al, (%rax)
     824: 03 00                        	addl	(%rax), %eax
     826: 00 00                        	addb	%al, (%rax)
     828: 2d 12 04 00 00               	subl	$1042, %eax
     82d: 00 00                        	addb	%al, (%rax)
     82f: 00 18                        	addb	%bl, (%rax)
     831: 02 00                        	addb	(%rax), %al
		...
     83b: 00 03                        	addb	%al, (%rbx)
     83d: 00 00                        	addb	%al, (%rax)
     83f: 00 7b 12                     	addb	%bh, 18(%rbx)
     842: 00 00                        	addb	%al, (%rax)
     844: 00 00                        	addb	%al, (%rax)
     846: 00 00                        	addb	%al, (%rax)
     848: bf 10 00 00 00               	movl	$16, %edi
     84d: 00 00                        	addb	%al, (%rax)
     84f: 00 95 00 00 00 00            	addb	%dl, (%rbp)
     855: 00 00                        	addb	%al, (%rax)
     857: 00 95 00 00 00 00            	addb	%dl, (%rbp)
     85d: 00 00                        	addb	%al, (%rax)
     85f: 00 bf 45 00 00 00            	addb	%bh, 69(%rdi)
     865: 00 00                        	addb	%al, (%rax)
     867: 00 bf 34 00 00 00            	addb	%bh, 52(%rdi)
     86d: 00 00                        	addb	%al, (%rax)
     86f: 00 bf 23 00 00 00            	addb	%bh, 35(%rdi)
     875: 00 00                        	addb	%al, (%rax)
     877: 00 bf 12 00 00 00            	addb	%bh, 18(%rdi)
     87d: 00 00                        	addb	%al, (%rax)
     87f: 00 18                        	addb	%bl, (%rax)
     881: 01 00                        	addl	%eax, (%rax)
     883: 00 98 87 00 00 00            	addb	%bl, 135(%rax)
     889: 00 00                        	addb	%al, (%rax)
     88b: 00 00                        	addb	%al, (%rax)
     88d: 00 00                        	addb	%al, (%rax)
     88f: 00 85 10 00 00 76            	addb	%al, 1979711504(%rbp)
     895: ff ff                        	<unknown>
     897: ff 95 00 00 00 00            	callq	*(%rbp)
     89d: 00 00                        	addb	%al, (%rax)
     89f: 00 bf 23 00 00 00            	addb	%bh, 35(%rdi)
     8a5: 00 00                        	addb	%al, (%rax)
     8a7: 00 bf 12 00 00 00            	addb	%bh, 18(%rdi)
     8ad: 00 00                        	addb	%al, (%rax)
     8af: 00 18                        	addb	%bl, (%rax)
     8b1: 01 00                        	addl	%eax, (%rax)
     8b3: 00 98 87 00 00 00            	addb	%bl, 135(%rax)
     8b9: 00 00                        	addb	%al, (%rax)
     8bb: 00 00                        	addb	%al, (%rax)
     8bd: 00 00                        	addb	%al, (%rax)
     8bf: 00 85 10 00 00 53            	addb	%al, 1392508944(%rbp)
     8c5: ff ff                        	<unknown>
     8c7: ff 95 00 00 00 00            	callq	*(%rbp)
     8cd: 00 00                        	addb	%al, (%rax)
     8cf: 00 85 10 00 00 d6            	addb	%al, -704643056(%rbp)
     8d5: ff ff                        	<unknown>
     8d7: ff 95 00 00 00 00            	callq	*(%rbp)
     8dd: 00 00                        	addb	%al, (%rax)
     8df: 00 85 10 00 00 ee            	addb	%al, -301989872(%rbp)
     8e5: ff ff                        	<unknown>
     8e7: ff 95 00 00 00 00            	callq	*(%rbp)
     8ed: 00 00                        	addb	%al, (%rax)
     8ef: 00 85 10 00 00 ed            	addb	%al, -318767088(%rbp)
     8f5: ff ff                        	<unknown>
     8f7: ff 95 00 00 00 00            	callq	*(%rbp)
     8fd: 00 00                        	addb	%al, (%rax)
     8ff: 00 85 10 00 00 f3            	addb	%al, -218103792(%rbp)
     905: ff ff                        	<unknown>
     907: ff 95 00 00 00 00            	callq	*(%rbp)
     90d: 00 00                        	addb	%al, (%rax)
     90f: 00 67 01                     	addb	%ah, 1(%rdi)
     912: 00 00                        	addb	%al, (%rax)
     914: 20 00                        	andb	%al, (%rax)
     916: 00 00                        	addb	%al, (%rax)
     918: 77 01                        	ja	0x91b <entrypoint+0x37b>
     91a: 00 00                        	addb	%al, (%rax)
     91c: 20 00                        	andb	%al, (%rax)
     91e: 00 00                        	addb	%al, (%rax)
     920: 65 01 08                     	addl	%ecx, %gs:(%rax)
     923: 00 06                        	addb	%al, (%rsi)
     925: 00 00                        	addb	%al, (%rax)
     927: 00 65 01                     	addb	%ah, 1(%rbp)
     92a: 0d 00 02 00 00               	orl	$512, %eax
     92f: 00 15 01 1e 00 00            	addb	%dl, 7681(%rip)  # 2736 <entrypoint+0x2196>
     935: 00 00                        	addb	%al, (%rax)
     937: 00 18                        	addb	%bl, (%rax)
		...
     941: 00 00                        	addb	%al, (%rax)
     943: 00 02                        	addb	%al, (%rdx)
     945: 00 00                        	addb	%al, (%rax)
     947: 00 15 01 33 00 01            	addb	%dl, 16790273(%rip)  # 1003c4e
     94d: 00 00                        	addb	%al, (%rax)
     94f: 00 18                        	addb	%bl, (%rax)
		...
     959: 00 00                        	addb	%al, (%rax)
     95b: 00 03                        	addb	%al, (%rbx)
     95d: 00 00                        	addb	%al, (%rax)
     95f: 00 05 00 30 00 00            	addb	%al, 12288(%rip)  # 3965 <entrypoint+0x33c5>
     965: 00 00                        	addb	%al, (%rax)
     967: 00 65 01                     	addb	%ah, 1(%rbp)
     96a: 0a 00                        	orb	(%rax), %al
     96c: 09 00                        	orl	%eax, (%rax)
     96e: 00 00                        	addb	%al, (%rax)
     970: 15 01 1d 00 07               	adcl	$117447937, %eax
     975: 00 00                        	addb	%al, (%rax)
     977: 00 15 01 1f 00 08            	addb	%dl, 134225665(%rip)  # 800287e
     97d: 00 00                        	addb	%al, (%rax)
     97f: 00 18                        	addb	%bl, (%rax)
		...
     989: 00 00                        	addb	%al, (%rax)
     98b: 00 0a                        	addb	%cl, (%rdx)
     98d: 00 00                        	addb	%al, (%rax)
     98f: 00 05 00 2a 00 00            	addb	%al, 10752(%rip)  # 3395 <entrypoint+0x2df5>
     995: 00 00                        	addb	%al, (%rax)
     997: 00 65 01                     	addb	%ah, 1(%rbp)
     99a: 09 00                        	orl	%eax, (%rax)
     99c: 04 00                        	addb	$0, %al
     99e: 00 00                        	addb	%al, (%rax)
     9a0: 15 01 1d 00 03               	adcl	$50339073, %eax
     9a5: 00 00                        	addb	%al, (%rax)
     9a7: 00 18                        	addb	%bl, (%rax)
		...
     9b1: 00 00                        	addb	%al, (%rax)
     9b3: 00 05 00 00 00 05            	addb	%al, 83886080(%rip)  # 50009b9
     9b9: 00 25 00 00 00 00            	addb	%ah, (%rip)  # 9bf <entrypoint+0x41f>
     9bf: 00 65 01                     	addb	%ah, 1(%rbp)
     9c2: 08 00                        	orb	%al, (%rax)
     9c4: 0b 00                        	orl	(%rax), %eax
     9c6: 00 00                        	addb	%al, (%rax)
     9c8: 15 01 1b 00 0a               	adcl	$167779073, %eax
     9cd: 00 00                        	addb	%al, (%rax)
     9cf: 00 18                        	addb	%bl, (%rax)
		...
     9d9: 00 00                        	addb	%al, (%rax)
     9db: 00 0c 00                     	addb	%cl, (%rax,%rax)
     9de: 00 00                        	addb	%al, (%rax)
     9e0: 05 00 20 00 00               	addl	$8192, %eax
     9e5: 00 00                        	addb	%al, (%rax)
     9e7: 00 15 01 1a 00 05            	addb	%dl, 83892737(%rip)  # 50023ee
     9ed: 00 00                        	addb	%al, (%rax)
     9ef: 00 18                        	addb	%bl, (%rax)
		...
     9f9: 00 00                        	addb	%al, (%rax)
     9fb: 00 07                        	addb	%al, (%rdi)
     9fd: 00 00                        	addb	%al, (%rax)
     9ff: 00 05 00 1c 00 00            	addb	%al, 7168(%rip)  # 2605 <entrypoint+0x2065>
     a05: 00 00                        	addb	%al, (%rax)
     a07: 00 15 01 19 00 0c            	addb	%dl, 201332993(%rip)  # c00230e
     a0d: 00 00                        	addb	%al, (%rax)
     a0f: 00 18                        	addb	%bl, (%rax)
		...
     a19: 00 00                        	addb	%al, (%rax)
     a1b: 00 0e                        	addb	%cl, (%rsi)
     a1d: 00 00                        	addb	%al, (%rax)
     a1f: 00 05 00 18 00 00            	addb	%al, 6144(%rip)  # 2225 <entrypoint+0x1c85>
     a25: 00 00                        	addb	%al, (%rax)
     a27: 00 67 02                     	addb	%ah, 2(%rdi)
     a2a: 00 00                        	addb	%al, (%rax)
     a2c: 20 00                        	andb	%al, (%rax)
     a2e: 00 00                        	addb	%al, (%rax)
     a30: 77 02                        	ja	0xa34 <entrypoint+0x494>
     a32: 00 00                        	addb	%al, (%rax)
     a34: 20 00                        	andb	%al, (%rax)
     a36: 00 00                        	addb	%al, (%rax)
     a38: 18 00                        	sbbb	%al, (%rax)
		...
     a42: 00 00                        	addb	%al, (%rax)
     a44: 01 00                        	addl	%eax, (%rax)
     a46: 00 00                        	addb	%al, (%rax)
     a48: 15 02 13 00 00               	adcl	$4866, %eax
     a4d: 00 00                        	addb	%al, (%rax)
     a4f: 00 bf 20 00 00 00            	addb	%bh, 32(%rdi)
     a55: 00 00                        	addb	%al, (%rax)
     a57: 00 05 00 11 00 00            	addb	%al, 4352(%rip)  # 1b5d <entrypoint+0x15bd>
     a5d: 00 00                        	addb	%al, (%rax)
     a5f: 00 18                        	addb	%bl, (%rax)
		...
     a69: 00 00                        	addb	%al, (%rax)
     a6b: 00 08                        	addb	%cl, (%rax)
     a6d: 00 00                        	addb	%al, (%rax)
     a6f: 00 05 00 0e 00 00            	addb	%al, 3584(%rip)  # 1875 <entrypoint+0x12d5>
     a75: 00 00                        	addb	%al, (%rax)
     a77: 00 18                        	addb	%bl, (%rax)
		...
     a81: 00 00                        	addb	%al, (%rax)
     a83: 00 09                        	addb	%cl, (%rcx)
     a85: 00 00                        	addb	%al, (%rax)
     a87: 00 05 00 0b 00 00            	addb	%al, 2816(%rip)  # 158d <entrypoint+0xfed>
     a8d: 00 00                        	addb	%al, (%rax)
     a8f: 00 18                        	addb	%bl, (%rax)
		...
     a99: 00 00                        	addb	%al, (%rax)
     a9b: 00 04 00                     	addb	%al, (%rax,%rax)
     a9e: 00 00                        	addb	%al, (%rax)
     aa0: 05 00 08 00 00               	addl	$2048, %eax
     aa5: 00 00                        	addb	%al, (%rax)
     aa7: 00 18                        	addb	%bl, (%rax)
		...
     ab1: 00 00                        	addb	%al, (%rax)
     ab3: 00 0b                        	addb	%cl, (%rbx)
     ab5: 00 00                        	addb	%al, (%rax)
     ab7: 00 05 00 05 00 00            	addb	%al, 1280(%rip)  # fbd <entrypoint+0xa1d>
     abd: 00 00                        	addb	%al, (%rax)
     abf: 00 18                        	addb	%bl, (%rax)
		...
     ac9: 00 00                        	addb	%al, (%rax)
     acb: 00 06                        	addb	%al, (%rsi)
     acd: 00 00                        	addb	%al, (%rax)
     acf: 00 05 00 02 00 00            	addb	%al, 512(%rip)  # cd5 <entrypoint+0x735>
     ad5: 00 00                        	addb	%al, (%rax)
     ad7: 00 18                        	addb	%bl, (%rax)
		...
     ae1: 00 00                        	addb	%al, (%rax)
     ae3: 00 0d 00 00 00 95            	addb	%cl, -1795162112(%rip)  # ffffffff95000ae9
     ae9: 00 00                        	addb	%al, (%rax)
     aeb: 00 00                        	addb	%al, (%rax)
     aed: 00 00                        	addb	%al, (%rax)
     aef: 00 bf 23 00 00 00            	addb	%bh, 35(%rdi)
     af5: 00 00                        	addb	%al, (%rax)
     af7: 00 79 12                     	addb	%bh, 18(%rcx)
     afa: 10 00                        	adcb	%al, (%rax)
     afc: 00 00                        	addb	%al, (%rax)
     afe: 00 00                        	addb	%al, (%rax)
     b00: 85 10                        	testl	%edx, (%rax)
     b02: 00 00                        	addb	%al, (%rax)
     b04: 34 00                        	xorb	$0, %al
     b06: 00 00                        	addb	%al, (%rax)
     b08: 95                           	xchgl	%ebp, %eax
     b09: 00 00                        	addb	%al, (%rax)
     b0b: 00 00                        	addb	%al, (%rax)
     b0d: 00 00                        	addb	%al, (%rax)
     b0f: 00 bf 26 00 00 00            	addb	%bh, 38(%rdi)
     b15: 00 00                        	addb	%al, (%rax)
     b17: 00 bf 17 00 00 00            	addb	%bh, 23(%rdi)
     b1d: 00 00                        	addb	%al, (%rax)
     b1f: 00 bf 61 00 00 00            	addb	%bh, 97(%rdi)
     b25: 00 00                        	addb	%al, (%rax)
     b27: 00 85 10 00 00 2d            	addb	%al, 754974736(%rbp)
     b2d: 00 00                        	addb	%al, (%rax)
     b2f: 00 7b 07                     	addb	%bh, 7(%rbx)
     b32: 00 00                        	addb	%al, (%rax)
     b34: 00 00                        	addb	%al, (%rax)
     b36: 00 00                        	addb	%al, (%rax)
     b38: 79 61                        	jns	0xb9b <entrypoint+0x5fb>
     b3a: 10 00                        	adcb	%al, (%rax)
     b3c: 00 00                        	addb	%al, (%rax)
     b3e: 00 00                        	addb	%al, (%rax)
     b40: 7b 17                        	jnp	0xb59 <entrypoint+0x5b9>
     b42: 08 00                        	orb	%al, (%rax)
     b44: 00 00                        	addb	%al, (%rax)
     b46: 00 00                        	addb	%al, (%rax)
     b48: 95                           	xchgl	%ebp, %eax
     b49: 00 00                        	addb	%al, (%rax)
     b4b: 00 00                        	addb	%al, (%rax)
     b4d: 00 00                        	addb	%al, (%rax)
     b4f: 00 bf 39 00 00 00            	addb	%bh, 57(%rdi)
     b55: 00 00                        	addb	%al, (%rax)
     b57: 00 bf 26 00 00 00            	addb	%bh, 38(%rdi)
     b5d: 00 00                        	addb	%al, (%rax)
     b5f: 00 bf 17 00 00 00            	addb	%bh, 23(%rdi)
     b65: 00 00                        	addb	%al, (%rax)
     b67: 00 bf a1 00 00 00            	addb	%bh, 161(%rdi)
     b6d: 00 00                        	addb	%al, (%rax)
     b6f: 00 07                        	addb	%al, (%rdi)
     b71: 01 00                        	addl	%eax, (%rax)
     b73: 00 f0                        	addb	%dh, %al
     b75: ff ff                        	<unknown>
     b77: ff b7 03 00 00 00            	pushq	3(%rdi)
     b7d: 00 00                        	addb	%al, (%rax)
     b7f: 00 b7 04 00 00 30            	addb	%dh, 805306372(%rdi)
     b85: 00 00                        	addb	%al, (%rax)
     b87: 00 b7 05 00 00 00            	addb	%dh, 5(%rdi)
     b8d: 00 00                        	addb	%al, (%rax)
     b8f: 00 85 10 00 00 4e            	addb	%al, 1308622864(%rbp)
     b95: 0f 00 00                     	sldtw	(%rax)
     b98: b7 01                        	movb	$1, %bh
     b9a: 00 00                        	addb	%al, (%rax)
     b9c: 01 00                        	addl	%eax, (%rax)
     b9e: 00 00                        	addb	%al, (%rax)
     ba0: 79 a2                        	jns	0xb44 <entrypoint+0x5a4>
     ba2: f8                           	clc
     ba3: ff 00                        	incl	(%rax)
     ba5: 00 00                        	addb	%al, (%rax)
     ba7: 00 55 02                     	addb	%dl, 2(%rbp)
     baa: 01 00                        	addl	%eax, (%rax)
     bac: 00 00                        	addb	%al, (%rax)
     bae: 00 00                        	addb	%al, (%rax)
     bb0: b7 01                        	movb	$1, %bh
     bb2: 00 00                        	addb	%al, (%rax)
     bb4: 00 00                        	addb	%al, (%rax)
     bb6: 00 00                        	addb	%al, (%rax)
     bb8: 55                           	pushq	%rbp
     bb9: 01 02                        	addl	%eax, (%rdx)
     bbb: 00 01                        	addb	%al, (%rcx)
     bbd: 00 00                        	addb	%al, (%rax)
     bbf: 00 85 10 00 00 18            	addb	%al, 402653200(%rbp)
     bc5: 00 00                        	addb	%al, (%rax)
     bc7: 00 85 10 00 00 ff            	addb	%al, -16777200(%rbp)
     bcd: ff ff                        	<unknown>
     bcf: ff 79 a8                     	<unknown>
     bd2: f0                           	lock
     bd3: ff 00                        	incl	(%rax)
     bd5: 00 00                        	addb	%al, (%rax)
     bd7: 00 b7 01 00 00 08            	addb	%dh, 134217729(%rdi)
     bdd: 00 00                        	addb	%al, (%rax)
     bdf: 00 15 08 10 00 00            	addb	%dl, 4104(%rip)  # 1bed <entrypoint+0x164d>
     be5: 00 00                        	addb	%al, (%rax)
     be7: 00 55 09                     	addb	%dl, 9(%rbp)
     bea: 06                           	<unknown>
     beb: 00 00                        	addb	%al, (%rax)
     bed: 00 00                        	addb	%al, (%rax)
     bef: 00 bf 81 00 00 00            	addb	%bh, 129(%rdi)
     bf5: 00 00                        	addb	%al, (%rax)
     bf7: 00 b7 02 00 00 08            	addb	%dh, 134217730(%rdi)
     bfd: 00 00                        	addb	%al, (%rax)
     bff: 00 85 10 00 00 99            	addb	%al, -1728053232(%rbp)
     c05: ff ff                        	<unknown>
     c07: ff bf 01 00 00 00            	<unknown>
     c0d: 00 00                        	addb	%al, (%rax)
     c0f: 00 55 01                     	addb	%dl, 1(%rbp)
     c12: 0a 00                        	orb	(%rax), %al
     c14: 00 00                        	addb	%al, (%rax)
     c16: 00 00                        	addb	%al, (%rax)
     c18: 05 00 05 00 00               	addl	$1280, %eax
     c1d: 00 00                        	addb	%al, (%rax)
     c1f: 00 bf 81 00 00 00            	addb	%bh, 129(%rdi)
     c25: 00 00                        	addb	%al, (%rax)
     c27: 00 b7 02 00 00 08            	addb	%dh, 134217730(%rdi)
     c2d: 00 00                        	addb	%al, (%rax)
     c2f: 00 85 10 00 00 99            	addb	%al, -1728053232(%rbp)
     c35: ff ff                        	<unknown>
     c37: ff bf 01 00 00 00            	<unknown>
     c3d: 00 00                        	addb	%al, (%rax)
     c3f: 00 55 01                     	addb	%dl, 1(%rbp)
     c42: 04 00                        	addb	$0, %al
     c44: 00 00                        	addb	%al, (%rax)
     c46: 00 00                        	addb	%al, (%rax)
     c48: bf 81 00 00 00               	movl	$129, %edi
     c4d: 00 00                        	addb	%al, (%rax)
     c4f: 00 b7 02 00 00 08            	addb	%dh, 134217730(%rdi)
     c55: 00 00                        	addb	%al, (%rax)
     c57: 00 85 10 00 00 64            	addb	%al, 1677721616(%rbp)
     c5d: 02 00                        	addb	(%rax), %al
     c5f: 00 85 10 00 00 ff            	addb	%al, -16777200(%rbp)
     c65: ff ff                        	<unknown>
     c67: ff 85 10 00 00 f4            	incl	-201326576(%rbp)
     c6d: 00 00                        	addb	%al, (%rax)
     c6f: 00 7b 07                     	addb	%bh, 7(%rbx)
     c72: 00 00                        	addb	%al, (%rax)
     c74: 00 00                        	addb	%al, (%rax)
     c76: 00 00                        	addb	%al, (%rax)
     c78: 7b 67                        	jnp	0xce1 <entrypoint+0x741>
     c7a: 08 00                        	orb	%al, (%rax)
     c7c: 00 00                        	addb	%al, (%rax)
     c7e: 00 00                        	addb	%al, (%rax)
     c80: 95                           	xchgl	%ebp, %eax
     c81: 00 00                        	addb	%al, (%rax)
     c83: 00 00                        	addb	%al, (%rax)
     c85: 00 00                        	addb	%al, (%rax)
     c87: 00 85 10 00 00 5a            	addb	%al, 1509949456(%rbp)
     c8d: 02 00                        	addb	(%rax), %al
     c8f: 00 85 10 00 00 ff            	addb	%al, -16777200(%rbp)
     c95: ff ff                        	<unknown>
     c97: ff 79 10                     	<unknown>
     c9a: 00 00                        	addb	%al, (%rax)
     c9c: 00 00                        	addb	%al, (%rax)
     c9e: 00 00                        	addb	%al, (%rax)
     ca0: 95                           	xchgl	%ebp, %eax
     ca1: 00 00                        	addb	%al, (%rax)
     ca3: 00 00                        	addb	%al, (%rax)
     ca5: 00 00                        	addb	%al, (%rax)
     ca7: 00 bf 16 00 00 00            	addb	%bh, 22(%rdi)
     cad: 00 00                        	addb	%al, (%rax)
     caf: 00 79 67                     	addb	%bh, 103(%rcx)
     cb2: 08 00                        	orb	%al, (%rax)
     cb4: 00 00                        	addb	%al, (%rax)
     cb6: 00 00                        	addb	%al, (%rax)
     cb8: bf 71 00 00 00               	movl	$113, %edi
     cbd: 00 00                        	addb	%al, (%rax)
     cbf: 00 1f                        	addb	%bl, (%rdi)
     cc1: 21 00                        	andl	%eax, (%rax)
     cc3: 00 00                        	addb	%al, (%rax)
     cc5: 00 00                        	addb	%al, (%rax)
     cc7: 00 3d 31 4c 00 00            	addb	%bh, 19505(%rip)  # 58fe <entrypoint+0x535e>
     ccd: 00 00                        	addb	%al, (%rax)
     ccf: 00 bf 29 00 00 00            	addb	%bh, 41(%rdi)
     cd5: 00 00                        	addb	%al, (%rax)
     cd7: 00 0f                        	addb	%cl, (%rdi)
     cd9: 39 00                        	cmpl	%eax, (%rax)
     cdb: 00 00                        	addb	%al, (%rax)
     cdd: 00 00                        	addb	%al, (%rax)
     cdf: 00 b7 01 00 00 01            	addb	%dh, 16777217(%rdi)
     ce5: 00 00                        	addb	%al, (%rax)
     ce7: 00 2d 92 01 00 00            	addb	%ch, 402(%rip)  # e7f <entrypoint+0x8df>
     ced: 00 00                        	addb	%al, (%rax)
     cef: 00 b7 01 00 00 00            	addb	%dh, 1(%rdi)
     cf5: 00 00                        	addb	%al, (%rax)
     cf7: 00 55 01                     	addb	%dl, 1(%rbp)
     cfa: 10 00                        	adcb	%al, (%rax)
     cfc: 01 00                        	addl	%eax, (%rax)
     cfe: 00 00                        	addb	%al, (%rax)
     d00: bf a1 00 00 00               	movl	$161, %edi
     d05: 00 00                        	addb	%al, (%rax)
     d07: 00 07                        	addb	%al, (%rdi)
     d09: 01 00                        	addl	%eax, (%rax)
     d0b: 00 c0                        	addb	%al, %al
     d0d: ff ff                        	<unknown>
     d0f: ff bf 92 00 00 00            	<unknown>
     d15: 00 00                        	addb	%al, (%rax)
     d17: 00 b7 03 00 00 00            	addb	%dh, 3(%rdi)
     d1d: 00 00                        	addb	%al, (%rax)
     d1f: 00 85 10 00 00 d2            	addb	%al, -771751920(%rbp)
     d25: 00 00                        	addb	%al, (%rax)
     d27: 00 79 a3                     	addb	%bh, -93(%rcx)
     d2a: c8 ff 00 00                  	enter	$255, $0
     d2e: 00 00                        	addb	%al, (%rax)
     d30: 79 a2                        	jns	0xcd4 <entrypoint+0x734>
     d32: c0 ff 00                     	sarb	$0, %bh
     d35: 00 00                        	addb	%al, (%rax)
     d37: 00 bf a1 00 00 00            	addb	%bh, 161(%rdi)
     d3d: 00 00                        	addb	%al, (%rax)
     d3f: 00 07                        	addb	%al, (%rdi)
     d41: 01 00                        	addl	%eax, (%rax)
     d43: 00 b0 ff ff ff 85            	addb	%dh, -2046820353(%rax)
     d49: 10 00                        	adcb	%al, (%rax)
     d4b: 00 cd                        	addb	%cl, %ch
     d4d: 00 00                        	addb	%al, (%rax)
     d4f: 00 79 a1                     	addb	%bh, -95(%rcx)
     d52: b8 ff 00 00 00               	movl	$255, %eax
     d57: 00 15 01 44 00 00            	addb	%dl, 17409(%rip)  # 515e <entrypoint+0x4bbe>
     d5d: 00 00                        	addb	%al, (%rax)
     d5f: 00 18                        	addb	%bl, (%rax)
     d61: 01 00                        	addl	%eax, (%rax)
     d63: 00 08                        	addb	%cl, (%rax)
     d65: 9b                           	wait
		...
     d6e: 00 00                        	addb	%al, (%rax)
     d70: 85 10                        	testl	%edx, (%rax)
     d72: 00 00                        	addb	%al, (%rax)
     d74: 2d 0e 00 00 85               	subl	$2231369742, %eax
     d79: 10 00                        	adcb	%al, (%rax)
     d7b: 00 ff                        	addb	%bh, %bh
     d7d: ff ff                        	<unknown>
     d7f: ff bf a1 00 00 00            	<unknown>
     d85: 00 00                        	addb	%al, (%rax)
     d87: 00 07                        	addb	%al, (%rdi)
     d89: 01 00                        	addl	%eax, (%rax)
     d8b: 00 f0                        	addb	%dh, %al
     d8d: ff ff                        	<unknown>
     d8f: ff 85 10 00 00 c9            	incl	-922746864(%rbp)
     d95: 00 00                        	addb	%al, (%rax)
     d97: 00 79 a8                     	addb	%bh, -88(%rcx)
     d9a: f8                           	clc
     d9b: ff 00                        	incl	(%rax)
     d9d: 00 00                        	addb	%al, (%rax)
     d9f: 00 79 a3                     	addb	%bh, -93(%rcx)
     da2: f0                           	lock
     da3: ff 00                        	incl	(%rax)
     da5: 00 00                        	addb	%al, (%rax)
     da7: 00 bf 32 00 00 00            	addb	%bh, 50(%rdi)
     dad: 00 00                        	addb	%al, (%rax)
     daf: 00 0f                        	addb	%cl, (%rdi)
     db1: 82                           	<unknown>
     db2: 00 00                        	addb	%al, (%rax)
     db4: 00 00                        	addb	%al, (%rax)
     db6: 00 00                        	addb	%al, (%rax)
     db8: 07                           	<unknown>
     db9: 02 00                        	addb	(%rax), %al
     dbb: 00 ff                        	addb	%bh, %bh
     dbd: ff ff                        	<unknown>
     dbf: ff bf 81 00 00 00            	<unknown>
     dc5: 00 00                        	addb	%al, (%rax)
     dc7: 00 87 01 00 00 00            	addb	%al, 1(%rdi)
     dcd: 00 00                        	addb	%al, (%rax)
     dcf: 00 5f 12                     	addb	%bl, 18(%rdi)
     dd2: 00 00                        	addb	%al, (%rax)
     dd4: 00 00                        	addb	%al, (%rax)
     dd6: 00 00                        	addb	%al, (%rax)
     dd8: b7 01                        	movb	$1, %bh
     dda: 00 00                        	addb	%al, (%rax)
     ddc: 01 00                        	addl	%eax, (%rax)
     dde: 00 00                        	addb	%al, (%rax)
     de0: 2d 23 01 00 00               	subl	$291, %eax
     de5: 00 00                        	addb	%al, (%rax)
     de7: 00 b7 01 00 00 00            	addb	%dh, 1(%rdi)
     ded: 00 00                        	addb	%al, (%rax)
     def: 00 67 07                     	addb	%ah, 7(%rdi)
     df2: 00 00                        	addb	%al, (%rax)
     df4: 01 00                        	addl	%eax, (%rax)
     df6: 00 00                        	addb	%al, (%rax)
     df8: 2d 97 01 00 00               	subl	$407, %eax
     dfd: 00 00                        	addb	%al, (%rax)
     dff: 00 bf 97 00 00 00            	addb	%bh, 151(%rdi)
     e05: 00 00                        	addb	%al, (%rax)
     e07: 00 57 01                     	addb	%dl, 1(%rdi)
     e0a: 00 00                        	addb	%al, (%rax)
     e0c: 01 00                        	addl	%eax, (%rax)
     e0e: 00 00                        	addb	%al, (%rax)
     e10: 55                           	pushq	%rbp
     e11: 01 24 00                     	addl	%esp, (%rax,%rax)
     e14: 00 00                        	addb	%al, (%rax)
     e16: 00 00                        	addb	%al, (%rax)
     e18: bf a1 00 00 00               	movl	$161, %edi
     e1d: 00 00                        	addb	%al, (%rax)
     e1f: 00 07                        	addb	%al, (%rdi)
     e21: 01 00                        	addl	%eax, (%rax)
     e23: 00 e0                        	addb	%ah, %al
     e25: ff ff                        	<unknown>
     e27: ff b7 03 00 00 00            	pushq	3(%rdi)
     e2d: 00 00                        	addb	%al, (%rax)
     e2f: 00 bf 74 00 00 00            	addb	%bh, 116(%rdi)
     e35: 00 00                        	addb	%al, (%rax)
     e37: 00 b7 05 00 00 00            	addb	%dh, 5(%rdi)
     e3d: 00 00                        	addb	%al, (%rax)
     e3f: 00 85 10 00 00 f8            	addb	%al, -134217712(%rbp)
     e45: 0e                           	<unknown>
     e46: 00 00                        	addb	%al, (%rax)
     e48: b7 01                        	movb	$1, %bh
     e4a: 00 00                        	addb	%al, (%rax)
     e4c: 01 00                        	addl	%eax, (%rax)
     e4e: 00 00                        	addb	%al, (%rax)
     e50: 79 a2                        	jns	0xdf4 <entrypoint+0x854>
     e52: e8 ff 00 00 00               	callq	0xf56 <entrypoint+0x9b6>
     e57: 00 55 02                     	addb	%dl, 2(%rbp)
     e5a: 01 00                        	addl	%eax, (%rax)
     e5c: 00 00                        	addb	%al, (%rax)
     e5e: 00 00                        	addb	%al, (%rax)
     e60: b7 01                        	movb	$1, %bh
     e62: 00 00                        	addb	%al, (%rax)
     e64: 00 00                        	addb	%al, (%rax)
     e66: 00 00                        	addb	%al, (%rax)
     e68: 57                           	pushq	%rdi
     e69: 01 00                        	addl	%eax, (%rax)
     e6b: 00 01                        	addb	%al, (%rcx)
     e6d: 00 00                        	addb	%al, (%rax)
     e6f: 00 55 01                     	addb	%dl, 1(%rbp)
     e72: 18 00                        	sbbb	%al, (%rax)
     e74: 00 00                        	addb	%al, (%rax)
     e76: 00 00                        	addb	%al, (%rax)
     e78: 79 a9                        	jns	0xe23 <entrypoint+0x883>
     e7a: e0 ff                        	loopne	0xe7b <entrypoint+0x8db>
     e7c: 00 00                        	addb	%al, (%rax)
     e7e: 00 00                        	addb	%al, (%rax)
     e80: 15 08 17 00 00               	adcl	$5896, %eax
     e85: 00 00                        	addb	%al, (%rax)
     e87: 00 79 62                     	addb	%bh, 98(%rcx)
     e8a: 08 00                        	orb	%al, (%rax)
     e8c: 00 00                        	addb	%al, (%rax)
     e8e: 00 00                        	addb	%al, (%rax)
     e90: 55                           	pushq	%rbp
     e91: 02 05 00 00 00 00            	addb	(%rip), %al  # e97 <entrypoint+0x8f7>
     e97: 00 bf 91 00 00 00            	addb	%bh, 145(%rdi)
     e9d: 00 00                        	addb	%al, (%rax)
     e9f: 00 bf 82 00 00 00            	addb	%bh, 130(%rdi)
     ea5: 00 00                        	addb	%al, (%rax)
     ea7: 00 85 10 00 00 44            	addb	%al, 1140850704(%rbp)
     ead: ff ff                        	<unknown>
     eaf: ff 55 00                     	callq	*(%rbp)
     eb2: 0b 00                        	orl	(%rax), %eax
     eb4: 00 00                        	addb	%al, (%rax)
     eb6: 00 00                        	addb	%al, (%rax)
     eb8: 05 00 06 00 00               	addl	$1536, %eax
     ebd: 00 00                        	addb	%al, (%rax)
     ebf: 00 79 61                     	addb	%bh, 97(%rcx)
     ec2: 00 00                        	addb	%al, (%rax)
     ec4: 00 00                        	addb	%al, (%rax)
     ec6: 00 00                        	addb	%al, (%rax)
     ec8: 27                           	<unknown>
     ec9: 02 00                        	addb	(%rax), %al
     ecb: 00 30                        	addb	%dh, (%rax)
     ecd: 00 00                        	addb	%al, (%rax)
     ecf: 00 b7 03 00 00 08            	addb	%dh, 134217731(%rdi)
     ed5: 00 00                        	addb	%al, (%rax)
     ed7: 00 bf 94 00 00 00            	addb	%bh, 148(%rdi)
     edd: 00 00                        	addb	%al, (%rax)
     edf: 00 85 10 00 00 41            	addb	%al, 1090519056(%rbp)
     ee5: ff ff                        	<unknown>
     ee7: ff 55 00                     	callq	*(%rbp)
     eea: 04 00                        	addb	$0, %al
     eec: 00 00                        	addb	%al, (%rax)
     eee: 00 00                        	addb	%al, (%rax)
     ef0: bf 91 00 00 00               	movl	$145, %edi
     ef5: 00 00                        	addb	%al, (%rax)
     ef7: 00 bf 82 00 00 00            	addb	%bh, 130(%rdi)
     efd: 00 00                        	addb	%al, (%rax)
     eff: 00 85 10 00 00 0f            	addb	%al, 251658256(%rbp)
     f05: 02 00                        	addb	(%rax), %al
     f07: 00 85 10 00 00 ff            	addb	%al, -16777200(%rbp)
     f0d: ff ff                        	<unknown>
     f0f: ff bf 01 00 00 00            	<unknown>
     f15: 00 00                        	addb	%al, (%rax)
     f17: 00 85 10 00 00 9e            	addb	%al, -1644167152(%rbp)
     f1d: 00 00                        	addb	%al, (%rax)
     f1f: 00 7b 76                     	addb	%bh, 118(%rbx)
     f22: 08 00                        	orb	%al, (%rax)
     f24: 00 00                        	addb	%al, (%rax)
     f26: 00 00                        	addb	%al, (%rax)
     f28: 7b 06                        	jnp	0xf30 <entrypoint+0x990>
     f2a: 00 00                        	addb	%al, (%rax)
     f2c: 00 00                        	addb	%al, (%rax)
     f2e: 00 00                        	addb	%al, (%rax)
     f30: 95                           	xchgl	%ebp, %eax
     f31: 00 00                        	addb	%al, (%rax)
     f33: 00 00                        	addb	%al, (%rax)
     f35: 00 00                        	addb	%al, (%rax)
     f37: 00 85 10 00 00 99            	addb	%al, -1728053232(%rbp)
     f3d: 00 00                        	addb	%al, (%rax)
     f3f: 00 bf a1 00 00 00            	addb	%bh, 161(%rdi)
     f45: 00 00                        	addb	%al, (%rax)
     f47: 00 07                        	addb	%al, (%rdi)
     f49: 01 00                        	addl	%eax, (%rax)
     f4b: 00 d0                        	addb	%dl, %al
     f4d: ff ff                        	<unknown>
     f4f: ff bf 92 00 00 00            	<unknown>
     f55: 00 00                        	addb	%al, (%rax)
     f57: 00 b7 03 00 00 00            	addb	%dh, 3(%rdi)
     f5d: 00 00                        	addb	%al, (%rax)
     f5f: 00 85 10 00 00 8a            	addb	%al, -1979711472(%rbp)
     f65: 00 00                        	addb	%al, (%rax)
     f67: 00 79 a1                     	addb	%bh, -95(%rcx)
     f6a: d8 ff                        	fdivr	%st(7), %st
     f6c: 00 00                        	addb	%al, (%rax)
     f6e: 00 00                        	addb	%al, (%rax)
     f70: 15 01 01 00 00               	adcl	$257, %eax
     f75: 00 00                        	addb	%al, (%rax)
     f77: 00 05 00 bc ff 00            	addb	%al, 16759808(%rip)  # ffcb7d
     f7d: 00 00                        	addb	%al, (%rax)
     f7f: 00 85 10 00 00 fb            	addb	%al, -83886064(%rbp)
     f85: 01 00                        	addl	%eax, (%rax)
     f87: 00 85 10 00 00 ff            	addb	%al, -16777200(%rbp)
     f8d: ff ff                        	<unknown>
     f8f: ff 79 10                     	<unknown>
     f92: 00 00                        	addb	%al, (%rax)
     f94: 00 00                        	addb	%al, (%rax)
     f96: 00 00                        	addb	%al, (%rax)
     f98: 7b 21                        	jnp	0xfbb <entrypoint+0xa1b>
     f9a: 00 00                        	addb	%al, (%rax)
     f9c: 00 00                        	addb	%al, (%rax)
     f9e: 00 00                        	addb	%al, (%rax)
     fa0: 95                           	xchgl	%ebp, %eax
     fa1: 00 00                        	addb	%al, (%rax)
     fa3: 00 00                        	addb	%al, (%rax)
     fa5: 00 00                        	addb	%al, (%rax)
     fa7: 00 95 00 00 00 00            	addb	%dl, (%rbp)
     fad: 00 00                        	addb	%al, (%rax)
     faf: 00 bf 16 00 00 00            	addb	%bh, 22(%rdi)
     fb5: 00 00                        	addb	%al, (%rax)
     fb7: 00 bf a1 00 00 00            	addb	%bh, 161(%rdi)
     fbd: 00 00                        	addb	%al, (%rax)
     fbf: 00 07                        	addb	%al, (%rdi)
     fc1: 01 00                        	addl	%eax, (%rax)
     fc3: 00 b8 ff ff ff 85            	addb	%bh, -2046820353(%rax)
     fc9: 10 00                        	adcb	%al, (%rax)
     fcb: 00 6c 00 00                  	addb	%ch, (%rax,%rax)
     fcf: 00 71 a1                     	addb	%dh, -95(%rcx)
     fd2: b8 ff 00 00 00               	movl	$255, %eax
     fd7: 00 55 01                     	addb	%dl, 1(%rbp)
     fda: 09 00                        	orl	%eax, (%rax)
     fdc: 01 00                        	addl	%eax, (%rax)
     fde: 00 00                        	addb	%al, (%rax)
     fe0: bf a3 00 00 00               	movl	$163, %edi
     fe5: 00 00                        	addb	%al, (%rax)
     fe7: 00 07                        	addb	%al, (%rdi)
     fe9: 03 00                        	addl	(%rax), %eax
     feb: 00 98 ff ff ff 18            	addb	%bl, 419430399(%rax)
     ff1: 01 00                        	addl	%eax, (%rax)
     ff3: 00 15 88 00 00 00            	addb	%dl, 136(%rip)  # 1081 <entrypoint+0xae1>
     ff9: 00 00                        	addb	%al, (%rax)
     ffb: 00 00                        	addb	%al, (%rax)
     ffd: 00 00                        	addb	%al, (%rax)
     fff: 00 b7 02 00 00 29            	addb	%dh, 687865858(%rdi)
    1005: 00 00                        	addb	%al, (%rax)
    1007: 00 18                        	addb	%bl, (%rax)
    1009: 04 00                        	addb	$0, %al
    100b: 00 30                        	addb	%dh, (%rax)
    100d: 9b                           	wait
		...
    1016: 00 00                        	addb	%al, (%rax)
    1018: 85 10                        	testl	%edx, (%rax)
    101a: 00 00                        	addb	%al, (%rax)
    101c: 76 05                        	jbe	0x1023 <entrypoint+0xa83>
    101e: 00 00                        	addb	%al, (%rax)
    1020: 85 10                        	testl	%edx, (%rax)
    1022: 00 00                        	addb	%al, (%rax)
    1024: ff ff                        	<unknown>
    1026: ff ff                        	<unknown>
    1028: 79 a1                        	jns	0xfcb <entrypoint+0xa2b>
    102a: b9 ff 00 00 00               	movl	$255, %ecx
    102f: 00 7b 1a                     	addb	%bh, 26(%rbx)
    1032: 98                           	cwtl
    1033: ff 00                        	incl	(%rax)
    1035: 00 00                        	addb	%al, (%rax)
    1037: 00 79 a2                     	addb	%bh, -94(%rcx)
    103a: c1 ff 00                     	sarl	$0, %edi
    103d: 00 00                        	addb	%al, (%rax)
    103f: 00 7b 2a                     	addb	%bh, 42(%rbx)
    1042: a0 ff 00 00 00 00 79 a3 c9   	movabsb	-3917154209975238401, %al
    104b: ff 00                        	incl	(%rax)
    104d: 00 00                        	addb	%al, (%rax)
    104f: 00 7b 3a                     	addb	%bh, 58(%rbx)
    1052: a8 ff                        	testb	$-1, %al
    1054: 00 00                        	addb	%al, (%rax)
    1056: 00 00                        	addb	%al, (%rax)
    1058: 79 a4                        	jns	0xffe <entrypoint+0xa5e>
    105a: d1 ff                        	sarl	%edi
    105c: 00 00                        	addb	%al, (%rax)
    105e: 00 00                        	addb	%al, (%rax)
    1060: 7b 4a                        	jnp	0x10ac <entrypoint+0xb0c>
    1062: b0 ff                        	movb	$-1, %al
    1064: 00 00                        	addb	%al, (%rax)
    1066: 00 00                        	addb	%al, (%rax)
    1068: 7b 46                        	jnp	0x10b0 <entrypoint+0xb10>
    106a: 18 00                        	sbbb	%al, (%rax)
    106c: 00 00                        	addb	%al, (%rax)
    106e: 00 00                        	addb	%al, (%rax)
    1070: 7b 36                        	jnp	0x10a8 <entrypoint+0xb08>
    1072: 10 00                        	adcb	%al, (%rax)
    1074: 00 00                        	addb	%al, (%rax)
    1076: 00 00                        	addb	%al, (%rax)
    1078: 7b 26                        	jnp	0x10a0 <entrypoint+0xb00>
    107a: 08 00                        	orb	%al, (%rax)
    107c: 00 00                        	addb	%al, (%rax)
    107e: 00 00                        	addb	%al, (%rax)
    1080: 7b 16                        	jnp	0x1098 <entrypoint+0xaf8>
    1082: 00 00                        	addb	%al, (%rax)
    1084: 00 00                        	addb	%al, (%rax)
    1086: 00 00                        	addb	%al, (%rax)
    1088: 95                           	xchgl	%ebp, %eax
    1089: 00 00                        	addb	%al, (%rax)
    108b: 00 00                        	addb	%al, (%rax)
    108d: 00 00                        	addb	%al, (%rax)
    108f: 00 bf 23 00 00 00            	addb	%bh, 35(%rdi)
    1095: 00 00                        	addb	%al, (%rax)
    1097: 00 77 03                     	addb	%dh, 3(%rdi)
    109a: 00 00                        	addb	%al, (%rax)
    109c: 01 00                        	addl	%eax, (%rax)
    109e: 00 00                        	addb	%al, (%rax)
    10a0: 18 04 00                     	sbbb	%al, (%rax,%rax)
    10a3: 00 55 55                     	addb	%dl, 85(%rbp)
    10a6: 55                           	pushq	%rbp
    10a7: 55                           	pushq	%rbp
    10a8: 00 00                        	addb	%al, (%rax)
    10aa: 00 00                        	addb	%al, (%rax)
    10ac: 55                           	pushq	%rbp
    10ad: 55                           	pushq	%rbp
    10ae: 55                           	pushq	%rbp
    10af: 55                           	pushq	%rbp
    10b0: 5f                           	popq	%rdi
    10b1: 43 00 00                     	addb	%al, (%r8)
    10b4: 00 00                        	addb	%al, (%rax)
    10b6: 00 00                        	addb	%al, (%rax)
    10b8: bf 24 00 00 00               	movl	$36, %edi
    10bd: 00 00                        	addb	%al, (%rax)
    10bf: 00 1f                        	addb	%bl, (%rdi)
    10c1: 34 00                        	xorb	$0, %al
    10c3: 00 00                        	addb	%al, (%rax)
    10c5: 00 00                        	addb	%al, (%rax)
    10c7: 00 18                        	addb	%bl, (%rax)
    10c9: 03 00                        	addl	(%rax), %eax
    10cb: 00 33                        	addb	%dh, (%rbx)
    10cd: 33 33                        	xorl	(%rbx), %esi
    10cf: 33 00                        	xorl	(%rax), %eax
    10d1: 00 00                        	addb	%al, (%rax)
    10d3: 00 33                        	addb	%dh, (%rbx)
    10d5: 33 33                        	xorl	(%rbx), %esi
    10d7: 33 bf 45 00 00 00            	xorl	69(%rdi), %edi
    10dd: 00 00                        	addb	%al, (%rax)
    10df: 00 5f 35                     	addb	%bl, 53(%rdi)
    10e2: 00 00                        	addb	%al, (%rax)
    10e4: 00 00                        	addb	%al, (%rax)
    10e6: 00 00                        	addb	%al, (%rax)
    10e8: 77 04                        	ja	0x10ee <entrypoint+0xb4e>
    10ea: 00 00                        	addb	%al, (%rax)
    10ec: 02 00                        	addb	(%rax), %al
    10ee: 00 00                        	addb	%al, (%rax)
    10f0: 5f                           	popq	%rdi
    10f1: 34 00                        	xorb	$0, %al
    10f3: 00 00                        	addb	%al, (%rax)
    10f5: 00 00                        	addb	%al, (%rax)
    10f7: 00 0f                        	addb	%cl, (%rdi)
    10f9: 45 00 00                     	addb	%r8b, (%r8)
    10fc: 00 00                        	addb	%al, (%rax)
    10fe: 00 00                        	addb	%al, (%rax)
    1100: bf 53 00 00 00               	movl	$83, %edi
    1105: 00 00                        	addb	%al, (%rax)
    1107: 00 77 03                     	addb	%dh, 3(%rdi)
    110a: 00 00                        	addb	%al, (%rax)
    110c: 04 00                        	addb	$0, %al
    110e: 00 00                        	addb	%al, (%rax)
    1110: 0f 35                        	sysexitl
    1112: 00 00                        	addb	%al, (%rax)
    1114: 00 00                        	addb	%al, (%rax)
    1116: 00 00                        	addb	%al, (%rax)
    1118: 18 03                        	sbbb	%al, (%rbx)
    111a: 00 00                        	addb	%al, (%rax)
    111c: 0f 0f 0f 0f                  	<unknown>
    1120: 00 00                        	addb	%al, (%rax)
    1122: 00 00                        	addb	%al, (%rax)
    1124: 0f 0f 0f 0f                  	<unknown>
    1128: 5f                           	popq	%rdi
    1129: 35 00 00 00 00               	xorl	$0, %eax
    112e: 00 00                        	addb	%al, (%rax)
    1130: 18 03                        	sbbb	%al, (%rbx)
    1132: 00 00                        	addb	%al, (%rax)
    1134: 01 01                        	addl	%eax, (%rcx)
    1136: 01 01                        	addl	%eax, (%rcx)
    1138: 00 00                        	addb	%al, (%rax)
    113a: 00 00                        	addb	%al, (%rax)
    113c: 01 01                        	addl	%eax, (%rcx)
    113e: 01 01                        	addl	%eax, (%rcx)
    1140: 2f                           	<unknown>
    1141: 35 00 00 00 00               	xorl	$0, %eax
    1146: 00 00                        	addb	%al, (%rax)
    1148: 77 05                        	ja	0x114f <entrypoint+0xbaf>
    114a: 00 00                        	addb	%al, (%rax)
    114c: 38 00                        	cmpb	%al, (%rax)
    114e: 00 00                        	addb	%al, (%rax)
    1150: 55                           	pushq	%rbp
    1151: 05 08 00 01 00               	addl	$65544, %eax
    1156: 00 00                        	addb	%al, (%rax)
    1158: bf 23 00 00 00               	movl	$35, %edi
    115d: 00 00                        	addb	%al, (%rax)
    115f: 00 07                        	addb	%al, (%rdi)
    1161: 03 00                        	addl	(%rax), %eax
    1163: 00 ff                        	addb	%bh, %bh
    1165: ff ff                        	<unknown>
    1167: ff 5f 13                     	lcalll	*19(%rdi)
    116a: 00 00                        	addb	%al, (%rax)
    116c: 00 00                        	addb	%al, (%rax)
    116e: 00 00                        	addb	%al, (%rax)
    1170: b7 00                        	movb	$0, %bh
    1172: 00 00                        	addb	%al, (%rax)
    1174: 00 00                        	addb	%al, (%rax)
    1176: 00 00                        	addb	%al, (%rax)
    1178: 15 03 02 00 00               	adcl	$515, %eax
    117d: 00 00                        	addb	%al, (%rax)
    117f: 00 1f                        	addb	%bl, (%rdi)
    1181: 32 00                        	xorb	(%rax), %al
    1183: 00 00                        	addb	%al, (%rax)
    1185: 00 00                        	addb	%al, (%rax)
    1187: 00 bf 20 00 00 00            	addb	%bh, 32(%rdi)
    118d: 00 00                        	addb	%al, (%rax)
    118f: 00 95 00 00 00 00            	addb	%dl, (%rbp)
    1195: 00 00                        	addb	%al, (%rax)
    1197: 00 18                        	addb	%bl, (%rax)
    1199: 01 00                        	addl	%eax, (%rax)
    119b: 00 50 9b                     	addb	%dl, -101(%rax)
		...
    11a6: 00 00                        	addb	%al, (%rax)
    11a8: 85 10                        	testl	%edx, (%rax)
    11aa: 00 00                        	addb	%al, (%rax)
    11ac: a6                           	cmpsb	%es:(%rdi), (%rsi)
    11ad: 0d 00 00 85 10               	orl	$277151744, %eax
    11b2: 00 00                        	addb	%al, (%rax)
    11b4: ff ff                        	<unknown>
    11b6: ff ff                        	<unknown>
    11b8: bf 10 00 00 00               	movl	$16, %edi
    11bd: 00 00                        	addb	%al, (%rax)
    11bf: 00 95 00 00 00 00            	addb	%dl, (%rbp)
    11c5: 00 00                        	addb	%al, (%rax)
    11c7: 00 bf 27 00 00 00            	addb	%bh, 39(%rdi)
    11cd: 00 00                        	addb	%al, (%rax)
    11cf: 00 bf 16 00 00 00            	addb	%bh, 22(%rdi)
    11d5: 00 00                        	addb	%al, (%rax)
    11d7: 00 b7 01 00 00 20            	addb	%dh, 536870913(%rdi)
    11dd: 00 00                        	addb	%al, (%rax)
    11df: 00 b7 02 00 00 08            	addb	%dh, 134217730(%rdi)
    11e5: 00 00                        	addb	%al, (%rax)
    11e7: 00 85 10 00 00 dc            	addb	%al, -603979760(%rbp)
    11ed: fe ff                        	<unknown>
    11ef: ff 55 00                     	callq	*(%rbp)
    11f2: 04 00                        	addb	$0, %al
    11f4: 00 00                        	addb	%al, (%rax)
    11f6: 00 00                        	addb	%al, (%rax)
    11f8: b7 01                        	movb	$1, %bh
    11fa: 00 00                        	addb	%al, (%rax)
    11fc: 20 00                        	andb	%al, (%rax)
    11fe: 00 00                        	addb	%al, (%rax)
    1200: b7 02                        	movb	$2, %bh
    1202: 00 00                        	addb	%al, (%rax)
    1204: 08 00                        	orb	%al, (%rax)
    1206: 00 00                        	addb	%al, (%rax)
    1208: 85 10                        	testl	%edx, (%rax)
    120a: 00 00                        	addb	%al, (%rax)
    120c: ae                           	scasb	%es:(%rdi), %al
    120d: 01 00                        	addl	%eax, (%rax)
    120f: 00 85 10 00 00 ff            	addb	%al, -16777200(%rbp)
    1215: ff ff                        	<unknown>
    1217: ff 7b 70                     	<unknown>
    121a: 18 00                        	sbbb	%al, (%rax)
    121c: 00 00                        	addb	%al, (%rax)
    121e: 00 00                        	addb	%al, (%rax)
    1220: 7b 60                        	jnp	0x1282 <entrypoint+0xce2>
    1222: 10 00                        	adcb	%al, (%rax)
    1224: 00 00                        	addb	%al, (%rax)
    1226: 00 00                        	addb	%al, (%rax)
    1228: b7 01                        	movb	$1, %bh
    122a: 00 00                        	addb	%al, (%rax)
    122c: 01 00                        	addl	%eax, (%rax)
    122e: 00 00                        	addb	%al, (%rax)
    1230: 7b 10                        	jnp	0x1242 <entrypoint+0xca2>
    1232: 08 00                        	orb	%al, (%rax)
    1234: 00 00                        	addb	%al, (%rax)
    1236: 00 00                        	addb	%al, (%rax)
    1238: 7b 10                        	jnp	0x124a <entrypoint+0xcaa>
    123a: 00 00                        	addb	%al, (%rax)
    123c: 00 00                        	addb	%al, (%rax)
    123e: 00 00                        	addb	%al, (%rax)
    1240: bf 01 00 00 00               	movl	$1, %edi
    1245: 00 00                        	addb	%al, (%rax)
    1247: 00 85 10 00 00 30            	addb	%al, 805306384(%rbp)
    124d: 00 00                        	addb	%al, (%rax)
    124f: 00 95 00 00 00 00            	addb	%dl, (%rbp)
    1255: 00 00                        	addb	%al, (%rax)
    1257: 00 bf 16 00 00 00            	addb	%bh, 22(%rdi)
    125d: 00 00                        	addb	%al, (%rax)
    125f: 00 b7 01 00 00 28            	addb	%dh, 671088641(%rdi)
    1265: 00 00                        	addb	%al, (%rax)
    1267: 00 b7 02 00 00 08            	addb	%dh, 134217730(%rdi)
    126d: 00 00                        	addb	%al, (%rax)
    126f: 00 85 10 00 00 cb            	addb	%al, -889192432(%rbp)
    1275: fe ff                        	<unknown>
    1277: ff 55 00                     	callq	*(%rbp)
    127a: 04 00                        	addb	$0, %al
    127c: 00 00                        	addb	%al, (%rax)
    127e: 00 00                        	addb	%al, (%rax)
    1280: b7 01                        	movb	$1, %bh
    1282: 00 00                        	addb	%al, (%rax)
    1284: 28 00                        	subb	%al, (%rax)
    1286: 00 00                        	addb	%al, (%rax)
    1288: b7 02                        	movb	$2, %bh
    128a: 00 00                        	addb	%al, (%rax)
    128c: 08 00                        	orb	%al, (%rax)
    128e: 00 00                        	addb	%al, (%rax)
    1290: 85 10                        	testl	%edx, (%rax)
    1292: 00 00                        	addb	%al, (%rax)
    1294: 9d                           	popfq
    1295: 01 00                        	addl	%eax, (%rax)
    1297: 00 85 10 00 00 ff            	addb	%al, -16777200(%rbp)
    129d: ff ff                        	<unknown>
    129f: ff 79 61                     	<unknown>
    12a2: 10 00                        	adcb	%al, (%rax)
    12a4: 00 00                        	addb	%al, (%rax)
    12a6: 00 00                        	addb	%al, (%rax)
    12a8: 7b 1a                        	jnp	0x12c4 <entrypoint+0xd24>
    12aa: f8                           	clc
    12ab: ff 00                        	incl	(%rax)
    12ad: 00 00                        	addb	%al, (%rax)
    12af: 00 79 61                     	addb	%bh, 97(%rcx)
    12b2: 08 00                        	orb	%al, (%rax)
    12b4: 00 00                        	addb	%al, (%rax)
    12b6: 00 00                        	addb	%al, (%rax)
    12b8: 7b 1a                        	jnp	0x12d4 <entrypoint+0xd34>
    12ba: f0                           	lock
    12bb: ff 00                        	incl	(%rax)
    12bd: 00 00                        	addb	%al, (%rax)
    12bf: 00 79 61                     	addb	%bh, 97(%rcx)
    12c2: 00 00                        	addb	%al, (%rax)
    12c4: 00 00                        	addb	%al, (%rax)
    12c6: 00 00                        	addb	%al, (%rax)
    12c8: 7b 1a                        	jnp	0x12e4 <entrypoint+0xd44>
    12ca: e8 ff 00 00 00               	callq	0x13ce <entrypoint+0xe2e>
    12cf: 00 b7 01 00 00 01            	addb	%dh, 16777217(%rdi)
    12d5: 00 00                        	addb	%al, (%rax)
    12d7: 00 7b 10                     	addb	%bh, 16(%rbx)
    12da: 08 00                        	orb	%al, (%rax)
    12dc: 00 00                        	addb	%al, (%rax)
    12de: 00 00                        	addb	%al, (%rax)
    12e0: 7b 10                        	jnp	0x12f2 <entrypoint+0xd52>
    12e2: 00 00                        	addb	%al, (%rax)
    12e4: 00 00                        	addb	%al, (%rax)
    12e6: 00 00                        	addb	%al, (%rax)
    12e8: 79 a1                        	jns	0x128b <entrypoint+0xceb>
    12ea: e8 ff 00 00 00               	callq	0x13ee <entrypoint+0xe4e>
    12ef: 00 7b 10                     	addb	%bh, 16(%rbx)
    12f2: 10 00                        	adcb	%al, (%rax)
    12f4: 00 00                        	addb	%al, (%rax)
    12f6: 00 00                        	addb	%al, (%rax)
    12f8: 79 a1                        	jns	0x129b <entrypoint+0xcfb>
    12fa: f0                           	lock
    12fb: ff 00                        	incl	(%rax)
    12fd: 00 00                        	addb	%al, (%rax)
    12ff: 00 7b 10                     	addb	%bh, 16(%rbx)
    1302: 18 00                        	sbbb	%al, (%rax)
    1304: 00 00                        	addb	%al, (%rax)
    1306: 00 00                        	addb	%al, (%rax)
    1308: 79 a1                        	jns	0x12ab <entrypoint+0xd0b>
    130a: f8                           	clc
    130b: ff 00                        	incl	(%rax)
    130d: 00 00                        	addb	%al, (%rax)
    130f: 00 7b 10                     	addb	%bh, 16(%rbx)
    1312: 20 00                        	andb	%al, (%rax)
    1314: 00 00                        	addb	%al, (%rax)
    1316: 00 00                        	addb	%al, (%rax)
    1318: bf 01 00 00 00               	movl	$1, %edi
    131d: 00 00                        	addb	%al, (%rax)
    131f: 00 85 10 00 00 15            	addb	%al, 352321552(%rbp)
    1325: 00 00                        	addb	%al, (%rax)
    1327: 00 95 00 00 00 00            	addb	%dl, (%rbp)
    132d: 00 00                        	addb	%al, (%rax)
    132f: 00 b7 04 00 00 01            	addb	%dh, 16777220(%rdi)
    1335: 00 00                        	addb	%al, (%rax)
    1337: 00 55 03                     	addb	%dl, 3(%rbp)
    133a: 0d 00 20 00 00               	orl	$8192, %eax
    133f: 00 79 23                     	addb	%bh, 35(%rcx)
    1342: 18 00                        	sbbb	%al, (%rax)
    1344: 00 00                        	addb	%al, (%rax)
    1346: 00 00                        	addb	%al, (%rax)
    1348: 7b 3a                        	jnp	0x1384 <entrypoint+0xde4>
    134a: f8                           	clc
    134b: ff 00                        	incl	(%rax)
    134d: 00 00                        	addb	%al, (%rax)
    134f: 00 79 24                     	addb	%bh, 36(%rcx)
    1352: 10 00                        	adcb	%al, (%rax)
    1354: 00 00                        	addb	%al, (%rax)
    1356: 00 00                        	addb	%al, (%rax)
    1358: 7b 4a                        	jnp	0x13a4 <entrypoint+0xe04>
    135a: f0                           	lock
    135b: ff 00                        	incl	(%rax)
    135d: 00 00                        	addb	%al, (%rax)
    135f: 00 79 25                     	addb	%bh, 37(%rcx)
    1362: 08 00                        	orb	%al, (%rax)
    1364: 00 00                        	addb	%al, (%rax)
    1366: 00 00                        	addb	%al, (%rax)
    1368: 7b 5a                        	jnp	0x13c4 <entrypoint+0xe24>
    136a: e8 ff 00 00 00               	callq	0x146e <entrypoint+0xece>
    136f: 00 79 22                     	addb	%bh, 34(%rcx)
    1372: 00 00                        	addb	%al, (%rax)
    1374: 00 00                        	addb	%al, (%rax)
    1376: 00 00                        	addb	%al, (%rax)
    1378: 7b 2a                        	jnp	0x13a4 <entrypoint+0xe04>
    137a: e0 ff                        	loopne	0x137b <entrypoint+0xddb>
    137c: 00 00                        	addb	%al, (%rax)
    137e: 00 00                        	addb	%al, (%rax)
    1380: 7b 31                        	jnp	0x13b3 <entrypoint+0xe13>
    1382: 19 00                        	sbbl	%eax, (%rax)
    1384: 00 00                        	addb	%al, (%rax)
    1386: 00 00                        	addb	%al, (%rax)
    1388: 7b 41                        	jnp	0x13cb <entrypoint+0xe2b>
    138a: 11 00                        	adcl	%eax, (%rax)
    138c: 00 00                        	addb	%al, (%rax)
    138e: 00 00                        	addb	%al, (%rax)
    1390: 7b 51                        	jnp	0x13e3 <entrypoint+0xe43>
    1392: 09 00                        	orl	%eax, (%rax)
    1394: 00 00                        	addb	%al, (%rax)
    1396: 00 00                        	addb	%al, (%rax)
    1398: 7b 21                        	jnp	0x13bb <entrypoint+0xe1b>
    139a: 01 00                        	addl	%eax, (%rax)
    139c: 00 00                        	addb	%al, (%rax)
    139e: 00 00                        	addb	%al, (%rax)
    13a0: b7 04                        	movb	$4, %bh
    13a2: 00 00                        	addb	%al, (%rax)
    13a4: 00 00                        	addb	%al, (%rax)
    13a6: 00 00                        	addb	%al, (%rax)
    13a8: 73 41                        	jae	0x13eb <entrypoint+0xe4b>
    13aa: 00 00                        	addb	%al, (%rax)
    13ac: 00 00                        	addb	%al, (%rax)
    13ae: 00 00                        	addb	%al, (%rax)
    13b0: 95                           	xchgl	%ebp, %eax
    13b1: 00 00                        	addb	%al, (%rax)
    13b3: 00 00                        	addb	%al, (%rax)
    13b5: 00 00                        	addb	%al, (%rax)
    13b7: 00 7b 31                     	addb	%bh, 49(%rbx)
    13ba: 08 00                        	orb	%al, (%rax)
    13bc: 00 00                        	addb	%al, (%rax)
    13be: 00 00                        	addb	%al, (%rax)
    13c0: 7b 21                        	jnp	0x13e3 <entrypoint+0xe43>
    13c2: 00 00                        	addb	%al, (%rax)
    13c4: 00 00                        	addb	%al, (%rax)
    13c6: 00 00                        	addb	%al, (%rax)
    13c8: 95                           	xchgl	%ebp, %eax
    13c9: 00 00                        	addb	%al, (%rax)
    13cb: 00 00                        	addb	%al, (%rax)
    13cd: 00 00                        	addb	%al, (%rax)
    13cf: 00 bf 10 00 00 00            	addb	%bh, 16(%rdi)
    13d5: 00 00                        	addb	%al, (%rax)
    13d7: 00 95 00 00 00 00            	addb	%dl, (%rbp)
    13dd: 00 00                        	addb	%al, (%rax)
    13df: 00 b7 02 00 00 08            	addb	%dh, 134217730(%rdi)
    13e5: 00 00                        	addb	%al, (%rax)
    13e7: 00 7b 21                     	addb	%bh, 33(%rbx)
    13ea: 08 00                        	orb	%al, (%rax)
    13ec: 00 00                        	addb	%al, (%rax)
    13ee: 00 00                        	addb	%al, (%rax)
    13f0: b7 02                        	movb	$2, %bh
    13f2: 00 00                        	addb	%al, (%rax)
    13f4: 30 00                        	xorb	%al, (%rax)
    13f6: 00 00                        	addb	%al, (%rax)
    13f8: 7b 21                        	jnp	0x141b <entrypoint+0xe7b>
    13fa: 00 00                        	addb	%al, (%rax)
    13fc: 00 00                        	addb	%al, (%rax)
    13fe: 00 00                        	addb	%al, (%rax)
    1400: 95                           	xchgl	%ebp, %eax
    1401: 00 00                        	addb	%al, (%rax)
    1403: 00 00                        	addb	%al, (%rax)
    1405: 00 00                        	addb	%al, (%rax)
    1407: 00 95 00 00 00 00            	addb	%dl, (%rbp)
    140d: 00 00                        	addb	%al, (%rax)
    140f: 00 bf 10 00 00 00            	addb	%bh, 16(%rdi)
    1415: 00 00                        	addb	%al, (%rax)
    1417: 00 95 00 00 00 00            	addb	%dl, (%rbp)
    141d: 00 00                        	addb	%al, (%rax)
    141f: 00 bf 28 00 00 00            	addb	%bh, 40(%rdi)
    1425: 00 00                        	addb	%al, (%rax)
    1427: 00 7b 1a                     	addb	%bh, 26(%rbx)
    142a: 48 ff 00                     	incq	(%rax)
    142d: 00 00                        	addb	%al, (%rax)
    142f: 00 79 87                     	addb	%bh, -121(%rcx)
    1432: 00 00                        	addb	%al, (%rax)
    1434: 00 00                        	addb	%al, (%rax)
    1436: 00 00                        	addb	%al, (%rax)
    1438: bf a1 00 00 00               	movl	$161, %edi
    143d: 00 00                        	addb	%al, (%rax)
    143f: 00 07                        	addb	%al, (%rdi)
    1441: 01 00                        	addl	%eax, (%rax)
    1443: 00 b8 ff ff ff b7            	addb	%bh, -1207959553(%rax)
    1449: 06                           	<unknown>
    144a: 00 00                        	addb	%al, (%rax)
    144c: 00 00                        	addb	%al, (%rax)
    144e: 00 00                        	addb	%al, (%rax)
    1450: bf 72 00 00 00               	movl	$114, %edi
    1455: 00 00                        	addb	%al, (%rax)
    1457: 00 b7 03 00 00 00            	addb	%dh, 3(%rdi)
    145d: 00 00                        	addb	%al, (%rax)
    145f: 00 85 10 00 00 dd            	addb	%al, -587202544(%rbp)
    1465: fe ff                        	<unknown>
    1467: ff 79 a1                     	<unknown>
    146a: c0 ff 00                     	sarb	$0, %bh
    146d: 00 00                        	addb	%al, (%rax)
    146f: 00 7b 1a                     	addb	%bh, 26(%rbx)
    1472: d0 ff                        	sarb	%bh
    1474: 00 00                        	addb	%al, (%rax)
    1476: 00 00                        	addb	%al, (%rax)
    1478: 79 a1                        	jns	0x141b <entrypoint+0xe7b>
    147a: b8 ff 00 00 00               	movl	$255, %eax
    147f: 00 7b 1a                     	addb	%bh, 26(%rbx)
    1482: c8 ff 00 00                  	enter	$255, $0
    1486: 00 00                        	addb	%al, (%rax)
    1488: 7b 6a                        	jnp	0x14f4 <entrypoint+0xf54>
    148a: d8 ff                        	fdivr	%st(7), %st
    148c: 00 00                        	addb	%al, (%rax)
    148e: 00 00                        	addb	%al, (%rax)
    1490: bf a1 00 00 00               	movl	$161, %edi
    1495: 00 00                        	addb	%al, (%rax)
    1497: 00 07                        	addb	%al, (%rdi)
    1499: 01 00                        	addl	%eax, (%rax)
    149b: 00 a8 ff ff ff b7            	addb	%ch, -1207959553(%rax)
    14a1: 02 00                        	addb	(%rax), %al
    14a3: 00 00                        	addb	%al, (%rax)
    14a5: 00 00                        	addb	%al, (%rax)
    14a7: 00 bf 73 00 00 00            	addb	%bh, 115(%rdi)
    14ad: 00 00                        	addb	%al, (%rax)
    14af: 00 85 10 00 00 e0            	addb	%al, -536870896(%rbp)
    14b5: ff ff                        	<unknown>
    14b7: ff b7 07 00 00 08            	pushq	134217735(%rdi)
    14bd: 00 00                        	addb	%al, (%rax)
    14bf: 00 79 a1                     	addb	%bh, -95(%rcx)
    14c2: b0 ff                        	movb	$-1, %al
    14c4: 00 00                        	addb	%al, (%rax)
    14c6: 00 00                        	addb	%al, (%rax)
    14c8: 79 a6                        	jns	0x1470 <entrypoint+0xed0>
    14ca: a8 ff                        	testb	$-1, %al
    14cc: 00 00                        	addb	%al, (%rax)
    14ce: 00 00                        	addb	%al, (%rax)
    14d0: 7b 1a                        	jnp	0x14ec <entrypoint+0xf4c>
    14d2: 50                           	pushq	%rax
    14d3: ff 00                        	incl	(%rax)
    14d5: 00 00                        	addb	%al, (%rax)
    14d7: 00 3d 16 36 00 00            	addb	%bh, 13846(%rip)  # 4af3 <entrypoint+0x4553>
    14dd: 00 00                        	addb	%al, (%rax)
    14df: 00 b7 07 00 00 08            	addb	%dh, 134217735(%rdi)
    14e5: 00 00                        	addb	%al, (%rax)
    14e7: 00 bf 69 00 00 00            	addb	%bh, 105(%rdi)
    14ed: 00 00                        	addb	%al, (%rax)
    14ef: 00 7b 8a                     	addb	%bh, -118(%rbx)
    14f2: 80 ff 00                     	cmpb	$0, %bh
    14f5: 00 00                        	addb	%al, (%rax)
    14f7: 00 05 00 2b 00 00            	addb	%al, 11008(%rip)  # 3ffd <entrypoint+0x3a5d>
    14fd: 00 00                        	addb	%al, (%rax)
    14ff: 00 bf a1 00 00 00            	addb	%bh, 161(%rdi)
    1505: 00 00                        	addb	%al, (%rax)
    1507: 00 07                        	addb	%al, (%rdi)
    1509: 01 00                        	addl	%eax, (%rax)
    150b: 00 c8                        	addb	%cl, %al
    150d: ff ff                        	<unknown>
    150f: ff 85 10 00 00 f0            	incl	-268435440(%rbp)
    1515: fe ff                        	<unknown>
    1517: ff 79 a1                     	<unknown>
    151a: d8 ff                        	fdivr	%st(7), %st
    151c: 00 00                        	addb	%al, (%rax)
    151e: 00 00                        	addb	%al, (%rax)
    1520: 71 a2                        	jno	0x14c4 <entrypoint+0xf24>
    1522: e7 ff                        	outl	%eax, $255
    1524: 00 00                        	addb	%al, (%rax)
    1526: 00 00                        	addb	%al, (%rax)
    1528: 73 2a                        	jae	0x1554 <entrypoint+0xfb4>
    152a: ec                           	inb	%dx, %al
    152b: ff 00                        	incl	(%rax)
    152d: 00 00                        	addb	%al, (%rax)
    152f: 00 61 a2                     	addb	%ah, -94(%rcx)
    1532: e3 ff                        	jrcxz	0x1533 <entrypoint+0xf93>
    1534: 00 00                        	addb	%al, (%rax)
    1536: 00 00                        	addb	%al, (%rax)
    1538: 63 2a                        	movslq	(%rdx), %ebp
    153a: e8 ff 00 00 00               	callq	0x163e <entrypoint+0x109e>
    153f: 00 27                        	addb	%ah, (%rdi)
    1541: 01 00                        	addl	%eax, (%rax)
    1543: 00 30                        	addb	%dh, (%rax)
    1545: 00 00                        	addb	%al, (%rax)
    1547: 00 0f                        	addb	%cl, (%rdi)
    1549: 10 00                        	adcb	%al, (%rax)
    154b: 00 00                        	addb	%al, (%rax)
    154d: 00 00                        	addb	%al, (%rax)
    154f: 00 73 70                     	addb	%dh, 112(%rbx)
    1552: 2a 00                        	subb	(%rax), %al
    1554: 00 00                        	addb	%al, (%rax)
    1556: 00 00                        	addb	%al, (%rax)
    1558: 79 a1                        	jns	0x14fb <entrypoint+0xf5b>
    155a: 68 ff 00 00 00               	pushq	$255
    155f: 00 73 10                     	addb	%dh, 16(%rbx)
    1562: 29 00                        	subl	%eax, (%rax)
    1564: 00 00                        	addb	%al, (%rax)
    1566: 00 00                        	addb	%al, (%rax)
    1568: 79 a1                        	jns	0x150b <entrypoint+0xf6b>
    156a: 70 ff                        	jo	0x156b <entrypoint+0xfcb>
    156c: 00 00                        	addb	%al, (%rax)
    156e: 00 00                        	addb	%al, (%rax)
    1570: 73 10                        	jae	0x1582 <entrypoint+0xfe2>
    1572: 28 00                        	subb	%al, (%rax)
    1574: 00 00                        	addb	%al, (%rax)
    1576: 00 00                        	addb	%al, (%rax)
    1578: 7b 90                        	jnp	0x150a <entrypoint+0xf6a>
    157a: 20 00                        	andb	%al, (%rax)
    157c: 00 00                        	addb	%al, (%rax)
    157e: 00 00                        	addb	%al, (%rax)
    1580: 7b 60                        	jnp	0x15e2 <entrypoint+0x1042>
    1582: 18 00                        	sbbb	%al, (%rax)
    1584: 00 00                        	addb	%al, (%rax)
    1586: 00 00                        	addb	%al, (%rax)
    1588: 79 a1                        	jns	0x152b <entrypoint+0xf8b>
    158a: 58                           	popq	%rax
    158b: ff 00                        	incl	(%rax)
    158d: 00 00                        	addb	%al, (%rax)
    158f: 00 7b 10                     	addb	%bh, 16(%rbx)
    1592: 10 00                        	adcb	%al, (%rax)
    1594: 00 00                        	addb	%al, (%rax)
    1596: 00 00                        	addb	%al, (%rax)
    1598: 79 a1                        	jns	0x153b <entrypoint+0xf9b>
    159a: 60                           	<unknown>
    159b: ff 00                        	incl	(%rax)
    159d: 00 00                        	addb	%al, (%rax)
    159f: 00 7b 10                     	addb	%bh, 16(%rbx)
    15a2: 08 00                        	orb	%al, (%rax)
    15a4: 00 00                        	addb	%al, (%rax)
    15a6: 00 00                        	addb	%al, (%rax)
    15a8: 79 a1                        	jns	0x154b <entrypoint+0xfab>
    15aa: 78 ff                        	js	0x15ab <entrypoint+0x100b>
    15ac: 00 00                        	addb	%al, (%rax)
    15ae: 00 00                        	addb	%al, (%rax)
    15b0: 7b 10                        	jnp	0x15c2 <entrypoint+0x1022>
    15b2: 00 00                        	addb	%al, (%rax)
    15b4: 00 00                        	addb	%al, (%rax)
    15b6: 00 00                        	addb	%al, (%rax)
    15b8: bf a1 00 00 00               	movl	$161, %edi
    15bd: 00 00                        	addb	%al, (%rax)
    15bf: 00 07                        	addb	%al, (%rdi)
    15c1: 01 00                        	addl	%eax, (%rax)
    15c3: 00 e3                        	addb	%ah, %bl
    15c5: ff ff                        	<unknown>
    15c7: ff bf a1 00 00 00            	<unknown>
    15cd: 00 00                        	addb	%al, (%rax)
    15cf: 00 07                        	addb	%al, (%rdi)
    15d1: 01 00                        	addl	%eax, (%rax)
    15d3: 00 e8                        	addb	%ch, %al
    15d5: ff ff                        	<unknown>
    15d7: ff 07                        	incl	(%rdi)
    15d9: 00 00                        	addb	%al, (%rax)
    15db: 00 2b                        	addb	%ch, (%rbx)
    15dd: 00 00                        	addb	%al, (%rax)
    15df: 00 79 a8                     	addb	%bh, -88(%rcx)
    15e2: 80 ff 00                     	cmpb	$0, %bh
    15e5: 00 00                        	addb	%al, (%rax)
    15e7: 00 79 a9                     	addb	%bh, -87(%rcx)
    15ea: 90                           	nop
    15eb: ff 00                        	incl	(%rax)
    15ed: 00 00                        	addb	%al, (%rax)
    15ef: 00 79 a7                     	addb	%bh, -89(%rcx)
    15f2: 88 ff                        	movb	%bh, %bh
    15f4: 00 00                        	addb	%al, (%rax)
    15f6: 00 00                        	addb	%al, (%rax)
    15f8: 71 12                        	jno	0x160c <entrypoint+0x106c>
    15fa: 04 00                        	addb	$0, %al
    15fc: 00 00                        	addb	%al, (%rax)
    15fe: 00 00                        	addb	%al, (%rax)
    1600: 73 20                        	jae	0x1622 <entrypoint+0x1082>
    1602: 04 00                        	addb	$0, %al
    1604: 00 00                        	addb	%al, (%rax)
    1606: 00 00                        	addb	%al, (%rax)
    1608: 61                           	<unknown>
    1609: 11 00                        	adcl	%eax, (%rax)
    160b: 00 00                        	addb	%al, (%rax)
    160d: 00 00                        	addb	%al, (%rax)
    160f: 00 63 10                     	addb	%ah, 16(%rbx)
    1612: 00 00                        	addb	%al, (%rax)
    1614: 00 00                        	addb	%al, (%rax)
    1616: 00 00                        	addb	%al, (%rax)
    1618: 79 a1                        	jns	0x15bb <entrypoint+0x101b>
    161a: d8 ff                        	fdivr	%st(7), %st
    161c: 00 00                        	addb	%al, (%rax)
    161e: 00 00                        	addb	%al, (%rax)
    1620: 07                           	<unknown>
    1621: 01 00                        	addl	%eax, (%rax)
    1623: 00 01                        	addb	%al, (%rcx)
    1625: 00 00                        	addb	%al, (%rax)
    1627: 00 7b 1a                     	addb	%bh, 26(%rbx)
    162a: d8 ff                        	fdivr	%st(7), %st
    162c: 00 00                        	addb	%al, (%rax)
    162e: 00 00                        	addb	%al, (%rax)
    1630: 07                           	<unknown>
    1631: 07                           	<unknown>
    1632: 00 00                        	addb	%al, (%rax)
    1634: 08 00                        	orb	%al, (%rax)
    1636: 00 00                        	addb	%al, (%rax)
    1638: bf 96 00 00 00               	movl	$150, %edi
    163d: 00 00                        	addb	%al, (%rax)
    163f: 00 79 a1                     	addb	%bh, -95(%rcx)
    1642: 50                           	pushq	%rax
    1643: ff 00                        	incl	(%rax)
    1645: 00 00                        	addb	%al, (%rax)
    1647: 00 2d 91 01 00 00            	addb	%ch, 401(%rip)  # 17de <entrypoint+0x123e>
    164d: 00 00                        	addb	%al, (%rax)
    164f: 00 05 00 07 00 00            	addb	%al, 1792(%rip)  # 1d55 <entrypoint+0x17b5>
    1655: 00 00                        	addb	%al, (%rax)
    1657: 00 b7 01 00 00 01            	addb	%dh, 16777217(%rdi)
    165d: 00 00                        	addb	%al, (%rax)
    165f: 00 85 10 00 00 b5            	addb	%al, -1258291184(%rbp)
    1665: 00 00                        	addb	%al, (%rax)
    1667: 00 0f                        	addb	%cl, (%rdi)
    1669: 09 00                        	orl	%eax, (%rax)
    166b: 00 00                        	addb	%al, (%rax)
    166d: 00 00                        	addb	%al, (%rax)
    166f: 00 b7 01 00 00 01            	addb	%dh, 16777217(%rdi)
    1675: 00 00                        	addb	%al, (%rax)
    1677: 00 2d 96 01 00 00            	addb	%ch, 406(%rip)  # 1813 <entrypoint+0x1273>
    167d: 00 00                        	addb	%al, (%rax)
    167f: 00 b7 01 00 00 00            	addb	%dh, 1(%rdi)
    1685: 00 00                        	addb	%al, (%rax)
    1687: 00 55 01                     	addb	%dl, 1(%rbp)
    168a: 1a 00                        	sbbb	(%rax), %al
    168c: 01 00                        	addl	%eax, (%rax)
    168e: 00 00                        	addb	%al, (%rax)
    1690: bf 81 00 00 00               	movl	$129, %edi
    1695: 00 00                        	addb	%al, (%rax)
    1697: 00 0f                        	addb	%cl, (%rdi)
    1699: 71 00                        	jno	0x169b <entrypoint+0x10fb>
    169b: 00 00                        	addb	%al, (%rax)
    169d: 00 00                        	addb	%al, (%rax)
    169f: 00 79 11                     	addb	%bh, 17(%rcx)
    16a2: 00 00                        	addb	%al, (%rax)
    16a4: 00 00                        	addb	%al, (%rax)
    16a6: 00 00                        	addb	%al, (%rax)
    16a8: 79 a2                        	jns	0x164c <entrypoint+0x10ac>
    16aa: d8 ff                        	fdivr	%st(7), %st
    16ac: 00 00                        	addb	%al, (%rax)
    16ae: 00 00                        	addb	%al, (%rax)
    16b0: 7b 2a                        	jnp	0x16dc <entrypoint+0x113c>
    16b2: f8                           	clc
    16b3: ff 00                        	incl	(%rax)
    16b5: 00 00                        	addb	%al, (%rax)
    16b7: 00 79 a2                     	addb	%bh, -94(%rcx)
    16ba: d0 ff                        	sarb	%bh
    16bc: 00 00                        	addb	%al, (%rax)
    16be: 00 00                        	addb	%al, (%rax)
    16c0: 7b 2a                        	jnp	0x16ec <entrypoint+0x114c>
    16c2: f0                           	lock
    16c3: ff 00                        	incl	(%rax)
    16c5: 00 00                        	addb	%al, (%rax)
    16c7: 00 79 a2                     	addb	%bh, -94(%rcx)
    16ca: c8 ff 00 00                  	enter	$255, $0
    16ce: 00 00                        	addb	%al, (%rax)
    16d0: 7b 2a                        	jnp	0x16fc <entrypoint+0x115c>
    16d2: e8 ff 00 00 00               	callq	0x17d6 <entrypoint+0x1236>
    16d7: 00 07                        	addb	%al, (%rdi)
    16d9: 07                           	<unknown>
    16da: 00 00                        	addb	%al, (%rax)
    16dc: 08 00                        	orb	%al, (%rax)
    16de: 00 00                        	addb	%al, (%rax)
    16e0: bf 12 00 00 00               	movl	$18, %edi
    16e5: 00 00                        	addb	%al, (%rax)
    16e7: 00 0f                        	addb	%cl, (%rdi)
    16e9: 72 00                        	jb	0x16eb <entrypoint+0x114b>
    16eb: 00 00                        	addb	%al, (%rax)
    16ed: 00 00                        	addb	%al, (%rax)
    16ef: 00 bf 83 00 00 00            	addb	%bh, 131(%rdi)
    16f5: 00 00                        	addb	%al, (%rax)
    16f7: 00 0f                        	addb	%cl, (%rdi)
    16f9: 23 00                        	andl	(%rax), %eax
    16fb: 00 00                        	addb	%al, (%rax)
    16fd: 00 00                        	addb	%al, (%rax)
    16ff: 00 79 a4                     	addb	%bh, -92(%rcx)
    1702: 48 ff 00                     	incq	(%rax)
    1705: 00 00                        	addb	%al, (%rax)
    1707: 00 7b 34                     	addb	%bh, 52(%rbx)
    170a: 00 00                        	addb	%al, (%rax)
    170c: 00 00                        	addb	%al, (%rax)
    170e: 00 00                        	addb	%al, (%rax)
    1710: 79 a2                        	jns	0x16b4 <entrypoint+0x1114>
    1712: e8 ff 00 00 00               	callq	0x1816 <entrypoint+0x1276>
    1717: 00 7b 24                     	addb	%bh, 36(%rbx)
    171a: 08 00                        	orb	%al, (%rax)
    171c: 00 00                        	addb	%al, (%rax)
    171e: 00 00                        	addb	%al, (%rax)
    1720: 79 a2                        	jns	0x16c4 <entrypoint+0x1124>
    1722: f0                           	lock
    1723: ff 00                        	incl	(%rax)
    1725: 00 00                        	addb	%al, (%rax)
    1727: 00 7b 24                     	addb	%bh, 36(%rbx)
    172a: 10 00                        	adcb	%al, (%rax)
    172c: 00 00                        	addb	%al, (%rax)
    172e: 00 00                        	addb	%al, (%rax)
    1730: 79 a2                        	jns	0x16d4 <entrypoint+0x1134>
    1732: f8                           	clc
    1733: ff 00                        	incl	(%rax)
    1735: 00 00                        	addb	%al, (%rax)
    1737: 00 7b 24                     	addb	%bh, 36(%rbx)
    173a: 18 00                        	sbbb	%al, (%rax)
    173c: 00 00                        	addb	%al, (%rax)
    173e: 00 00                        	addb	%al, (%rax)
    1740: 7b 14                        	jnp	0x1756 <entrypoint+0x11b6>
    1742: 28 00                        	subb	%al, (%rax)
    1744: 00 00                        	addb	%al, (%rax)
    1746: 00 00                        	addb	%al, (%rax)
    1748: 0f 78 00                     	vmreadq	%rax, (%rax)
    174b: 00 00                        	addb	%al, (%rax)
    174d: 00 00                        	addb	%al, (%rax)
    174f: 00 7b 84                     	addb	%bh, -124(%rbx)
    1752: 20 00                        	andb	%al, (%rax)
    1754: 00 00                        	addb	%al, (%rax)
    1756: 00 00                        	addb	%al, (%rax)
    1758: 95                           	xchgl	%ebp, %eax
    1759: 00 00                        	addb	%al, (%rax)
    175b: 00 00                        	addb	%al, (%rax)
    175d: 00 00                        	addb	%al, (%rax)
    175f: 00 bf 81 00 00 00            	addb	%bh, 129(%rdi)
    1765: 00 00                        	addb	%al, (%rax)
    1767: 00 0f                        	addb	%cl, (%rdi)
    1769: 71 00                        	jno	0x176b <entrypoint+0x11cb>
    176b: 00 00                        	addb	%al, (%rax)
    176d: 00 00                        	addb	%al, (%rax)
    176f: 00 bf 72 00 00 00            	addb	%bh, 114(%rdi)
    1775: 00 00                        	addb	%al, (%rax)
    1777: 00 71 17                     	addb	%dh, 23(%rcx)
    177a: 00 00                        	addb	%al, (%rax)
    177c: 00 00                        	addb	%al, (%rax)
    177e: 00 00                        	addb	%al, (%rax)
    1780: 7b 9a                        	jnp	0x171c <entrypoint+0x117c>
    1782: 90                           	nop
    1783: ff 00                        	incl	(%rax)
    1785: 00 00                        	addb	%al, (%rax)
    1787: 00 7b 2a                     	addb	%bh, 42(%rbx)
    178a: 88 ff                        	movb	%bh, %bh
    178c: 00 00                        	addb	%al, (%rax)
    178e: 00 00                        	addb	%al, (%rax)
    1790: 15 07 3a 00 ff               	adcl	$4278204935, %eax
    1795: 00 00                        	addb	%al, (%rax)
    1797: 00 bf a1 00 00 00            	addb	%bh, 161(%rdi)
    179d: 00 00                        	addb	%al, (%rax)
    179f: 00 07                        	addb	%al, (%rdi)
    17a1: 01 00                        	addl	%eax, (%rax)
    17a3: 00 98 ff ff ff bf            	addb	%bl, -1073741825(%rax)
    17a9: a2 00 00 00 00 00 00 07 02   	movabsb	%al, 146085512912830464
    17b2: 00 00                        	addb	%al, (%rax)
    17b4: c8 ff ff ff                  	enter	$-1, $-1
    17b8: 85 10                        	testl	%edx, (%rax)
    17ba: 00 00                        	addb	%al, (%rax)
    17bc: 6a fe                        	pushq	$-2
    17be: ff ff                        	<unknown>
    17c0: 79 a3                        	jns	0x1765 <entrypoint+0x11c5>
    17c2: a0 ff 00 00 00 00 2d 73 05   	movabsb	392707070534615295, %al
    17cb: 00 00                        	addb	%al, (%rax)
    17cd: 00 00                        	addb	%al, (%rax)
    17cf: 00 18                        	addb	%bl, (%rax)
    17d1: 01 00                        	addl	%eax, (%rax)
    17d3: 00 78 9b                     	addb	%bh, -101(%rax)
		...
    17de: 00 00                        	addb	%al, (%rax)
    17e0: bf 72 00 00 00               	movl	$114, %edi
    17e5: 00 00                        	addb	%al, (%rax)
    17e7: 00 85 10 00 00 f8            	addb	%al, -134217712(%rbp)
    17ed: 0c 00                        	orb	$0, %al
    17ef: 00 85 10 00 00 ff            	addb	%al, -16777200(%rbp)
    17f5: ff ff                        	<unknown>
    17f7: ff 79 a6                     	<unknown>
    17fa: 98                           	cwtl
    17fb: ff 00                        	incl	(%rax)
    17fd: 00 00                        	addb	%al, (%rax)
    17ff: 00 27                        	addb	%ah, (%rdi)
    1801: 07                           	<unknown>
    1802: 00 00                        	addb	%al, (%rax)
    1804: 30 00                        	xorb	%al, (%rax)
    1806: 00 00                        	addb	%al, (%rax)
    1808: 0f 76 00                     	pcmpeqd	(%rax), %mm0
    180b: 00 00                        	addb	%al, (%rax)
    180d: 00 00                        	addb	%al, (%rax)
    180f: 00 79 67                     	addb	%bh, 103(%rcx)
    1812: 08 00                        	orb	%al, (%rax)
    1814: 00 00                        	addb	%al, (%rax)
    1816: 00 00                        	addb	%al, (%rax)
    1818: 79 72                        	jns	0x188c <entrypoint+0x12ec>
    181a: 00 00                        	addb	%al, (%rax)
    181c: 00 00                        	addb	%al, (%rax)
    181e: 00 00                        	addb	%al, (%rax)
    1820: 07                           	<unknown>
    1821: 02 00                        	addb	(%rax), %al
    1823: 00 01                        	addb	%al, (%rcx)
    1825: 00 00                        	addb	%al, (%rax)
    1827: 00 25 02 02 00 01            	addb	%ah, 16777730(%rip)  # 1001a2f
    182d: 00 00                        	addb	%al, (%rax)
    182f: 00 85 10 00 00 ff            	addb	%al, -16777200(%rbp)
    1835: ff ff                        	<unknown>
    1837: ff 85 10 00 00 ff            	incl	-16777200(%rbp)
    183d: ff ff                        	<unknown>
    183f: ff 71 61                     	pushq	97(%rcx)
    1842: 29 00                        	subl	%eax, (%rax)
    1844: 00 00                        	addb	%al, (%rax)
    1846: 00 00                        	addb	%al, (%rax)
    1848: 7b 1a                        	jnp	0x1864 <entrypoint+0x12c4>
    184a: 68 ff 00 00 00               	pushq	$255
    184f: 00 71 61                     	addb	%dh, 97(%rcx)
    1852: 28 00                        	subb	%al, (%rax)
    1854: 00 00                        	addb	%al, (%rax)
    1856: 00 00                        	addb	%al, (%rax)
    1858: 7b 1a                        	jnp	0x1874 <entrypoint+0x12d4>
    185a: 70 ff                        	jo	0x185b <entrypoint+0x12bb>
    185c: 00 00                        	addb	%al, (%rax)
    185e: 00 00                        	addb	%al, (%rax)
    1860: 79 61                        	jns	0x18c3 <entrypoint+0x1323>
    1862: 00 00                        	addb	%al, (%rax)
    1864: 00 00                        	addb	%al, (%rax)
    1866: 00 00                        	addb	%al, (%rax)
    1868: 7b 1a                        	jnp	0x1884 <entrypoint+0x12e4>
    186a: 78 ff                        	js	0x186b <entrypoint+0x12cb>
    186c: 00 00                        	addb	%al, (%rax)
    186e: 00 00                        	addb	%al, (%rax)
    1870: bf 71 00 00 00               	movl	$113, %edi
    1875: 00 00                        	addb	%al, (%rax)
    1877: 00 85 10 00 00 e2            	addb	%al, -503316464(%rbp)
    187d: fe ff                        	<unknown>
    187f: ff bf 71 00 00 00            	<unknown>
    1885: 00 00                        	addb	%al, (%rax)
    1887: 00 85 10 00 00 25            	addb	%al, 620757008(%rbp)
    188d: ff ff                        	<unknown>
    188f: ff 7b 0a                     	<unknown>
    1892: 60                           	<unknown>
    1893: ff 00                        	incl	(%rax)
    1895: 00 00                        	addb	%al, (%rax)
    1897: 00 79 67                     	addb	%bh, 103(%rcx)
    189a: 10 00                        	adcb	%al, (%rax)
    189c: 00 00                        	addb	%al, (%rax)
    189e: 00 00                        	addb	%al, (%rax)
    18a0: 79 72                        	jns	0x1914 <entrypoint+0x1374>
    18a2: 00 00                        	addb	%al, (%rax)
    18a4: 00 00                        	addb	%al, (%rax)
    18a6: 00 00                        	addb	%al, (%rax)
    18a8: 07                           	<unknown>
    18a9: 02 00                        	addb	(%rax), %al
    18ab: 00 01                        	addb	%al, (%rcx)
    18ad: 00 00                        	addb	%al, (%rax)
    18af: 00 25 02 01 00 01            	addb	%ah, 16777474(%rip)  # 10019b7
    18b5: 00 00                        	addb	%al, (%rax)
    18b7: 00 05 00 ee ff 00            	addb	%al, 16772608(%rip)  # 10006bd
    18bd: 00 00                        	addb	%al, (%rax)
    18bf: 00 bf 69 00 00 00            	addb	%bh, 105(%rdi)
    18c5: 00 00                        	addb	%al, (%rax)
    18c7: 00 07                        	addb	%al, (%rdi)
    18c9: 09 00                        	orl	%eax, (%rax)
    18cb: 00 20                        	addb	%ah, (%rax)
    18cd: 00 00                        	addb	%al, (%rax)
    18cf: 00 bf 68 00 00 00            	addb	%bh, 104(%rdi)
    18d5: 00 00                        	addb	%al, (%rax)
    18d7: 00 07                        	addb	%al, (%rdi)
    18d9: 08 00                        	orb	%al, (%rax)
    18db: 00 2a                        	addb	%ch, (%rdx)
    18dd: 00 00                        	addb	%al, (%rax)
    18df: 00 07                        	addb	%al, (%rdi)
    18e1: 06                           	<unknown>
    18e2: 00 00                        	addb	%al, (%rax)
    18e4: 18 00                        	sbbb	%al, (%rax)
    18e6: 00 00                        	addb	%al, (%rax)
    18e8: bf 71 00 00 00               	movl	$113, %edi
    18ed: 00 00                        	addb	%al, (%rax)
    18ef: 00 85 10 00 00 d3            	addb	%al, -754974704(%rbp)
    18f5: fe ff                        	<unknown>
    18f7: ff bf 71 00 00 00            	<unknown>
    18fd: 00 00                        	addb	%al, (%rax)
    18ff: 00 85 10 00 00 16            	addb	%al, 369098768(%rbp)
    1905: ff ff                        	<unknown>
    1907: ff 7b 0a                     	<unknown>
    190a: 58                           	popq	%rax
    190b: ff 00                        	incl	(%rax)
    190d: 00 00                        	addb	%al, (%rax)
    190f: 00 79 99                     	addb	%bh, -103(%rcx)
    1912: 00 00                        	addb	%al, (%rax)
    1914: 00 00                        	addb	%al, (%rax)
    1916: 00 00                        	addb	%al, (%rax)
    1918: 71 87                        	jno	0x18a1 <entrypoint+0x1301>
    191a: 00 00                        	addb	%al, (%rax)
    191c: 00 00                        	addb	%al, (%rax)
    191e: 00 00                        	addb	%al, (%rax)
    1920: 79 66                        	jns	0x1988 <entrypoint+0x13e8>
    1922: 00 00                        	addb	%al, (%rax)
    1924: 00 00                        	addb	%al, (%rax)
    1926: 00 00                        	addb	%al, (%rax)
    1928: 79 a1                        	jns	0x18cb <entrypoint+0x132b>
    192a: d0 ff                        	sarb	%bh
    192c: 00 00                        	addb	%al, (%rax)
    192e: 00 00                        	addb	%al, (%rax)
    1930: 79 a2                        	jns	0x18d4 <entrypoint+0x1334>
    1932: d8 ff                        	fdivr	%st(7), %st
    1934: 00 00                        	addb	%al, (%rax)
    1936: 00 00                        	addb	%al, (%rax)
    1938: 5d                           	popq	%rbp
    1939: 12 78 ff                     	adcb	-1(%rax), %bh
    193c: 00 00                        	addb	%al, (%rax)
    193e: 00 00                        	addb	%al, (%rax)
    1940: bf a1 00 00 00               	movl	$161, %edi
    1945: 00 00                        	addb	%al, (%rax)
    1947: 00 07                        	addb	%al, (%rdi)
    1949: 01 00                        	addl	%eax, (%rax)
    194b: 00 c8                        	addb	%cl, %al
    194d: ff ff                        	<unknown>
    194f: ff b7 02 00 00 01            	pushq	16777218(%rdi)
    1955: 00 00                        	addb	%al, (%rax)
    1957: 00 85 10 00 00 32            	addb	%al, 838860816(%rbp)
    195d: fe ff                        	<unknown>
    195f: ff 05 00 73 ff 00            	incl	16741120(%rip)  # ff8c65
    1965: 00 00                        	addb	%al, (%rax)
    1967: 00 bf 29 00 00 00            	addb	%bh, 41(%rdi)
    196d: 00 00                        	addb	%al, (%rax)
    196f: 00 0f                        	addb	%cl, (%rdi)
    1971: 89 00                        	movl	%eax, (%rax)
    1973: 00 00                        	addb	%al, (%rax)
    1975: 00 00                        	addb	%al, (%rax)
    1977: 00 71 96                     	addb	%dh, -106(%rcx)
    197a: 01 00                        	addl	%eax, (%rax)
    197c: 00 00                        	addb	%al, (%rax)
    197e: 00 00                        	addb	%al, (%rax)
    1980: 71 97                        	jno	0x1919 <entrypoint+0x1379>
    1982: 02 00                        	addb	(%rax), %al
    1984: 00 00                        	addb	%al, (%rax)
    1986: 00 00                        	addb	%al, (%rax)
    1988: 71 98                        	jno	0x1922 <entrypoint+0x1382>
    198a: 03 00                        	addl	(%rax), %eax
    198c: 00 00                        	addb	%al, (%rax)
    198e: 00 00                        	addb	%al, (%rax)
    1990: bf 92 00 00 00               	movl	$146, %edi
    1995: 00 00                        	addb	%al, (%rax)
    1997: 00 07                        	addb	%al, (%rdi)
    1999: 02 00                        	addb	(%rax), %al
    199b: 00 48 00                     	addb	%cl, (%rax)
    199e: 00 00                        	addb	%al, (%rax)
    19a0: b7 01                        	movb	$1, %bh
    19a2: 00 00                        	addb	%al, (%rax)
    19a4: 00 00                        	addb	%al, (%rax)
    19a6: 00 00                        	addb	%al, (%rax)
    19a8: 85 10                        	testl	%edx, (%rax)
    19aa: 00 00                        	addb	%al, (%rax)
    19ac: 03 ff                        	addl	%edi, %edi
    19ae: ff ff                        	<unknown>
    19b0: 7b 0a                        	jnp	0x19bc <entrypoint+0x141c>
    19b2: 78 ff                        	js	0x19b3 <entrypoint+0x1413>
    19b4: 00 00                        	addb	%al, (%rax)
    19b6: 00 00                        	addb	%al, (%rax)
    19b8: 79 91                        	jns	0x194b <entrypoint+0x13ab>
    19ba: 50                           	pushq	%rax
    19bb: 00 00                        	addb	%al, (%rax)
    19bd: 00 00                        	addb	%al, (%rax)
    19bf: 00 bf 92 00 00 00            	addb	%bh, 146(%rdi)
    19c5: 00 00                        	addb	%al, (%rax)
    19c7: 00 07                        	addb	%al, (%rdi)
    19c9: 02 00                        	addb	(%rax), %al
    19cb: 00 58 00                     	addb	%bl, (%rax)
    19ce: 00 00                        	addb	%al, (%rax)
    19d0: 7b 2a                        	jnp	0x19fc <entrypoint+0x145c>
    19d2: f0                           	lock
    19d3: ff 00                        	incl	(%rax)
    19d5: 00 00                        	addb	%al, (%rax)
    19d7: 00 b7 02 00 00 01            	addb	%dh, 16777218(%rdi)
    19dd: 00 00                        	addb	%al, (%rax)
    19df: 00 b7 03 00 00 01            	addb	%dh, 16777219(%rdi)
    19e5: 00 00                        	addb	%al, (%rax)
    19e7: 00 55 08                     	addb	%dl, 8(%rbp)
    19ea: 01 00                        	addl	%eax, (%rax)
    19ec: 00 00                        	addb	%al, (%rax)
    19ee: 00 00                        	addb	%al, (%rax)
    19f0: b7 03                        	movb	$3, %bh
    19f2: 00 00                        	addb	%al, (%rax)
    19f4: 00 00                        	addb	%al, (%rax)
    19f6: 00 00                        	addb	%al, (%rax)
    19f8: b7 04                        	movb	$4, %bh
    19fa: 00 00                        	addb	%al, (%rax)
    19fc: 01 00                        	addl	%eax, (%rax)
    19fe: 00 00                        	addb	%al, (%rax)
    1a00: 55                           	pushq	%rbp
    1a01: 07                           	<unknown>
    1a02: 01 00                        	addl	%eax, (%rax)
    1a04: 00 00                        	addb	%al, (%rax)
    1a06: 00 00                        	addb	%al, (%rax)
    1a08: b7 04                        	movb	$4, %bh
    1a0a: 00 00                        	addb	%al, (%rax)
    1a0c: 00 00                        	addb	%al, (%rax)
    1a0e: 00 00                        	addb	%al, (%rax)
    1a10: 7b 4a                        	jnp	0x1a5c <entrypoint+0x14bc>
    1a12: 60                           	<unknown>
    1a13: ff 00                        	incl	(%rax)
    1a15: 00 00                        	addb	%al, (%rax)
    1a17: 00 7b 3a                     	addb	%bh, 58(%rbx)
    1a1a: 68 ff 00 00 00               	pushq	$255
    1a1f: 00 55 06                     	addb	%dl, 6(%rbp)
    1a22: 01 00                        	addl	%eax, (%rax)
    1a24: 00 00                        	addb	%al, (%rax)
    1a26: 00 00                        	addb	%al, (%rax)
    1a28: b7 02                        	movb	$2, %bh
    1a2a: 00 00                        	addb	%al, (%rax)
    1a2c: 00 00                        	addb	%al, (%rax)
    1a2e: 00 00                        	addb	%al, (%rax)
    1a30: 7b 2a                        	jnp	0x1a5c <entrypoint+0x14bc>
    1a32: 70 ff                        	jo	0x1a33 <entrypoint+0x1493>
    1a34: 00 00                        	addb	%al, (%rax)
    1a36: 00 00                        	addb	%al, (%rax)
    1a38: b7 02                        	movb	$2, %bh
    1a3a: 00 00                        	addb	%al, (%rax)
    1a3c: 00 00                        	addb	%al, (%rax)
    1a3e: 00 00                        	addb	%al, (%rax)
    1a40: 7b 2a                        	jnp	0x1a6c <entrypoint+0x14cc>
    1a42: e8 ff 00 00 00               	callq	0x1b46 <entrypoint+0x15a6>
    1a47: 00 7b 1a                     	addb	%bh, 26(%rbx)
    1a4a: f8                           	clc
    1a4b: ff 00                        	incl	(%rax)
    1a4d: 00 00                        	addb	%al, (%rax)
    1a4f: 00 79 a6                     	addb	%bh, -90(%rcx)
    1a52: 88 ff                        	movb	%bh, %bh
    1a54: 00 00                        	addb	%al, (%rax)
    1a56: 00 00                        	addb	%al, (%rax)
    1a58: 0f 16 00                     	movhps	(%rax), %xmm0
    1a5b: 00 00                        	addb	%al, (%rax)
    1a5d: 00 00                        	addb	%al, (%rax)
    1a5f: 00 bf a1 00 00 00            	addb	%bh, 161(%rdi)
    1a65: 00 00                        	addb	%al, (%rax)
    1a67: 00 07                        	addb	%al, (%rdi)
    1a69: 01 00                        	addl	%eax, (%rax)
    1a6b: 00 e8                        	addb	%ch, %al
    1a6d: ff ff                        	<unknown>
    1a6f: ff 85 10 00 00 fc            	incl	-67108848(%rbp)
    1a75: fe ff                        	<unknown>
    1a77: ff 7b 0a                     	<unknown>
    1a7a: 88 ff                        	movb	%bh, %bh
    1a7c: 00 00                        	addb	%al, (%rax)
    1a7e: 00 00                        	addb	%al, (%rax)
    1a80: 07                           	<unknown>
    1a81: 06                           	<unknown>
    1a82: 00 00                        	addb	%al, (%rax)
    1a84: 58                           	popq	%rax
    1a85: 28 00                        	subb	%al, (%rax)
    1a87: 00 bf 61 00 00 00            	addb	%bh, 97(%rdi)
    1a8d: 00 00                        	addb	%al, (%rax)
    1a8f: 00 b7 02 00 00 08            	addb	%dh, 134217730(%rdi)
    1a95: 00 00                        	addb	%al, (%rax)
    1a97: 00 85 10 00 00 be            	addb	%al, -1107296240(%rbp)
    1a9d: fe ff                        	<unknown>
    1a9f: ff bf 07 00 00 00            	<unknown>
    1aa5: 00 00                        	addb	%al, (%rax)
    1aa7: 00 0f                        	addb	%cl, (%rdi)
    1aa9: 67 00 00                     	addb	%al, (%eax)
    1aac: 00 00                        	addb	%al, (%rax)
    1aae: 00 00                        	addb	%al, (%rax)
    1ab0: bf 98 00 00 00               	movl	$152, %edi
    1ab5: 00 00                        	addb	%al, (%rax)
    1ab7: 00 07                        	addb	%al, (%rdi)
    1ab9: 08 00                        	orb	%al, (%rax)
    1abb: 00 28                        	addb	%ch, (%rax)
    1abd: 00 00                        	addb	%al, (%rax)
    1abf: 00 07                        	addb	%al, (%rdi)
    1ac1: 09 00                        	orl	%eax, (%rax)
    1ac3: 00 08                        	addb	%cl, (%rax)
    1ac5: 00 00                        	addb	%al, (%rax)
    1ac7: 00 79 a1                     	addb	%bh, -95(%rcx)
    1aca: 80 ff 00                     	cmpb	$0, %bh
    1acd: 00 00                        	addb	%al, (%rax)
    1acf: 00 0f                        	addb	%cl, (%rdi)
    1ad1: 71 00                        	jno	0x1ad3 <entrypoint+0x1533>
    1ad3: 00 00                        	addb	%al, (%rax)
    1ad5: 00 00                        	addb	%al, (%rax)
    1ad7: 00 79 16                     	addb	%bh, 22(%rcx)
    1ada: 00 00                        	addb	%al, (%rax)
    1adc: 00 00                        	addb	%al, (%rax)
    1ade: 00 00                        	addb	%al, (%rax)
    1ae0: 79 a1                        	jns	0x1a83 <entrypoint+0x14e3>
    1ae2: d0 ff                        	sarb	%bh
    1ae4: 00 00                        	addb	%al, (%rax)
    1ae6: 00 00                        	addb	%al, (%rax)
    1ae8: 79 a2                        	jns	0x1a8c <entrypoint+0x14ec>
    1aea: d8 ff                        	fdivr	%st(7), %st
    1aec: 00 00                        	addb	%al, (%rax)
    1aee: 00 00                        	addb	%al, (%rax)
    1af0: 5d                           	popq	%rbp
    1af1: 12 04 00                     	adcb	(%rax,%rax), %al
    1af4: 00 00                        	addb	%al, (%rax)
    1af6: 00 00                        	addb	%al, (%rax)
    1af8: bf a1 00 00 00               	movl	$161, %edi
    1afd: 00 00                        	addb	%al, (%rax)
    1aff: 00 07                        	addb	%al, (%rdi)
    1b01: 01 00                        	addl	%eax, (%rax)
    1b03: 00 c8                        	addb	%cl, %al
    1b05: ff ff                        	<unknown>
    1b07: ff b7 02 00 00 01            	pushq	16777218(%rdi)
    1b0d: 00 00                        	addb	%al, (%rax)
    1b0f: 00 85 10 00 00 fb            	addb	%al, -83886064(%rbp)
    1b15: fd                           	std
    1b16: ff ff                        	<unknown>
    1b18: bf a1 00 00 00               	movl	$161, %edi
    1b1d: 00 00                        	addb	%al, (%rax)
    1b1f: 00 07                        	addb	%al, (%rdi)
    1b21: 01 00                        	addl	%eax, (%rax)
    1b23: 00 c8                        	addb	%cl, %al
    1b25: ff ff                        	<unknown>
    1b27: ff 85 10 00 00 2d            	incl	754974736(%rbp)
    1b2d: fe ff                        	<unknown>
    1b2f: ff 79 a1                     	<unknown>
    1b32: d8 ff                        	fdivr	%st(7), %st
    1b34: 00 00                        	addb	%al, (%rax)
    1b36: 00 00                        	addb	%al, (%rax)
    1b38: 71 a2                        	jno	0x1adc <entrypoint+0x153c>
    1b3a: e7 ff                        	outl	%eax, $255
    1b3c: 00 00                        	addb	%al, (%rax)
    1b3e: 00 00                        	addb	%al, (%rax)
    1b40: 73 2a                        	jae	0x1b6c <entrypoint+0x15cc>
    1b42: ec                           	inb	%dx, %al
    1b43: ff 00                        	incl	(%rax)
    1b45: 00 00                        	addb	%al, (%rax)
    1b47: 00 61 a2                     	addb	%ah, -94(%rcx)
    1b4a: e3 ff                        	jrcxz	0x1b4b <entrypoint+0x15ab>
    1b4c: 00 00                        	addb	%al, (%rax)
    1b4e: 00 00                        	addb	%al, (%rax)
    1b50: 63 2a                        	movslq	(%rdx), %ebp
    1b52: e8 ff 00 00 00               	callq	0x1c56 <entrypoint+0x16b6>
    1b57: 00 27                        	addb	%ah, (%rdi)
    1b59: 01 00                        	addl	%eax, (%rax)
    1b5b: 00 30                        	addb	%dh, (%rax)
    1b5d: 00 00                        	addb	%al, (%rax)
    1b5f: 00 0f                        	addb	%cl, (%rdi)
    1b61: 10 00                        	adcb	%al, (%rax)
    1b63: 00 00                        	addb	%al, (%rax)
    1b65: 00 00                        	addb	%al, (%rax)
    1b67: 00 79 a1                     	addb	%bh, -95(%rcx)
    1b6a: 68 ff 00 00 00               	pushq	$255
    1b6f: 00 73 10                     	addb	%dh, 16(%rbx)
    1b72: 2a 00                        	subb	(%rax), %al
    1b74: 00 00                        	addb	%al, (%rax)
    1b76: 00 00                        	addb	%al, (%rax)
    1b78: 79 a1                        	jns	0x1b1b <entrypoint+0x157b>
    1b7a: 60                           	<unknown>
    1b7b: ff 00                        	incl	(%rax)
    1b7d: 00 00                        	addb	%al, (%rax)
    1b7f: 00 73 10                     	addb	%dh, 16(%rbx)
    1b82: 29 00                        	subl	%eax, (%rax)
    1b84: 00 00                        	addb	%al, (%rax)
    1b86: 00 00                        	addb	%al, (%rax)
    1b88: 79 a1                        	jns	0x1b2b <entrypoint+0x158b>
    1b8a: 70 ff                        	jo	0x1b8b <entrypoint+0x15eb>
    1b8c: 00 00                        	addb	%al, (%rax)
    1b8e: 00 00                        	addb	%al, (%rax)
    1b90: 73 10                        	jae	0x1ba2 <entrypoint+0x1602>
    1b92: 28 00                        	subb	%al, (%rax)
    1b94: 00 00                        	addb	%al, (%rax)
    1b96: 00 00                        	addb	%al, (%rax)
    1b98: 7b 60                        	jnp	0x1bfa <entrypoint+0x165a>
    1b9a: 20 00                        	andb	%al, (%rax)
    1b9c: 00 00                        	addb	%al, (%rax)
    1b9e: 00 00                        	addb	%al, (%rax)
    1ba0: 7b 80                        	jnp	0x1b22 <entrypoint+0x1582>
    1ba2: 18 00                        	sbbb	%al, (%rax)
    1ba4: 00 00                        	addb	%al, (%rax)
    1ba6: 00 00                        	addb	%al, (%rax)
    1ba8: 79 a1                        	jns	0x1b4b <entrypoint+0x15ab>
    1baa: 88 ff                        	movb	%bh, %bh
    1bac: 00 00                        	addb	%al, (%rax)
    1bae: 00 00                        	addb	%al, (%rax)
    1bb0: 7b 10                        	jnp	0x1bc2 <entrypoint+0x1622>
    1bb2: 10 00                        	adcb	%al, (%rax)
    1bb4: 00 00                        	addb	%al, (%rax)
    1bb6: 00 00                        	addb	%al, (%rax)
    1bb8: 79 a1                        	jns	0x1b5b <entrypoint+0x15bb>
    1bba: 78 ff                        	js	0x1bbb <entrypoint+0x161b>
    1bbc: 00 00                        	addb	%al, (%rax)
    1bbe: 00 00                        	addb	%al, (%rax)
    1bc0: 7b 10                        	jnp	0x1bd2 <entrypoint+0x1632>
    1bc2: 08 00                        	orb	%al, (%rax)
    1bc4: 00 00                        	addb	%al, (%rax)
    1bc6: 00 00                        	addb	%al, (%rax)
    1bc8: 7b 90                        	jnp	0x1b5a <entrypoint+0x15ba>
    1bca: 00 00                        	addb	%al, (%rax)
    1bcc: 00 00                        	addb	%al, (%rax)
    1bce: 00 00                        	addb	%al, (%rax)
    1bd0: bf a1 00 00 00               	movl	$161, %edi
    1bd5: 00 00                        	addb	%al, (%rax)
    1bd7: 00 07                        	addb	%al, (%rdi)
    1bd9: 01 00                        	addl	%eax, (%rax)
    1bdb: 00 e3                        	addb	%ah, %bl
    1bdd: ff ff                        	<unknown>
    1bdf: ff bf a1 00 00 00            	<unknown>
    1be5: 00 00                        	addb	%al, (%rax)
    1be7: 00 07                        	addb	%al, (%rdi)
    1be9: 01 00                        	addl	%eax, (%rax)
    1beb: 00 e8                        	addb	%ch, %al
    1bed: ff ff                        	<unknown>
    1bef: ff 07                        	incl	(%rdi)
    1bf1: 00 00                        	addb	%al, (%rax)
    1bf3: 00 2b                        	addb	%ch, (%rbx)
    1bf5: 00 00                        	addb	%al, (%rax)
    1bf7: 00 79 a8                     	addb	%bh, -88(%rcx)
    1bfa: 80 ff 00                     	cmpb	$0, %bh
    1bfd: 00 00                        	addb	%al, (%rax)
    1bff: 00 79 a9                     	addb	%bh, -87(%rcx)
    1c02: 90                           	nop
    1c03: ff 00                        	incl	(%rax)
    1c05: 00 00                        	addb	%al, (%rax)
    1c07: 00 05 00 3d ff 00            	addb	%al, 16727296(%rip)  # ff590d
    1c0d: 00 00                        	addb	%al, (%rax)
    1c0f: 00 bf 10 00 00 00            	addb	%bh, 16(%rdi)
    1c15: 00 00                        	addb	%al, (%rax)
    1c17: 00 95 00 00 00 00            	addb	%dl, (%rbp)
    1c1d: 00 00                        	addb	%al, (%rax)
    1c1f: 00 85 10 00 00 ff            	addb	%al, -16777200(%rbp)
    1c25: ff ff                        	<unknown>
    1c27: ff 95 00 00 00 00            	callq	*(%rbp)
    1c2d: 00 00                        	addb	%al, (%rax)
    1c2f: 00 85 10 00 00 2c            	addb	%al, 738197520(%rbp)
    1c35: 01 00                        	addl	%eax, (%rax)
    1c37: 00 bf 06 00 00 00            	addb	%bh, 6(%rdi)
    1c3d: 00 00                        	addb	%al, (%rax)
    1c3f: 00 55 06                     	addb	%dl, 6(%rbp)
    1c42: 06                           	<unknown>
    1c43: 00 00                        	addb	%al, (%rax)
    1c45: 00 00                        	addb	%al, (%rax)
    1c47: 00 b7 01 00 00 00            	addb	%dh, 1(%rdi)
    1c4d: 00 00                        	addb	%al, (%rax)
    1c4f: 00 b7 02 00 00 00            	addb	%dh, 2(%rdi)
    1c55: 00 00                        	addb	%al, (%rax)
    1c57: 00 b7 03 00 00 00            	addb	%dh, 3(%rdi)
    1c5d: 00 00                        	addb	%al, (%rax)
    1c5f: 00 b7 04 00 00 00            	addb	%dh, 4(%rdi)
    1c65: 00 00                        	addb	%al, (%rax)
    1c67: 00 85 10 00 00 ff            	addb	%al, -16777200(%rbp)
    1c6d: ff ff                        	<unknown>
    1c6f: ff 85 10 00 00 ff            	incl	-16777200(%rbp)
    1c75: ff ff                        	<unknown>
    1c77: ff b7 01 00 00 00            	pushq	1(%rdi)
    1c7d: 00 00                        	addb	%al, (%rax)
    1c7f: 00 7b 1a                     	addb	%bh, 26(%rbx)
    1c82: c8 ff 00 00                  	enter	$255, $0
    1c86: 00 00                        	addb	%al, (%rax)
    1c88: 7b 1a                        	jnp	0x1ca4 <entrypoint+0x1704>
    1c8a: c0 ff 00                     	sarb	$0, %bh
    1c8d: 00 00                        	addb	%al, (%rax)
    1c8f: 00 7b 1a                     	addb	%bh, 26(%rbx)
    1c92: b8 ff 00 00 00               	movl	$255, %eax
    1c97: 00 7b 1a                     	addb	%bh, 26(%rbx)
    1c9a: b0 ff                        	movb	$-1, %al
    1c9c: 00 00                        	addb	%al, (%rax)
    1c9e: 00 00                        	addb	%al, (%rax)
    1ca0: 7b 1a                        	jnp	0x1cbc <entrypoint+0x171c>
    1ca2: a8 ff                        	testb	$-1, %al
    1ca4: 00 00                        	addb	%al, (%rax)
    1ca6: 00 00                        	addb	%al, (%rax)
    1ca8: 7b 1a                        	jnp	0x1cc4 <entrypoint+0x1724>
    1caa: a0 ff 00 00 00 00 7b 1a 98   	movabsb	-7486536190619811585, %al
    1cb3: ff 00                        	incl	(%rax)
    1cb5: 00 00                        	addb	%al, (%rax)
    1cb7: 00 7b 1a                     	addb	%bh, 26(%rbx)
    1cba: 90                           	nop
    1cbb: ff 00                        	incl	(%rax)
    1cbd: 00 00                        	addb	%al, (%rax)
    1cbf: 00 7b 1a                     	addb	%bh, 26(%rbx)
    1cc2: 88 ff                        	movb	%bh, %bh
    1cc4: 00 00                        	addb	%al, (%rax)
    1cc6: 00 00                        	addb	%al, (%rax)
    1cc8: 7b 1a                        	jnp	0x1ce4 <entrypoint+0x1744>
    1cca: 80 ff 00                     	cmpb	$0, %bh
    1ccd: 00 00                        	addb	%al, (%rax)
    1ccf: 00 7b 1a                     	addb	%bh, 26(%rbx)
    1cd2: 78 ff                        	js	0x1cd3 <entrypoint+0x1733>
    1cd4: 00 00                        	addb	%al, (%rax)
    1cd6: 00 00                        	addb	%al, (%rax)
    1cd8: 7b 1a                        	jnp	0x1cf4 <entrypoint+0x1754>
    1cda: 70 ff                        	jo	0x1cdb <entrypoint+0x173b>
    1cdc: 00 00                        	addb	%al, (%rax)
    1cde: 00 00                        	addb	%al, (%rax)
    1ce0: 7b 1a                        	jnp	0x1cfc <entrypoint+0x175c>
    1ce2: 68 ff 00 00 00               	pushq	$255
    1ce7: 00 7b 1a                     	addb	%bh, 26(%rbx)
    1cea: 60                           	<unknown>
    1ceb: ff 00                        	incl	(%rax)
    1ced: 00 00                        	addb	%al, (%rax)
    1cef: 00 7b 1a                     	addb	%bh, 26(%rbx)
    1cf2: 58                           	popq	%rax
    1cf3: ff 00                        	incl	(%rax)
    1cf5: 00 00                        	addb	%al, (%rax)
    1cf7: 00 7b 1a                     	addb	%bh, 26(%rbx)
    1cfa: 50                           	pushq	%rax
    1cfb: ff 00                        	incl	(%rax)
    1cfd: 00 00                        	addb	%al, (%rax)
    1cff: 00 bf a1 00 00 00            	addb	%bh, 161(%rdi)
    1d05: 00 00                        	addb	%al, (%rax)
    1d07: 00 07                        	addb	%al, (%rdi)
    1d09: 01 00                        	addl	%eax, (%rax)
    1d0b: 00 40 ff                     	addb	%al, -1(%rax)
    1d0e: ff ff                        	<unknown>
    1d10: bf 62 00 00 00               	movl	$98, %edi
    1d15: 00 00                        	addb	%al, (%rax)
    1d17: 00 85 10 00 00 17            	addb	%al, 385875984(%rbp)
    1d1d: 01 00                        	addl	%eax, (%rax)
    1d1f: 00 79 a1                     	addb	%bh, -95(%rcx)
    1d22: 48 ff 00                     	incq	(%rax)
    1d25: 00 00                        	addb	%al, (%rax)
    1d27: 00 79 a2                     	addb	%bh, -94(%rcx)
    1d2a: 40 ff 00                     	incl	(%rax)
    1d2d: 00 00                        	addb	%al, (%rax)
    1d2f: 00 bf 23 00 00 00            	addb	%bh, 35(%rdi)
    1d35: 00 00                        	addb	%al, (%rax)
    1d37: 00 0f                        	addb	%cl, (%rdi)
    1d39: 13 00                        	adcl	(%rax), %eax
    1d3b: 00 00                        	addb	%al, (%rax)
    1d3d: 00 00                        	addb	%al, (%rax)
    1d3f: 00 bf a7 00 00 00            	addb	%bh, 167(%rdi)
    1d45: 00 00                        	addb	%al, (%rax)
    1d47: 00 07                        	addb	%al, (%rdi)
    1d49: 07                           	<unknown>
    1d4a: 00 00                        	addb	%al, (%rax)
    1d4c: e8 ff ff ff bf               	callq	0xffffffffc0001d50
    1d51: 71 00                        	jno	0x1d53 <entrypoint+0x17b3>
    1d53: 00 00                        	addb	%al, (%rax)
    1d55: 00 00                        	addb	%al, (%rax)
    1d57: 00 85 10 00 00 2b            	addb	%al, 721420304(%rbp)
    1d5d: 00 00                        	addb	%al, (%rax)
    1d5f: 00 bf a1 00 00 00            	addb	%bh, 161(%rdi)
    1d65: 00 00                        	addb	%al, (%rax)
    1d67: 00 07                        	addb	%al, (%rdi)
    1d69: 01 00                        	addl	%eax, (%rax)
    1d6b: 00 d0                        	addb	%dl, %al
    1d6d: ff ff                        	<unknown>
    1d6f: ff bf 72 00 00 00            	<unknown>
    1d75: 00 00                        	addb	%al, (%rax)
    1d77: 00 85 10 00 00 2c            	addb	%al, 738197520(%rbp)
    1d7d: 00 00                        	addb	%al, (%rax)
    1d7f: 00 79 a1                     	addb	%bh, -95(%rcx)
    1d82: d8 ff                        	fdivr	%st(7), %st
    1d84: 00 00                        	addb	%al, (%rax)
    1d86: 00 00                        	addb	%al, (%rax)
    1d88: 79 a2                        	jns	0x1d2c <entrypoint+0x178c>
    1d8a: d0 ff                        	sarb	%bh
    1d8c: 00 00                        	addb	%al, (%rax)
    1d8e: 00 00                        	addb	%al, (%rax)
    1d90: 1d 12 1c 00 00               	sbbl	$7186, %eax
    1d95: 00 00                        	addb	%al, (%rax)
    1d97: 00 79 a3                     	addb	%bh, -93(%rcx)
    1d9a: e0 ff                        	loopne	0x1d9b <entrypoint+0x17fb>
    1d9c: 00 00                        	addb	%al, (%rax)
    1d9e: 00 00                        	addb	%al, (%rax)
    1da0: b7 04                        	movb	$4, %bh
    1da2: 00 00                        	addb	%al, (%rax)
    1da4: 80 00 00                     	addb	$0, (%rax)
    1da7: 00 05 00 08 00 00            	addb	%al, 2048(%rip)  # 25ad <entrypoint+0x200d>
    1dad: 00 00                        	addb	%al, (%rax)
    1daf: 00 bf a5 00 00 00            	addb	%bh, 165(%rdi)
    1db5: 00 00                        	addb	%al, (%rax)
    1db7: 00 07                        	addb	%al, (%rdi)
    1db9: 05 00 00 50 ff               	addl	$4283432960, %eax
    1dbe: ff ff                        	<unknown>
    1dc0: 0f 35                        	sysexitl
    1dc2: 00 00                        	addb	%al, (%rax)
    1dc4: 00 00                        	addb	%al, (%rax)
    1dc6: 00 00                        	addb	%al, (%rax)
    1dc8: 71 20                        	jno	0x1dea <entrypoint+0x184a>
    1dca: 00 00                        	addb	%al, (%rax)
    1dcc: 00 00                        	addb	%al, (%rax)
    1dce: 00 00                        	addb	%al, (%rax)
    1dd0: 73 05                        	jae	0x1dd7 <entrypoint+0x1837>
    1dd2: 00 00                        	addb	%al, (%rax)
    1dd4: 00 00                        	addb	%al, (%rax)
    1dd6: 00 00                        	addb	%al, (%rax)
    1dd8: 07                           	<unknown>
    1dd9: 03 00                        	addl	(%rax), %eax
    1ddb: 00 01                        	addb	%al, (%rcx)
    1ddd: 00 00                        	addb	%al, (%rax)
    1ddf: 00 07                        	addb	%al, (%rdi)
    1de1: 02 00                        	addb	(%rax), %al
    1de3: 00 01                        	addb	%al, (%rcx)
    1de5: 00 00                        	addb	%al, (%rax)
    1de7: 00 1d 21 11 00 00            	addb	%bl, 4385(%rip)  # 2f0e <entrypoint+0x296e>
    1ded: 00 00                        	addb	%al, (%rax)
    1def: 00 2d 34 f7 ff 00            	addb	%ch, 16774964(%rip)  # 1001529
    1df5: 00 00                        	addb	%al, (%rax)
    1df7: 00 bf 61 00 00 00            	addb	%bh, 97(%rdi)
    1dfd: 00 00                        	addb	%al, (%rax)
    1dff: 00 85 10 00 00 ff            	addb	%al, -16777200(%rbp)
    1e05: 00 00                        	addb	%al, (%rax)
    1e07: 00 bf 07 00 00 00            	addb	%bh, 7(%rdi)
    1e0d: 00 00                        	addb	%al, (%rax)
    1e0f: 00 bf 61 00 00 00            	addb	%bh, 97(%rdi)
    1e15: 00 00                        	addb	%al, (%rax)
    1e17: 00 85 10 00 00 fe            	addb	%al, -33554416(%rbp)
    1e1d: 00 00                        	addb	%al, (%rax)
    1e1f: 00 67 07                     	addb	%ah, 7(%rdi)
    1e22: 00 00                        	addb	%al, (%rax)
    1e24: 20 00                        	andb	%al, (%rax)
    1e26: 00 00                        	addb	%al, (%rax)
    1e28: 77 07                        	ja	0x1e31 <entrypoint+0x1891>
    1e2a: 00 00                        	addb	%al, (%rax)
    1e2c: 20 00                        	andb	%al, (%rax)
    1e2e: 00 00                        	addb	%al, (%rax)
    1e30: 67 00 00                     	addb	%al, (%eax)
    1e33: 00 20                        	addb	%ah, (%rax)
    1e35: 00 00                        	addb	%al, (%rax)
    1e37: 00 77 00                     	addb	%dh, (%rdi)
    1e3a: 00 00                        	addb	%al, (%rax)
    1e3c: 20 00                        	andb	%al, (%rax)
    1e3e: 00 00                        	addb	%al, (%rax)
    1e40: bf a1 00 00 00               	movl	$161, %edi
    1e45: 00 00                        	addb	%al, (%rax)
    1e47: 00 07                        	addb	%al, (%rdi)
    1e49: 01 00                        	addl	%eax, (%rax)
    1e4b: 00 50 ff                     	addb	%dl, -1(%rax)
    1e4e: ff ff                        	<unknown>
    1e50: b7 02                        	movb	$2, %bh
    1e52: 00 00                        	addb	%al, (%rax)
    1e54: 80 00 00                     	addb	$0, (%rax)
    1e57: 00 bf 73 00 00 00            	addb	%bh, 115(%rdi)
    1e5d: 00 00                        	addb	%al, (%rax)
    1e5f: 00 bf 04 00 00 00            	addb	%bh, 4(%rdi)
    1e65: 00 00                        	addb	%al, (%rax)
    1e67: 00 85 10 00 00 ff            	addb	%al, -16777200(%rbp)
    1e6d: ff ff                        	<unknown>
    1e6f: ff 85 10 00 00 ff            	incl	-16777200(%rbp)
    1e75: ff ff                        	<unknown>
    1e77: ff 85 10 00 00 19            	incl	419430416(%rbp)
    1e7d: 00 00                        	addb	%al, (%rax)
    1e7f: 00 05 00 ee ff 00            	addb	%al, 16772608(%rip)  # 1000c85
    1e85: 00 00                        	addb	%al, (%rax)
    1e87: 00 b7 01 00 00 00            	addb	%dh, 1(%rdi)
    1e8d: 00 00                        	addb	%al, (%rax)
    1e8f: 00 b7 02 00 00 00            	addb	%dh, 2(%rdi)
    1e95: 00 00                        	addb	%al, (%rax)
    1e97: 00 b7 03 00 00 00            	addb	%dh, 3(%rdi)
    1e9d: 00 00                        	addb	%al, (%rax)
    1e9f: 00 b7 04 00 00 00            	addb	%dh, 4(%rdi)
    1ea5: 00 00                        	addb	%al, (%rax)
    1ea7: 00 85 10 00 00 ff            	addb	%al, -16777200(%rbp)
    1ead: ff ff                        	<unknown>
    1eaf: ff 85 10 00 00 ff            	incl	-16777200(%rbp)
    1eb5: ff ff                        	<unknown>
    1eb7: ff b7 04 00 00 00            	pushq	4(%rdi)
    1ebd: 00 00                        	addb	%al, (%rax)
    1ebf: 00 7b 41                     	addb	%bh, 65(%rbx)
    1ec2: 10 00                        	adcb	%al, (%rax)
    1ec4: 00 00                        	addb	%al, (%rax)
    1ec6: 00 00                        	addb	%al, (%rax)
    1ec8: 7b 31                        	jnp	0x1efb <entrypoint+0x195b>
    1eca: 08 00                        	orb	%al, (%rax)
    1ecc: 00 00                        	addb	%al, (%rax)
    1ece: 00 00                        	addb	%al, (%rax)
    1ed0: 7b 21                        	jnp	0x1ef3 <entrypoint+0x1953>
    1ed2: 00 00                        	addb	%al, (%rax)
    1ed4: 00 00                        	addb	%al, (%rax)
    1ed6: 00 00                        	addb	%al, (%rax)
    1ed8: 95                           	xchgl	%ebp, %eax
    1ed9: 00 00                        	addb	%al, (%rax)
    1edb: 00 00                        	addb	%al, (%rax)
    1edd: 00 00                        	addb	%al, (%rax)
    1edf: 00 79 23                     	addb	%bh, 35(%rcx)
    1ee2: 10 00                        	adcb	%al, (%rax)
    1ee4: 00 00                        	addb	%al, (%rax)
    1ee6: 00 00                        	addb	%al, (%rax)
    1ee8: 7b 31                        	jnp	0x1f1b <entrypoint+0x197b>
    1eea: 10 00                        	adcb	%al, (%rax)
    1eec: 00 00                        	addb	%al, (%rax)
    1eee: 00 00                        	addb	%al, (%rax)
    1ef0: 79 23                        	jns	0x1f15 <entrypoint+0x1975>
    1ef2: 08 00                        	orb	%al, (%rax)
    1ef4: 00 00                        	addb	%al, (%rax)
    1ef6: 00 00                        	addb	%al, (%rax)
    1ef8: 7b 31                        	jnp	0x1f2b <entrypoint+0x198b>
    1efa: 08 00                        	orb	%al, (%rax)
    1efc: 00 00                        	addb	%al, (%rax)
    1efe: 00 00                        	addb	%al, (%rax)
    1f00: 79 22                        	jns	0x1f24 <entrypoint+0x1984>
    1f02: 00 00                        	addb	%al, (%rax)
    1f04: 00 00                        	addb	%al, (%rax)
    1f06: 00 00                        	addb	%al, (%rax)
    1f08: 7b 21                        	jnp	0x1f2b <entrypoint+0x198b>
    1f0a: 00 00                        	addb	%al, (%rax)
    1f0c: 00 00                        	addb	%al, (%rax)
    1f0e: 00 00                        	addb	%al, (%rax)
    1f10: 95                           	xchgl	%ebp, %eax
    1f11: 00 00                        	addb	%al, (%rax)
    1f13: 00 00                        	addb	%al, (%rax)
    1f15: 00 00                        	addb	%al, (%rax)
    1f17: 00 18                        	addb	%bl, (%rax)
    1f19: 01 00                        	addl	%eax, (%rax)
    1f1b: 00 f6                        	addb	%dh, %dh
    1f1d: 88 00                        	movb	%al, (%rax)
		...
    1f27: 00 b7 02 00 00 2e            	addb	%dh, 771751938(%rdi)
    1f2d: 00 00                        	addb	%al, (%rax)
    1f2f: 00 85 10 00 00 9d            	addb	%al, -1660944368(%rbp)
    1f35: ff ff                        	<unknown>
    1f37: ff 85 10 00 00 e9            	incl	-385875952(%rbp)
    1f3d: ff ff                        	<unknown>
    1f3f: ff 85 10 00 00 ff            	incl	-16777200(%rbp)
    1f45: ff ff                        	<unknown>
    1f47: ff 95 00 00 00 00            	callq	*(%rbp)
    1f4d: 00 00                        	addb	%al, (%rax)
    1f4f: 00 85 10 00 00 9b            	addb	%al, -1694498800(%rbp)
    1f55: ff ff                        	<unknown>
    1f57: ff 85 10 00 00 ff            	incl	-16777200(%rbp)
    1f5d: ff ff                        	<unknown>
    1f5f: ff 18                        	lcalll	*(%rax)
    1f61: 01 00                        	addl	%eax, (%rax)
    1f63: 00 90 9b 00 00 00            	addb	%dl, 155(%rax)
    1f69: 00 00                        	addb	%al, (%rax)
    1f6b: 00 00                        	addb	%al, (%rax)
    1f6d: 00 00                        	addb	%al, (%rax)
    1f6f: 00 85 10 00 00 ed            	addb	%al, -318767088(%rbp)
    1f75: 0b 00                        	orl	(%rax), %eax
    1f77: 00 85 10 00 00 ff            	addb	%al, -16777200(%rbp)
    1f7d: ff ff                        	<unknown>
    1f7f: ff 85 10 00 00 f2            	incl	-234881008(%rbp)
    1f85: ff ff                        	<unknown>
    1f87: ff 85 10 00 00 ff            	incl	-16777200(%rbp)
    1f8d: ff ff                        	<unknown>
    1f8f: ff bf 26 00 00 00            	<unknown>
    1f95: 00 00                        	addb	%al, (%rax)
    1f97: 00 bf 17 00 00 00            	addb	%bh, 23(%rdi)
    1f9d: 00 00                        	addb	%al, (%rax)
    1f9f: 00 bf a1 00 00 00            	addb	%bh, 161(%rdi)
    1fa5: 00 00                        	addb	%al, (%rax)
    1fa7: 00 07                        	addb	%al, (%rdi)
    1fa9: 01 00                        	addl	%eax, (%rax)
    1fab: 00 70 ff                     	addb	%dh, -1(%rax)
    1fae: ff ff                        	<unknown>
    1fb0: bf a2 00 00 00               	movl	$162, %edi
    1fb5: 00 00                        	addb	%al, (%rax)
    1fb7: 00 07                        	addb	%al, (%rdi)
    1fb9: 02 00                        	addb	(%rax), %al
    1fbb: 00 80 ff ff ff bf            	addb	%al, -1073741825(%rax)
    1fc1: a3 00 00 00 00 00 00 07 03   	movabsl	%eax, 218143106950758400
    1fca: 00 00                        	addb	%al, (%rax)
    1fcc: 00 00                        	addb	%al, (%rax)
    1fce: 00 00                        	addb	%al, (%rax)
    1fd0: 85 10                        	testl	%edx, (%rax)
    1fd2: 00 00                        	addb	%al, (%rax)
    1fd4: 84 05 00 00 79 a3            	testb	%al, -1552351232(%rip)  # ffffffffa3791fda
    1fda: 78 ff                        	js	0x1fdb <entrypoint+0x1a3b>
    1fdc: 00 00                        	addb	%al, (%rax)
    1fde: 00 00                        	addb	%al, (%rax)
    1fe0: 79 a2                        	jns	0x1f84 <entrypoint+0x19e4>
    1fe2: 70 ff                        	jo	0x1fe3 <entrypoint+0x1a43>
    1fe4: 00 00                        	addb	%al, (%rax)
    1fe6: 00 00                        	addb	%al, (%rax)
    1fe8: bf a1 00 00 00               	movl	$161, %edi
    1fed: 00 00                        	addb	%al, (%rax)
    1fef: 00 07                        	addb	%al, (%rdi)
    1ff1: 01 00                        	addl	%eax, (%rax)
    1ff3: 00 60 ff                     	addb	%ah, -1(%rax)
    1ff6: ff ff                        	<unknown>
    1ff8: 85 10                        	testl	%edx, (%rax)
    1ffa: 00 00                        	addb	%al, (%rax)
    1ffc: 7f 05                        	jg	0x2003 <entrypoint+0x1a63>
    1ffe: 00 00                        	addb	%al, (%rax)
    2000: b7 01                        	movb	$1, %bh
    2002: 00 00                        	addb	%al, (%rax)
    2004: 00 00                        	addb	%al, (%rax)
    2006: 00 00                        	addb	%al, (%rax)
    2008: 79 a2                        	jns	0x1fac <entrypoint+0x1a0c>
    200a: 68 ff 00 00 00               	pushq	$255
    200f: 00 79 a3                     	addb	%bh, -93(%rcx)
    2012: 60                           	<unknown>
    2013: ff 00                        	incl	(%rax)
    2015: 00 00                        	addb	%al, (%rax)
    2017: 00 1f                        	addb	%bl, (%rdi)
    2019: 23 00                        	andl	(%rax), %eax
    201b: 00 00                        	addb	%al, (%rax)
    201d: 00 00                        	addb	%al, (%rax)
    201f: 00 b7 04 00 00 0a            	addb	%dh, 167772164(%rdi)
    2025: 00 00                        	addb	%al, (%rax)
    2027: 00 05 00 0c 00 00            	addb	%al, 3072(%rip)  # 2c2d <entrypoint+0x268d>
    202d: 00 00                        	addb	%al, (%rax)
    202f: 00 bf 25 00 00 00            	addb	%bh, 37(%rdi)
    2035: 00 00                        	addb	%al, (%rax)
    2037: 00 0f                        	addb	%cl, (%rdi)
    2039: 15 00 00 00 00               	adcl	$0, %eax
    203e: 00 00                        	addb	%al, (%rax)
    2040: 73 05                        	jae	0x2047 <entrypoint+0x1aa7>
    2042: ff ff                        	<unknown>
    2044: 00 00                        	addb	%al, (%rax)
    2046: 00 00                        	addb	%al, (%rax)
    2048: 07                           	<unknown>
    2049: 01 00                        	addl	%eax, (%rax)
    204b: 00 ff                        	addb	%bh, %bh
    204d: ff ff                        	<unknown>
    204f: ff 77 07                     	pushq	7(%rdi)
    2052: 00 00                        	addb	%al, (%rax)
    2054: 04 00                        	addb	$0, %al
    2056: 00 00                        	addb	%al, (%rax)
    2058: 55                           	pushq	%rbp
    2059: 07                           	<unknown>
    205a: 06                           	<unknown>
    205b: 00 00                        	addb	%al, (%rax)
    205d: 00 00                        	addb	%al, (%rax)
    205f: 00 07                        	addb	%al, (%rdi)
    2061: 01 00                        	addl	%eax, (%rax)
    2063: 00 80 00 00 00 b7            	addb	%al, -1224736768(%rax)
    2069: 02 00                        	addb	(%rax), %al
    206b: 00 81 00 00 00 2d            	addb	%al, 754974720(%rcx)
    2071: 12 0c 00                     	adcb	(%rax,%rax), %cl
    2074: 00 00                        	addb	%al, (%rax)
    2076: 00 00                        	addb	%al, (%rax)
    2078: b7 02                        	movb	$2, %bh
    207a: 00 00                        	addb	%al, (%rax)
    207c: 80 00 00                     	addb	$0, (%rax)
    207f: 00 85 10 00 00 bd            	addb	%al, -1124073456(%rbp)
    2085: 03 00                        	addl	(%rax), %eax
    2087: 00 85 10 00 00 ff            	addb	%al, -16777200(%rbp)
    208d: ff ff                        	<unknown>
    208f: ff 1d 13 f9 ff 00            	lcalll	*16775443(%rip)  # 10019a8
    2095: 00 00                        	addb	%al, (%rax)
    2097: 00 bf 75 00 00 00            	addb	%bh, 117(%rdi)
    209d: 00 00                        	addb	%al, (%rax)
    209f: 00 57 05                     	addb	%dl, 5(%rdi)
    20a2: 00 00                        	addb	%al, (%rax)
    20a4: 0f 00 00                     	sldtw	(%rax)
    20a7: 00 bf 50 00 00 00            	addb	%bh, 80(%rdi)
    20ad: 00 00                        	addb	%al, (%rax)
    20af: 00 47 00                     	addb	%al, (%rdi)
    20b2: 00 00                        	addb	%al, (%rax)
    20b4: 30 00                        	xorb	%al, (%rax)
    20b6: 00 00                        	addb	%al, (%rax)
    20b8: 2d 54 ee ff 00               	subl	$16772692, %eax
    20bd: 00 00                        	addb	%al, (%rax)
    20bf: 00 07                        	addb	%al, (%rdi)
    20c1: 05 00 00 57 00               	addl	$5701632, %eax
    20c6: 00 00                        	addb	%al, (%rax)
    20c8: bf 50 00 00 00               	movl	$80, %edi
    20cd: 00 00                        	addb	%al, (%rax)
    20cf: 00 05 00 eb ff 00            	addb	%al, 16771840(%rip)  # 1000bd5
    20d5: 00 00                        	addb	%al, (%rax)
    20d7: 00 bf a2 00 00 00            	addb	%bh, 162(%rdi)
    20dd: 00 00                        	addb	%al, (%rax)
    20df: 00 07                        	addb	%al, (%rdi)
    20e1: 02 00                        	addb	(%rax), %al
    20e3: 00 80 ff ff ff 0f            	addb	%al, 268435455(%rax)
    20e9: 12 00                        	adcb	(%rax), %al
    20eb: 00 00                        	addb	%al, (%rax)
    20ed: 00 00                        	addb	%al, (%rax)
    20ef: 00 7b 2a                     	addb	%bh, 42(%rbx)
    20f2: 00 f0                        	addb	%dh, %al
    20f4: 00 00                        	addb	%al, (%rax)
    20f6: 00 00                        	addb	%al, (%rax)
    20f8: b7 02                        	movb	$2, %bh
    20fa: 00 00                        	addb	%al, (%rax)
    20fc: 80 00 00                     	addb	$0, (%rax)
    20ff: 00 1f                        	addb	%bl, (%rdi)
    2101: 12 00                        	adcb	(%rax), %al
    2103: 00 00                        	addb	%al, (%rax)
    2105: 00 00                        	addb	%al, (%rax)
    2107: 00 7b 2a                     	addb	%bh, 42(%rbx)
    210a: 08 f0                        	orb	%dh, %al
    210c: 00 00                        	addb	%al, (%rax)
    210e: 00 00                        	addb	%al, (%rax)
    2110: bf a5 00 00 00               	movl	$165, %edi
    2115: 00 00                        	addb	%al, (%rax)
    2117: 00 bf 61 00 00 00            	addb	%bh, 97(%rdi)
    211d: 00 00                        	addb	%al, (%rax)
    211f: 00 b7 02 00 00 01            	addb	%dh, 16777218(%rdi)
    2125: 00 00                        	addb	%al, (%rax)
    2127: 00 18                        	addb	%bl, (%rax)
    2129: 03 00                        	addl	(%rax), %eax
    212b: 00 7a 89                     	addb	%bh, -119(%rdx)
		...
    2136: 00 00                        	addb	%al, (%rax)
    2138: b7 04                        	movb	$4, %bh
    213a: 00 00                        	addb	%al, (%rax)
    213c: 02 00                        	addb	(%rax), %al
    213e: 00 00                        	addb	%al, (%rax)
    2140: 85 10                        	testl	%edx, (%rax)
    2142: 00 00                        	addb	%al, (%rax)
    2144: e6 08                        	outb	%al, $8
    2146: 00 00                        	addb	%al, (%rax)
    2148: 95                           	xchgl	%ebp, %eax
    2149: 00 00                        	addb	%al, (%rax)
    214b: 00 00                        	addb	%al, (%rax)
    214d: 00 00                        	addb	%al, (%rax)
    214f: 00 bf 26 00 00 00            	addb	%bh, 38(%rdi)
    2155: 00 00                        	addb	%al, (%rax)
    2157: 00 bf 17 00 00 00            	addb	%bh, 23(%rdi)
    215d: 00 00                        	addb	%al, (%rax)
    215f: 00 bf a1 00 00 00            	addb	%bh, 161(%rdi)
    2165: 00 00                        	addb	%al, (%rax)
    2167: 00 07                        	addb	%al, (%rdi)
    2169: 01 00                        	addl	%eax, (%rax)
    216b: 00 70 ff                     	addb	%dh, -1(%rax)
    216e: ff ff                        	<unknown>
    2170: bf a2 00 00 00               	movl	$162, %edi
    2175: 00 00                        	addb	%al, (%rax)
    2177: 00 07                        	addb	%al, (%rdi)
    2179: 02 00                        	addb	(%rax), %al
    217b: 00 80 ff ff ff bf            	addb	%al, -1073741825(%rax)
    2181: a3 00 00 00 00 00 00 07 03   	movabsl	%eax, 218143106950758400
    218a: 00 00                        	addb	%al, (%rax)
    218c: 00 00                        	addb	%al, (%rax)
    218e: 00 00                        	addb	%al, (%rax)
    2190: 85 10                        	testl	%edx, (%rax)
    2192: 00 00                        	addb	%al, (%rax)
    2194: 4c 05 00 00 79 a3            	addq	$-1552351232, %rax
    219a: 78 ff                        	js	0x219b <entrypoint+0x1bfb>
    219c: 00 00                        	addb	%al, (%rax)
    219e: 00 00                        	addb	%al, (%rax)
    21a0: 79 a2                        	jns	0x2144 <entrypoint+0x1ba4>
    21a2: 70 ff                        	jo	0x21a3 <entrypoint+0x1c03>
    21a4: 00 00                        	addb	%al, (%rax)
    21a6: 00 00                        	addb	%al, (%rax)
    21a8: bf a1 00 00 00               	movl	$161, %edi
    21ad: 00 00                        	addb	%al, (%rax)
    21af: 00 07                        	addb	%al, (%rdi)
    21b1: 01 00                        	addl	%eax, (%rax)
    21b3: 00 60 ff                     	addb	%ah, -1(%rax)
    21b6: ff ff                        	<unknown>
    21b8: 85 10                        	testl	%edx, (%rax)
    21ba: 00 00                        	addb	%al, (%rax)
    21bc: 47 05 00 00 b7 01            	addl	$28770304, %eax
    21c2: 00 00                        	addb	%al, (%rax)
    21c4: 00 00                        	addb	%al, (%rax)
    21c6: 00 00                        	addb	%al, (%rax)
    21c8: 79 a2                        	jns	0x216c <entrypoint+0x1bcc>
    21ca: 68 ff 00 00 00               	pushq	$255
    21cf: 00 79 a3                     	addb	%bh, -93(%rcx)
    21d2: 60                           	<unknown>
    21d3: ff 00                        	incl	(%rax)
    21d5: 00 00                        	addb	%al, (%rax)
    21d7: 00 1f                        	addb	%bl, (%rdi)
    21d9: 23 00                        	andl	(%rax), %eax
    21db: 00 00                        	addb	%al, (%rax)
    21dd: 00 00                        	addb	%al, (%rax)
    21df: 00 b7 04 00 00 0a            	addb	%dh, 167772164(%rdi)
    21e5: 00 00                        	addb	%al, (%rax)
    21e7: 00 05 00 0c 00 00            	addb	%al, 3072(%rip)  # 2ded <entrypoint+0x284d>
    21ed: 00 00                        	addb	%al, (%rax)
    21ef: 00 bf 25 00 00 00            	addb	%bh, 37(%rdi)
    21f5: 00 00                        	addb	%al, (%rax)
    21f7: 00 0f                        	addb	%cl, (%rdi)
    21f9: 15 00 00 00 00               	adcl	$0, %eax
    21fe: 00 00                        	addb	%al, (%rax)
    2200: 73 05                        	jae	0x2207 <entrypoint+0x1c67>
    2202: ff ff                        	<unknown>
    2204: 00 00                        	addb	%al, (%rax)
    2206: 00 00                        	addb	%al, (%rax)
    2208: 07                           	<unknown>
    2209: 01 00                        	addl	%eax, (%rax)
    220b: 00 ff                        	addb	%bh, %bh
    220d: ff ff                        	<unknown>
    220f: ff 77 07                     	pushq	7(%rdi)
    2212: 00 00                        	addb	%al, (%rax)
    2214: 04 00                        	addb	$0, %al
    2216: 00 00                        	addb	%al, (%rax)
    2218: 55                           	pushq	%rbp
    2219: 07                           	<unknown>
    221a: 06                           	<unknown>
    221b: 00 00                        	addb	%al, (%rax)
    221d: 00 00                        	addb	%al, (%rax)
    221f: 00 07                        	addb	%al, (%rdi)
    2221: 01 00                        	addl	%eax, (%rax)
    2223: 00 80 00 00 00 b7            	addb	%al, -1224736768(%rax)
    2229: 02 00                        	addb	(%rax), %al
    222b: 00 81 00 00 00 2d            	addb	%al, 754974720(%rcx)
    2231: 12 0c 00                     	adcb	(%rax,%rax), %cl
    2234: 00 00                        	addb	%al, (%rax)
    2236: 00 00                        	addb	%al, (%rax)
    2238: b7 02                        	movb	$2, %bh
    223a: 00 00                        	addb	%al, (%rax)
    223c: 80 00 00                     	addb	$0, (%rax)
    223f: 00 85 10 00 00 85            	addb	%al, -2063597552(%rbp)
    2245: 03 00                        	addl	(%rax), %eax
    2247: 00 85 10 00 00 ff            	addb	%al, -16777200(%rbp)
    224d: ff ff                        	<unknown>
    224f: ff 1d 13 f9 ff 00            	lcalll	*16775443(%rip)  # 1001b68
    2255: 00 00                        	addb	%al, (%rax)
    2257: 00 bf 75 00 00 00            	addb	%bh, 117(%rdi)
    225d: 00 00                        	addb	%al, (%rax)
    225f: 00 57 05                     	addb	%dl, 5(%rdi)
    2262: 00 00                        	addb	%al, (%rax)
    2264: 0f 00 00                     	sldtw	(%rax)
    2267: 00 bf 50 00 00 00            	addb	%bh, 80(%rdi)
    226d: 00 00                        	addb	%al, (%rax)
    226f: 00 47 00                     	addb	%al, (%rdi)
    2272: 00 00                        	addb	%al, (%rax)
    2274: 30 00                        	xorb	%al, (%rax)
    2276: 00 00                        	addb	%al, (%rax)
    2278: 2d 54 ee ff 00               	subl	$16772692, %eax
    227d: 00 00                        	addb	%al, (%rax)
    227f: 00 07                        	addb	%al, (%rdi)
    2281: 05 00 00 37 00               	addl	$3604480, %eax
    2286: 00 00                        	addb	%al, (%rax)
    2288: bf 50 00 00 00               	movl	$80, %edi
    228d: 00 00                        	addb	%al, (%rax)
    228f: 00 05 00 eb ff 00            	addb	%al, 16771840(%rip)  # 1000d95
    2295: 00 00                        	addb	%al, (%rax)
    2297: 00 bf a2 00 00 00            	addb	%bh, 162(%rdi)
    229d: 00 00                        	addb	%al, (%rax)
    229f: 00 07                        	addb	%al, (%rdi)
    22a1: 02 00                        	addb	(%rax), %al
    22a3: 00 80 ff ff ff 0f            	addb	%al, 268435455(%rax)
    22a9: 12 00                        	adcb	(%rax), %al
    22ab: 00 00                        	addb	%al, (%rax)
    22ad: 00 00                        	addb	%al, (%rax)
    22af: 00 7b 2a                     	addb	%bh, 42(%rbx)
    22b2: 00 f0                        	addb	%dh, %al
    22b4: 00 00                        	addb	%al, (%rax)
    22b6: 00 00                        	addb	%al, (%rax)
    22b8: b7 02                        	movb	$2, %bh
    22ba: 00 00                        	addb	%al, (%rax)
    22bc: 80 00 00                     	addb	$0, (%rax)
    22bf: 00 1f                        	addb	%bl, (%rdi)
    22c1: 12 00                        	adcb	(%rax), %al
    22c3: 00 00                        	addb	%al, (%rax)
    22c5: 00 00                        	addb	%al, (%rax)
    22c7: 00 7b 2a                     	addb	%bh, 42(%rbx)
    22ca: 08 f0                        	orb	%dh, %al
    22cc: 00 00                        	addb	%al, (%rax)
    22ce: 00 00                        	addb	%al, (%rax)
    22d0: bf a5 00 00 00               	movl	$165, %edi
    22d5: 00 00                        	addb	%al, (%rax)
    22d7: 00 bf 61 00 00 00            	addb	%bh, 97(%rdi)
    22dd: 00 00                        	addb	%al, (%rax)
    22df: 00 b7 02 00 00 01            	addb	%dh, 16777218(%rdi)
    22e5: 00 00                        	addb	%al, (%rax)
    22e7: 00 18                        	addb	%bl, (%rax)
    22e9: 03 00                        	addl	(%rax), %eax
    22eb: 00 7a 89                     	addb	%bh, -119(%rdx)
		...
    22f6: 00 00                        	addb	%al, (%rax)
    22f8: b7 04                        	movb	$4, %bh
    22fa: 00 00                        	addb	%al, (%rax)
    22fc: 02 00                        	addb	(%rax), %al
    22fe: 00 00                        	addb	%al, (%rax)
    2300: 85 10                        	testl	%edx, (%rax)
    2302: 00 00                        	addb	%al, (%rax)
    2304: ae                           	scasb	%es:(%rdi), %al
    2305: 08 00                        	orb	%al, (%rax)
    2307: 00 95 00 00 00 00            	addb	%dl, (%rbp)
    230d: 00 00                        	addb	%al, (%rax)
    230f: 00 79 10                     	addb	%bh, 16(%rcx)
    2312: 00 00                        	addb	%al, (%rax)
    2314: 00 00                        	addb	%al, (%rax)
    2316: 00 00                        	addb	%al, (%rax)
    2318: 95                           	xchgl	%ebp, %eax
    2319: 00 00                        	addb	%al, (%rax)
    231b: 00 00                        	addb	%al, (%rax)
    231d: 00 00                        	addb	%al, (%rax)
    231f: 00 79 11                     	addb	%bh, 17(%rcx)
    2322: 00 00                        	addb	%al, (%rax)
    2324: 00 00                        	addb	%al, (%rax)
    2326: 00 00                        	addb	%al, (%rax)
    2328: 85 10                        	testl	%edx, (%rax)
    232a: 00 00                        	addb	%al, (%rax)
    232c: 8c ff                        	<unknown>
    232e: ff ff                        	<unknown>
    2330: 95                           	xchgl	%ebp, %eax
    2331: 00 00                        	addb	%al, (%rax)
    2333: 00 00                        	addb	%al, (%rax)
    2335: 00 00                        	addb	%al, (%rax)
    2337: 00 79 11                     	addb	%bh, 17(%rcx)
    233a: 00 00                        	addb	%al, (%rax)
    233c: 00 00                        	addb	%al, (%rax)
    233e: 00 00                        	addb	%al, (%rax)
    2340: 85 10                        	testl	%edx, (%rax)
    2342: 00 00                        	addb	%al, (%rax)
    2344: c1 ff ff                     	sarl	$255, %edi
    2347: ff 95 00 00 00 00            	callq	*(%rbp)
    234d: 00 00                        	addb	%al, (%rax)
    234f: 00 bf 26 00 00 00            	addb	%bh, 38(%rdi)
    2355: 00 00                        	addb	%al, (%rax)
    2357: 00 bf 17 00 00 00            	addb	%bh, 23(%rdi)
    235d: 00 00                        	addb	%al, (%rax)
    235f: 00 bf 61 00 00 00            	addb	%bh, 97(%rdi)
    2365: 00 00                        	addb	%al, (%rax)
    2367: 00 85 10 00 00 c4            	addb	%al, -1006632944(%rbp)
    236d: 0a 00                        	orb	(%rax), %al
    236f: 00 55 00                     	addb	%dl, (%rbp)
    2372: 09 00                        	orl	%eax, (%rax)
    2374: 00 00                        	addb	%al, (%rax)
    2376: 00 00                        	addb	%al, (%rax)
    2378: bf 61 00 00 00               	movl	$97, %edi
    237d: 00 00                        	addb	%al, (%rax)
    237f: 00 85 10 00 00 c5            	addb	%al, -989855728(%rbp)
    2385: 0a 00                        	orb	(%rax), %al
    2387: 00 55 00                     	addb	%dl, (%rbp)
    238a: 01 00                        	addl	%eax, (%rax)
    238c: 00 00                        	addb	%al, (%rax)
    238e: 00 00                        	addb	%al, (%rax)
    2390: 05 00 0a 00 00               	addl	$2560, %eax
    2395: 00 00                        	addb	%al, (%rax)
    2397: 00 bf 71 00 00 00            	addb	%bh, 113(%rdi)
    239d: 00 00                        	addb	%al, (%rax)
    239f: 00 bf 62 00 00 00            	addb	%bh, 98(%rdi)
    23a5: 00 00                        	addb	%al, (%rax)
    23a7: 00 85 10 00 00 f1            	addb	%al, -251658224(%rbp)
    23ad: ff ff                        	<unknown>
    23af: ff 55 00                     	callq	*(%rbp)
    23b2: 0a 00                        	orb	(%rax), %al
    23b4: 00 00                        	addb	%al, (%rax)
    23b6: 00 00                        	addb	%al, (%rax)
    23b8: 05 00 0c 00 00               	addl	$3072, %eax
    23bd: 00 00                        	addb	%al, (%rax)
    23bf: 00 bf 71 00 00 00            	addb	%bh, 113(%rdi)
    23c5: 00 00                        	addb	%al, (%rax)
    23c7: 00 bf 62 00 00 00            	addb	%bh, 98(%rdi)
    23cd: 00 00                        	addb	%al, (%rax)
    23cf: 00 85 10 00 00 e9            	addb	%al, -385875952(%rbp)
    23d5: ff ff                        	<unknown>
    23d7: ff 55 00                     	callq	*(%rbp)
    23da: 05 00 00 00 00               	addl	$0, %eax
    23df: 00 05 00 07 00 00            	addb	%al, 1792(%rip)  # 2ae5 <entrypoint+0x2545>
    23e5: 00 00                        	addb	%al, (%rax)
    23e7: 00 bf 71 00 00 00            	addb	%bh, 113(%rdi)
    23ed: 00 00                        	addb	%al, (%rax)
    23ef: 00 bf 62 00 00 00            	addb	%bh, 98(%rdi)
    23f5: 00 00                        	addb	%al, (%rax)
    23f7: 00 85 10 00 00 19            	addb	%al, 419430416(%rbp)
    23fd: 0c 00                        	orb	$0, %al
    23ff: 00 15 00 03 00 00            	addb	%dl, 768(%rip)  # 2705 <entrypoint+0x2165>
    2405: 00 00                        	addb	%al, (%rax)
    2407: 00 85 10 00 00 f6            	addb	%al, -167772144(%rbp)
    240d: 06                           	<unknown>
    240e: 00 00                        	addb	%al, (%rax)
    2410: b7 08                        	movb	$8, %bh
    2412: 00 00                        	addb	%al, (%rax)
    2414: 01 00                        	addl	%eax, (%rax)
    2416: 00 00                        	addb	%al, (%rax)
    2418: 05 00 2b 00 00               	addl	$11008, %eax
    241d: 00 00                        	addb	%al, (%rax)
    241f: 00 b7 01 00 00 08            	addb	%dh, 134217729(%rdi)
    2425: 00 00                        	addb	%al, (%rax)
    2427: 00 7b 1a                     	addb	%bh, 26(%rbx)
    242a: f0                           	lock
    242b: ff 00                        	incl	(%rax)
    242d: 00 00                        	addb	%al, (%rax)
    242f: 00 b7 01 00 00 00            	addb	%dh, 1(%rdi)
    2435: 00 00                        	addb	%al, (%rax)
    2437: 00 7b 1a                     	addb	%bh, 26(%rbx)
    243a: f8                           	clc
    243b: ff 00                        	incl	(%rax)
    243d: 00 00                        	addb	%al, (%rax)
    243f: 00 7b 1a                     	addb	%bh, 26(%rbx)
    2442: e0 ff                        	loopne	0x2443 <entrypoint+0x1ea3>
    2444: 00 00                        	addb	%al, (%rax)
    2446: 00 00                        	addb	%al, (%rax)
    2448: b7 08                        	movb	$8, %bh
    244a: 00 00                        	addb	%al, (%rax)
    244c: 01 00                        	addl	%eax, (%rax)
    244e: 00 00                        	addb	%al, (%rax)
    2450: 7b 8a                        	jnp	0x23dc <entrypoint+0x1e3c>
    2452: d8 ff                        	fdivr	%st(7), %st
    2454: 00 00                        	addb	%al, (%rax)
    2456: 00 00                        	addb	%al, (%rax)
    2458: 18 01                        	sbbb	%al, (%rcx)
    245a: 00 00                        	addb	%al, (%rax)
    245c: c0 9b 00 00 00 00 00         	rcrb	$0, (%rbx)
    2463: 00 00                        	addb	%al, (%rax)
    2465: 00 00                        	addb	%al, (%rax)
    2467: 00 7b 1a                     	addb	%bh, 26(%rbx)
    246a: d0 ff                        	sarb	%bh
    246c: 00 00                        	addb	%al, (%rax)
    246e: 00 00                        	addb	%al, (%rax)
    2470: bf a2 00 00 00               	movl	$162, %edi
    2475: 00 00                        	addb	%al, (%rax)
    2477: 00 07                        	addb	%al, (%rdi)
    2479: 02 00                        	addb	(%rax), %al
    247b: 00 d0                        	addb	%dl, %al
    247d: ff ff                        	<unknown>
    247f: ff bf 61 00 00 00            	<unknown>
    2485: 00 00                        	addb	%al, (%rax)
    2487: 00 85 10 00 00 89            	addb	%al, -1996488688(%rbp)
    248d: 0a 00                        	orb	(%rax), %al
    248f: 00 15 00 02 00 00            	addb	%dl, 512(%rip)  # 2695 <entrypoint+0x20f5>
    2495: 00 00                        	addb	%al, (%rax)
    2497: 00 85 10 00 00 e4            	addb	%al, -469762032(%rbp)
    249d: 06                           	<unknown>
    249e: 00 00                        	addb	%al, (%rax)
    24a0: 05 00 1a 00 00               	addl	$6656, %eax
    24a5: 00 00                        	addb	%al, (%rax)
    24a7: 00 07                        	addb	%al, (%rdi)
    24a9: 07                           	<unknown>
    24aa: 00 00                        	addb	%al, (%rax)
    24ac: 08 00                        	orb	%al, (%rax)
    24ae: 00 00                        	addb	%al, (%rax)
    24b0: bf 61 00 00 00               	movl	$97, %edi
    24b5: 00 00                        	addb	%al, (%rax)
    24b7: 00 85 10 00 00 9a            	addb	%al, -1711276016(%rbp)
    24bd: 0a 00                        	orb	(%rax), %al
    24bf: 00 55 00                     	addb	%dl, (%rbp)
    24c2: 0a 00                        	orb	(%rax), %al
    24c4: 00 00                        	addb	%al, (%rax)
    24c6: 00 00                        	addb	%al, (%rax)
    24c8: bf 61 00 00 00               	movl	$97, %edi
    24cd: 00 00                        	addb	%al, (%rax)
    24cf: 00 85 10 00 00 9b            	addb	%al, -1694498800(%rbp)
    24d5: 0a 00                        	orb	(%rax), %al
    24d7: 00 55 00                     	addb	%dl, (%rbp)
    24da: 01 00                        	addl	%eax, (%rax)
    24dc: 00 00                        	addb	%al, (%rax)
    24de: 00 00                        	addb	%al, (%rax)
    24e0: 05 00 0c 00 00               	addl	$3072, %eax
    24e5: 00 00                        	addb	%al, (%rax)
    24e7: 00 bf 71 00 00 00            	addb	%bh, 113(%rdi)
    24ed: 00 00                        	addb	%al, (%rax)
    24ef: 00 bf 62 00 00 00            	addb	%bh, 98(%rdi)
    24f5: 00 00                        	addb	%al, (%rax)
    24f7: 00 85 10 00 00 c7            	addb	%al, -956301296(%rbp)
    24fd: ff ff                        	<unknown>
    24ff: ff b7 08 00 00 00            	pushq	8(%rdi)
    2505: 00 00                        	addb	%al, (%rax)
    2507: 00 55 00                     	addb	%dl, (%rbp)
    250a: 0c 00                        	orb	$0, %al
    250c: 00 00                        	addb	%al, (%rax)
    250e: 00 00                        	addb	%al, (%rax)
    2510: 05 00 0c 00 00               	addl	$3072, %eax
    2515: 00 00                        	addb	%al, (%rax)
    2517: 00 bf 71 00 00 00            	addb	%bh, 113(%rdi)
    251d: 00 00                        	addb	%al, (%rax)
    251f: 00 bf 62 00 00 00            	addb	%bh, 98(%rdi)
    2525: 00 00                        	addb	%al, (%rax)
    2527: 00 85 10 00 00 be            	addb	%al, -1107296240(%rbp)
    252d: ff ff                        	<unknown>
    252f: ff b7 08 00 00 00            	pushq	8(%rdi)
    2535: 00 00                        	addb	%al, (%rax)
    2537: 00 55 00                     	addb	%dl, (%rbp)
    253a: 06                           	<unknown>
    253b: 00 00                        	addb	%al, (%rax)
    253d: 00 00                        	addb	%al, (%rax)
    253f: 00 05 00 06 00 00            	addb	%al, 1536(%rip)  # 2b45 <entrypoint+0x25a5>
    2545: 00 00                        	addb	%al, (%rax)
    2547: 00 bf 71 00 00 00            	addb	%bh, 113(%rdi)
    254d: 00 00                        	addb	%al, (%rax)
    254f: 00 bf 62 00 00 00            	addb	%bh, 98(%rdi)
    2555: 00 00                        	addb	%al, (%rax)
    2557: 00 85 10 00 00 ed            	addb	%al, -318767088(%rbp)
    255d: 0b 00                        	orl	(%rax), %eax
    255f: 00 b7 08 00 00 00            	addb	%dh, 8(%rdi)
    2565: 00 00                        	addb	%al, (%rax)
    2567: 00 15 00 01 00 00            	addb	%dl, 256(%rip)  # 266d <entrypoint+0x20cd>
    256d: 00 00                        	addb	%al, (%rax)
    256f: 00 05 00 d2 ff 00            	addb	%al, 16765440(%rip)  # fff775
    2575: 00 00                        	addb	%al, (%rax)
    2577: 00 bf 80 00 00 00            	addb	%bh, 128(%rdi)
    257d: 00 00                        	addb	%al, (%rax)
    257f: 00 95 00 00 00 00            	addb	%dl, (%rbp)
    2585: 00 00                        	addb	%al, (%rax)
    2587: 00 85 10 00 00 23            	addb	%al, 587202576(%rbp)
    258d: 0b 00                        	orl	(%rax), %eax
    258f: 00 95 00 00 00 00            	addb	%dl, (%rbp)
    2595: 00 00                        	addb	%al, (%rax)
    2597: 00 bf 10 00 00 00            	addb	%bh, 16(%rdi)
    259d: 00 00                        	addb	%al, (%rax)
    259f: 00 07                        	addb	%al, (%rdi)
    25a1: 00 00                        	addb	%al, (%rax)
    25a3: 00 18                        	addb	%bl, (%rax)
    25a5: 00 00                        	addb	%al, (%rax)
    25a7: 00 95 00 00 00 00            	addb	%dl, (%rbp)
    25ad: 00 00                        	addb	%al, (%rax)
    25af: 00 63 51                     	addb	%ah, 81(%rbx)
    25b2: 14 00                        	adcb	$0, %al
    25b4: 00 00                        	addb	%al, (%rax)
    25b6: 00 00                        	addb	%al, (%rax)
    25b8: 63 41 10                     	movslq	16(%rcx), %eax
    25bb: 00 00                        	addb	%al, (%rax)
    25bd: 00 00                        	addb	%al, (%rax)
    25bf: 00 7b 31                     	addb	%bh, 49(%rbx)
    25c2: 08 00                        	orb	%al, (%rax)
    25c4: 00 00                        	addb	%al, (%rax)
    25c6: 00 00                        	addb	%al, (%rax)
    25c8: 7b 21                        	jnp	0x25eb <entrypoint+0x204b>
    25ca: 00 00                        	addb	%al, (%rax)
    25cc: 00 00                        	addb	%al, (%rax)
    25ce: 00 00                        	addb	%al, (%rax)
    25d0: 95                           	xchgl	%ebp, %eax
    25d1: 00 00                        	addb	%al, (%rax)
    25d3: 00 00                        	addb	%al, (%rax)
    25d5: 00 00                        	addb	%al, (%rax)
    25d7: 00 79 23                     	addb	%bh, 35(%rcx)
    25da: 08 00                        	orb	%al, (%rax)
    25dc: 00 00                        	addb	%al, (%rax)
    25de: 00 00                        	addb	%al, (%rax)
    25e0: 7b 31                        	jnp	0x2613 <entrypoint+0x2073>
    25e2: 08 00                        	orb	%al, (%rax)
    25e4: 00 00                        	addb	%al, (%rax)
    25e6: 00 00                        	addb	%al, (%rax)
    25e8: 79 22                        	jns	0x260c <entrypoint+0x206c>
    25ea: 00 00                        	addb	%al, (%rax)
    25ec: 00 00                        	addb	%al, (%rax)
    25ee: 00 00                        	addb	%al, (%rax)
    25f0: 7b 21                        	jnp	0x2613 <entrypoint+0x2073>
    25f2: 00 00                        	addb	%al, (%rax)
    25f4: 00 00                        	addb	%al, (%rax)
    25f6: 00 00                        	addb	%al, (%rax)
    25f8: 95                           	xchgl	%ebp, %eax
    25f9: 00 00                        	addb	%al, (%rax)
    25fb: 00 00                        	addb	%al, (%rax)
    25fd: 00 00                        	addb	%al, (%rax)
    25ff: 00 61 10                     	addb	%ah, 16(%rcx)
    2602: 10 00                        	adcb	%al, (%rax)
    2604: 00 00                        	addb	%al, (%rax)
    2606: 00 00                        	addb	%al, (%rax)
    2608: 95                           	xchgl	%ebp, %eax
    2609: 00 00                        	addb	%al, (%rax)
    260b: 00 00                        	addb	%al, (%rax)
    260d: 00 00                        	addb	%al, (%rax)
    260f: 00 61 10                     	addb	%ah, 16(%rcx)
    2612: 14 00                        	adcb	$0, %al
    2614: 00 00                        	addb	%al, (%rax)
    2616: 00 00                        	addb	%al, (%rax)
    2618: 95                           	xchgl	%ebp, %eax
    2619: 00 00                        	addb	%al, (%rax)
    261b: 00 00                        	addb	%al, (%rax)
    261d: 00 00                        	addb	%al, (%rax)
    261f: 00 79 23                     	addb	%bh, 35(%rcx)
    2622: 28 00                        	subb	%al, (%rax)
    2624: 00 00                        	addb	%al, (%rax)
    2626: 00 00                        	addb	%al, (%rax)
    2628: 7b 31                        	jnp	0x265b <entrypoint+0x20bb>
    262a: 28 00                        	subb	%al, (%rax)
    262c: 00 00                        	addb	%al, (%rax)
    262e: 00 00                        	addb	%al, (%rax)
    2630: 79 23                        	jns	0x2655 <entrypoint+0x20b5>
    2632: 20 00                        	andb	%al, (%rax)
    2634: 00 00                        	addb	%al, (%rax)
    2636: 00 00                        	addb	%al, (%rax)
    2638: 7b 31                        	jnp	0x266b <entrypoint+0x20cb>
    263a: 20 00                        	andb	%al, (%rax)
    263c: 00 00                        	addb	%al, (%rax)
    263e: 00 00                        	addb	%al, (%rax)
    2640: 79 23                        	jns	0x2665 <entrypoint+0x20c5>
    2642: 18 00                        	sbbb	%al, (%rax)
    2644: 00 00                        	addb	%al, (%rax)
    2646: 00 00                        	addb	%al, (%rax)
    2648: 7b 31                        	jnp	0x267b <entrypoint+0x20db>
    264a: 18 00                        	sbbb	%al, (%rax)
    264c: 00 00                        	addb	%al, (%rax)
    264e: 00 00                        	addb	%al, (%rax)
    2650: 79 23                        	jns	0x2675 <entrypoint+0x20d5>
    2652: 10 00                        	adcb	%al, (%rax)
    2654: 00 00                        	addb	%al, (%rax)
    2656: 00 00                        	addb	%al, (%rax)
    2658: 7b 31                        	jnp	0x268b <entrypoint+0x20eb>
    265a: 10 00                        	adcb	%al, (%rax)
    265c: 00 00                        	addb	%al, (%rax)
    265e: 00 00                        	addb	%al, (%rax)
    2660: 79 23                        	jns	0x2685 <entrypoint+0x20e5>
    2662: 08 00                        	orb	%al, (%rax)
    2664: 00 00                        	addb	%al, (%rax)
    2666: 00 00                        	addb	%al, (%rax)
    2668: 7b 31                        	jnp	0x269b <entrypoint+0x20fb>
    266a: 08 00                        	orb	%al, (%rax)
    266c: 00 00                        	addb	%al, (%rax)
    266e: 00 00                        	addb	%al, (%rax)
    2670: 79 22                        	jns	0x2694 <entrypoint+0x20f4>
    2672: 00 00                        	addb	%al, (%rax)
    2674: 00 00                        	addb	%al, (%rax)
    2676: 00 00                        	addb	%al, (%rax)
    2678: 7b 21                        	jnp	0x269b <entrypoint+0x20fb>
    267a: 00 00                        	addb	%al, (%rax)
    267c: 00 00                        	addb	%al, (%rax)
    267e: 00 00                        	addb	%al, (%rax)
    2680: 95                           	xchgl	%ebp, %eax
    2681: 00 00                        	addb	%al, (%rax)
    2683: 00 00                        	addb	%al, (%rax)
    2685: 00 00                        	addb	%al, (%rax)
    2687: 00 7b 31                     	addb	%bh, 49(%rbx)
    268a: 08 00                        	orb	%al, (%rax)
    268c: 00 00                        	addb	%al, (%rax)
    268e: 00 00                        	addb	%al, (%rax)
    2690: 7b 21                        	jnp	0x26b3 <entrypoint+0x2113>
    2692: 00 00                        	addb	%al, (%rax)
    2694: 00 00                        	addb	%al, (%rax)
    2696: 00 00                        	addb	%al, (%rax)
    2698: 95                           	xchgl	%ebp, %eax
    2699: 00 00                        	addb	%al, (%rax)
    269b: 00 00                        	addb	%al, (%rax)
    269d: 00 00                        	addb	%al, (%rax)
    269f: 00 b7 00 00 00 00            	addb	%dh, (%rdi)
    26a5: 00 00                        	addb	%al, (%rax)
    26a7: 00 7b 01                     	addb	%bh, 1(%rbx)
    26aa: 20 00                        	andb	%al, (%rax)
    26ac: 00 00                        	addb	%al, (%rax)
    26ae: 00 00                        	addb	%al, (%rax)
    26b0: 7b 31                        	jnp	0x26e3 <entrypoint+0x2143>
    26b2: 08 00                        	orb	%al, (%rax)
    26b4: 00 00                        	addb	%al, (%rax)
    26b6: 00 00                        	addb	%al, (%rax)
    26b8: 7b 21                        	jnp	0x26db <entrypoint+0x213b>
    26ba: 00 00                        	addb	%al, (%rax)
    26bc: 00 00                        	addb	%al, (%rax)
    26be: 00 00                        	addb	%al, (%rax)
    26c0: 1f                           	<unknown>
    26c1: 23 00                        	andl	(%rax), %eax
    26c3: 00 00                        	addb	%al, (%rax)
    26c5: 00 00                        	addb	%al, (%rax)
    26c7: 00 7b 51                     	addb	%bh, 81(%rbx)
    26ca: 18 00                        	sbbb	%al, (%rax)
    26cc: 00 00                        	addb	%al, (%rax)
    26ce: 00 00                        	addb	%al, (%rax)
    26d0: 7b 41                        	jnp	0x2713 <entrypoint+0x2173>
    26d2: 10 00                        	adcb	%al, (%rax)
    26d4: 00 00                        	addb	%al, (%rax)
    26d6: 00 00                        	addb	%al, (%rax)
    26d8: 1f                           	<unknown>
    26d9: 45 00 00                     	addb	%r8b, (%r8)
    26dc: 00 00                        	addb	%al, (%rax)
    26de: 00 00                        	addb	%al, (%rax)
    26e0: 77 05                        	ja	0x26e7 <entrypoint+0x2147>
    26e2: 00 00                        	addb	%al, (%rax)
    26e4: 04 00                        	addb	$0, %al
    26e6: 00 00                        	addb	%al, (%rax)
    26e8: 77 03                        	ja	0x26ed <entrypoint+0x214d>
    26ea: 00 00                        	addb	%al, (%rax)
    26ec: 04 00                        	addb	$0, %al
    26ee: 00 00                        	addb	%al, (%rax)
    26f0: 2d 53 01 00 00               	subl	$339, %eax
    26f5: 00 00                        	addb	%al, (%rax)
    26f7: 00 bf 35 00 00 00            	addb	%bh, 53(%rdi)
    26fd: 00 00                        	addb	%al, (%rax)
    26ff: 00 7b 51                     	addb	%bh, 81(%rbx)
    2702: 28 00                        	subb	%al, (%rax)
    2704: 00 00                        	addb	%al, (%rax)
    2706: 00 00                        	addb	%al, (%rax)
    2708: 95                           	xchgl	%ebp, %eax
    2709: 00 00                        	addb	%al, (%rax)
    270b: 00 00                        	addb	%al, (%rax)
    270d: 00 00                        	addb	%al, (%rax)
    270f: 00 b7 00 00 00 00            	addb	%dh, (%rdi)
    2715: 00 00                        	addb	%al, (%rax)
    2717: 00 7b 01                     	addb	%bh, 1(%rbx)
    271a: 20 00                        	andb	%al, (%rax)
    271c: 00 00                        	addb	%al, (%rax)
    271e: 00 00                        	addb	%al, (%rax)
    2720: 7b 31                        	jnp	0x2753 <entrypoint+0x21b3>
    2722: 08 00                        	orb	%al, (%rax)
    2724: 00 00                        	addb	%al, (%rax)
    2726: 00 00                        	addb	%al, (%rax)
    2728: 7b 21                        	jnp	0x274b <entrypoint+0x21ab>
    272a: 00 00                        	addb	%al, (%rax)
    272c: 00 00                        	addb	%al, (%rax)
    272e: 00 00                        	addb	%al, (%rax)
    2730: 1f                           	<unknown>
    2731: 23 00                        	andl	(%rax), %eax
    2733: 00 00                        	addb	%al, (%rax)
    2735: 00 00                        	addb	%al, (%rax)
    2737: 00 7b 51                     	addb	%bh, 81(%rbx)
    273a: 18 00                        	sbbb	%al, (%rax)
    273c: 00 00                        	addb	%al, (%rax)
    273e: 00 00                        	addb	%al, (%rax)
    2740: 7b 41                        	jnp	0x2783 <entrypoint+0x21e3>
    2742: 10 00                        	adcb	%al, (%rax)
    2744: 00 00                        	addb	%al, (%rax)
    2746: 00 00                        	addb	%al, (%rax)
    2748: 1f                           	<unknown>
    2749: 45 00 00                     	addb	%r8b, (%r8)
    274c: 00 00                        	addb	%al, (%rax)
    274e: 00 00                        	addb	%al, (%rax)
    2750: 77 05                        	ja	0x2757 <entrypoint+0x21b7>
    2752: 00 00                        	addb	%al, (%rax)
    2754: 04 00                        	addb	$0, %al
    2756: 00 00                        	addb	%al, (%rax)
    2758: 77 03                        	ja	0x275d <entrypoint+0x21bd>
    275a: 00 00                        	addb	%al, (%rax)
    275c: 06                           	<unknown>
    275d: 00 00                        	addb	%al, (%rax)
    275f: 00 2d 53 01 00 00            	addb	%ch, 339(%rip)  # 28b8 <entrypoint+0x2318>
    2765: 00 00                        	addb	%al, (%rax)
    2767: 00 bf 35 00 00 00            	addb	%bh, 53(%rdi)
    276d: 00 00                        	addb	%al, (%rax)
    276f: 00 7b 51                     	addb	%bh, 81(%rbx)
    2772: 28 00                        	subb	%al, (%rax)
    2774: 00 00                        	addb	%al, (%rax)
    2776: 00 00                        	addb	%al, (%rax)
    2778: 95                           	xchgl	%ebp, %eax
    2779: 00 00                        	addb	%al, (%rax)
    277b: 00 00                        	addb	%al, (%rax)
    277d: 00 00                        	addb	%al, (%rax)
    277f: 00 bf 48 00 00 00            	addb	%bh, 72(%rdi)
    2785: 00 00                        	addb	%al, (%rax)
    2787: 00 bf 39 00 00 00            	addb	%bh, 57(%rdi)
    278d: 00 00                        	addb	%al, (%rax)
    278f: 00 bf 26 00 00 00            	addb	%bh, 38(%rdi)
    2795: 00 00                        	addb	%al, (%rax)
    2797: 00 bf 17 00 00 00            	addb	%bh, 23(%rdi)
    279d: 00 00                        	addb	%al, (%rax)
    279f: 00 bf 91 00 00 00            	addb	%bh, 145(%rdi)
    27a5: 00 00                        	addb	%al, (%rax)
    27a7: 00 b7 02 00 00 08            	addb	%dh, 134217730(%rdi)
    27ad: 00 00                        	addb	%al, (%rax)
    27af: 00 85 10 00 00 37            	addb	%al, 922746896(%rbp)
    27b5: 03 00                        	addl	(%rax), %eax
    27b7: 00 b7 01 00 00 00            	addb	%dh, 1(%rdi)
    27bd: 00 00                        	addb	%al, (%rax)
    27bf: 00 7b 1a                     	addb	%bh, 26(%rbx)
    27c2: f8                           	clc
    27c3: ff 00                        	incl	(%rax)
    27c5: 00 00                        	addb	%al, (%rax)
    27c7: 00 15 00 48 00 00            	addb	%dl, 18432(%rip)  # 6fcd <entrypoint+0x6a2d>
    27cd: 00 00                        	addb	%al, (%rax)
    27cf: 00 7b 7a                     	addb	%bh, 122(%rbx)
    27d2: f0                           	lock
    27d3: ff 00                        	incl	(%rax)
    27d5: 00 00                        	addb	%al, (%rax)
    27d7: 00 bf 82 00 00 00            	addb	%bh, 130(%rdi)
    27dd: 00 00                        	addb	%al, (%rax)
    27df: 00 2d 80 01 00 00            	addb	%ch, 384(%rip)  # 2965 <entrypoint+0x23c5>
    27e5: 00 00                        	addb	%al, (%rax)
    27e7: 00 bf 02 00 00 00            	addb	%bh, 2(%rdi)
    27ed: 00 00                        	addb	%al, (%rax)
    27ef: 00 b7 01 00 00 00            	addb	%dh, 1(%rdi)
    27f5: 00 00                        	addb	%al, (%rax)
    27f7: 00 bf 94 00 00 00            	addb	%bh, 148(%rdi)
    27fd: 00 00                        	addb	%al, (%rax)
    27ff: 00 0f                        	addb	%cl, (%rdi)
    2801: 24 00                        	andb	$0, %al
    2803: 00 00                        	addb	%al, (%rax)
    2805: 00 00                        	addb	%al, (%rax)
    2807: 00 7b 2a                     	addb	%bh, 42(%rbx)
    280a: f8                           	clc
    280b: ff 00                        	incl	(%rax)
    280d: 00 00                        	addb	%al, (%rax)
    280f: 00 bf 93 00 00 00            	addb	%bh, 147(%rdi)
    2815: 00 00                        	addb	%al, (%rax)
    2817: 00 05 00 04 00 00            	addb	%al, 1024(%rip)  # 2c1d <entrypoint+0x267d>
    281d: 00 00                        	addb	%al, (%rax)
    281f: 00 0f                        	addb	%cl, (%rdi)
    2821: 71 00                        	jno	0x2823 <entrypoint+0x2283>
    2823: 00 00                        	addb	%al, (%rax)
    2825: 00 00                        	addb	%al, (%rax)
    2827: 00 07                        	addb	%al, (%rdi)
    2829: 02 00                        	addb	(%rax), %al
    282b: 00 fc                        	addb	%bh, %ah
    282d: ff ff                        	<unknown>
    282f: ff 07                        	incl	(%rdi)
    2831: 03 00                        	addl	(%rax), %eax
    2833: 00 04 00                     	addb	%al, (%rax,%rax)
    2836: 00 00                        	addb	%al, (%rax)
    2838: 1d 50 36 00 00               	sbbl	$13904, %eax
    283d: 00 00                        	addb	%al, (%rax)
    283f: 00 bf 45 00 00 00            	addb	%bh, 69(%rdi)
    2845: 00 00                        	addb	%al, (%rax)
    2847: 00 1f                        	addb	%bl, (%rdi)
    2849: 35 00 00 00 00               	xorl	$0, %eax
    284e: 00 00                        	addb	%al, (%rax)
    2850: 25 05 03 00 03               	andl	$50332421, %eax
    2855: 00 00                        	addb	%al, (%rax)
    2857: 00 b7 04 00 00 00            	addb	%dh, 4(%rdi)
    285d: 00 00                        	addb	%al, (%rax)
    285f: 00 79 a7                     	addb	%bh, -89(%rcx)
    2862: f0                           	lock
    2863: ff 00                        	incl	(%rax)
    2865: 00 00                        	addb	%al, (%rax)
    2867: 00 05 00 1f 00 00            	addb	%al, 7936(%rip)  # 476d <entrypoint+0x41cd>
    286d: 00 00                        	addb	%al, (%rax)
    286f: 00 bf 65 00 00 00            	addb	%bh, 101(%rdi)
    2875: 00 00                        	addb	%al, (%rax)
    2877: 00 57 05                     	addb	%dl, 5(%rdi)
    287a: 00 00                        	addb	%al, (%rax)
    287c: ff 00                        	incl	(%rax)
    287e: 00 00                        	addb	%al, (%rax)
    2880: 71 30                        	jno	0x28b2 <entrypoint+0x2312>
    2882: 00 00                        	addb	%al, (%rax)
    2884: 00 00                        	addb	%al, (%rax)
    2886: 00 00                        	addb	%al, (%rax)
    2888: b7 07                        	movb	$7, %bh
    288a: 00 00                        	addb	%al, (%rax)
    288c: 01 00                        	addl	%eax, (%rax)
    288e: 00 00                        	addb	%al, (%rax)
    2890: 5d                           	popq	%rbp
    2891: 50                           	pushq	%rax
    2892: 01 00                        	addl	%eax, (%rax)
    2894: 00 00                        	addb	%al, (%rax)
    2896: 00 00                        	addb	%al, (%rax)
    2898: b7 07                        	movb	$7, %bh
    289a: 00 00                        	addb	%al, (%rax)
    289c: 00 00                        	addb	%al, (%rax)
    289e: 00 00                        	addb	%al, (%rax)
    28a0: 0f 71 00                     	<unknown>
    28a3: 00 00                        	addb	%al, (%rax)
    28a5: 00 00                        	addb	%al, (%rax)
    28a7: 00 1d 50 28 00 00            	addb	%bl, 10320(%rip)  # 50fd <entrypoint+0x4b5d>
    28ad: 00 00                        	addb	%al, (%rax)
    28af: 00 bf 65 00 00 00            	addb	%bh, 101(%rdi)
    28b5: 00 00                        	addb	%al, (%rax)
    28b7: 00 57 05                     	addb	%dl, 5(%rdi)
    28ba: 00 00                        	addb	%al, (%rax)
    28bc: ff 00                        	incl	(%rax)
    28be: 00 00                        	addb	%al, (%rax)
    28c0: 71 30                        	jno	0x28f2 <entrypoint+0x2352>
    28c2: 01 00                        	addl	%eax, (%rax)
    28c4: 00 00                        	addb	%al, (%rax)
    28c6: 00 00                        	addb	%al, (%rax)
    28c8: b7 07                        	movb	$7, %bh
    28ca: 00 00                        	addb	%al, (%rax)
    28cc: 01 00                        	addl	%eax, (%rax)
    28ce: 00 00                        	addb	%al, (%rax)
    28d0: 5d                           	popq	%rbp
    28d1: 50                           	pushq	%rax
    28d2: 01 00                        	addl	%eax, (%rax)
    28d4: 00 00                        	addb	%al, (%rax)
    28d6: 00 00                        	addb	%al, (%rax)
    28d8: b7 07                        	movb	$7, %bh
    28da: 00 00                        	addb	%al, (%rax)
    28dc: 00 00                        	addb	%al, (%rax)
    28de: 00 00                        	addb	%al, (%rax)
    28e0: 0f 71 00                     	<unknown>
    28e3: 00 00                        	addb	%al, (%rax)
    28e5: 00 00                        	addb	%al, (%rax)
    28e7: 00 1d 50 20 00 00            	addb	%bl, 8272(%rip)  # 493d <entrypoint+0x439d>
    28ed: 00 00                        	addb	%al, (%rax)
    28ef: 00 bf 65 00 00 00            	addb	%bh, 101(%rdi)
    28f5: 00 00                        	addb	%al, (%rax)
    28f7: 00 57 05                     	addb	%dl, 5(%rdi)
    28fa: 00 00                        	addb	%al, (%rax)
    28fc: ff 00                        	incl	(%rax)
    28fe: 00 00                        	addb	%al, (%rax)
    2900: 71 30                        	jno	0x2932 <entrypoint+0x2392>
    2902: 02 00                        	addb	(%rax), %al
    2904: 00 00                        	addb	%al, (%rax)
    2906: 00 00                        	addb	%al, (%rax)
    2908: b7 07                        	movb	$7, %bh
    290a: 00 00                        	addb	%al, (%rax)
    290c: 01 00                        	addl	%eax, (%rax)
    290e: 00 00                        	addb	%al, (%rax)
    2910: 5d                           	popq	%rbp
    2911: 50                           	pushq	%rax
    2912: 01 00                        	addl	%eax, (%rax)
    2914: 00 00                        	addb	%al, (%rax)
    2916: 00 00                        	addb	%al, (%rax)
    2918: b7 07                        	movb	$7, %bh
    291a: 00 00                        	addb	%al, (%rax)
    291c: 00 00                        	addb	%al, (%rax)
    291e: 00 00                        	addb	%al, (%rax)
    2920: 0f 71 00                     	<unknown>
    2923: 00 00                        	addb	%al, (%rax)
    2925: 00 00                        	addb	%al, (%rax)
    2927: 00 1d 50 18 00 00            	addb	%bl, 6224(%rip)  # 417d <entrypoint+0x3bdd>
    292d: 00 00                        	addb	%al, (%rax)
    292f: 00 bf 65 00 00 00            	addb	%bh, 101(%rdi)
    2935: 00 00                        	addb	%al, (%rax)
    2937: 00 57 05                     	addb	%dl, 5(%rdi)
    293a: 00 00                        	addb	%al, (%rax)
    293c: ff 00                        	incl	(%rax)
    293e: 00 00                        	addb	%al, (%rax)
    2940: 71 30                        	jno	0x2972 <entrypoint+0x23d2>
    2942: 03 00                        	addl	(%rax), %eax
    2944: 00 00                        	addb	%al, (%rax)
    2946: 00 00                        	addb	%al, (%rax)
    2948: b7 07                        	movb	$7, %bh
    294a: 00 00                        	addb	%al, (%rax)
    294c: 01 00                        	addl	%eax, (%rax)
    294e: 00 00                        	addb	%al, (%rax)
    2950: 5d                           	popq	%rbp
    2951: 50                           	pushq	%rax
    2952: d9 ff                        	fcos
    2954: 00 00                        	addb	%al, (%rax)
    2956: 00 00                        	addb	%al, (%rax)
    2958: b7 07                        	movb	$7, %bh
    295a: 00 00                        	addb	%al, (%rax)
    295c: 00 00                        	addb	%al, (%rax)
    295e: 00 00                        	addb	%al, (%rax)
    2960: 05 00 d7 ff 00               	addl	$16766720, %eax
    2965: 00 00                        	addb	%al, (%rax)
    2967: 00 15 02 14 00 00            	addb	%dl, 5122(%rip)  # 3d6f <entrypoint+0x37cf>
    296d: 00 00                        	addb	%al, (%rax)
    296f: 00 07                        	addb	%al, (%rdi)
    2971: 02 00                        	addb	(%rax), %al
    2973: 00 ff                        	addb	%bh, %bh
    2975: ff ff                        	<unknown>
    2977: ff bf 35 00 00 00            	<unknown>
    297d: 00 00                        	addb	%al, (%rax)
    297f: 00 0f                        	addb	%cl, (%rdi)
    2981: 45 00 00                     	addb	%r8b, (%r8)
    2984: 00 00                        	addb	%al, (%rax)
    2986: 00 00                        	addb	%al, (%rax)
    2988: 07                           	<unknown>
    2989: 04 00                        	addb	$0, %al
    298b: 00 01                        	addb	%al, (%rcx)
    298d: 00 00                        	addb	%al, (%rax)
    298f: 00 71 55                     	addb	%dh, 85(%rcx)
    2992: 00 00                        	addb	%al, (%rax)
    2994: 00 00                        	addb	%al, (%rax)
    2996: 00 00                        	addb	%al, (%rax)
    2998: bf 60 00 00 00               	movl	$96, %edi
    299d: 00 00                        	addb	%al, (%rax)
    299f: 00 57 00                     	addb	%dl, (%rdi)
    29a2: 00 00                        	addb	%al, (%rax)
    29a4: ff 00                        	incl	(%rax)
    29a6: 00 00                        	addb	%al, (%rax)
    29a8: 5d                           	popq	%rbp
    29a9: 05 f7 ff 00 00               	addl	$65527, %eax
    29ae: 00 00                        	addb	%al, (%rax)
    29b0: b7 02                        	movb	$2, %bh
    29b2: 00 00                        	addb	%al, (%rax)
    29b4: 01 00                        	addl	%eax, (%rax)
    29b6: 00 00                        	addb	%al, (%rax)
    29b8: 1d 05 01 00 00               	sbbl	$261, %eax
    29bd: 00 00                        	addb	%al, (%rax)
    29bf: 00 b7 02 00 00 00            	addb	%dh, 2(%rdi)
    29c5: 00 00                        	addb	%al, (%rax)
    29c7: 00 07                        	addb	%al, (%rdi)
    29c9: 02 00                        	addb	(%rax), %al
    29cb: 00 01                        	addb	%al, (%rcx)
    29cd: 00 00                        	addb	%al, (%rax)
    29cf: 00 57 02                     	addb	%dl, 2(%rdi)
    29d2: 00 00                        	addb	%al, (%rax)
    29d4: 01 00                        	addl	%eax, (%rax)
    29d6: 00 00                        	addb	%al, (%rax)
    29d8: 0f 21 00                     	<unknown>
    29db: 00 00                        	addb	%al, (%rax)
    29dd: 00 00                        	addb	%al, (%rax)
    29df: 00 0f                        	addb	%cl, (%rdi)
    29e1: 41 00 00                     	addb	%al, (%r8)
    29e4: 00 00                        	addb	%al, (%rax)
    29e6: 00 00                        	addb	%al, (%rax)
    29e8: 07                           	<unknown>
    29e9: 01 00                        	addl	%eax, (%rax)
    29eb: 00 ff                        	addb	%bh, %bh
    29ed: ff ff                        	<unknown>
    29ef: ff 85 10 00 00 9a            	incl	-1711276016(%rbp)
    29f5: 0a 00                        	orb	(%rax), %al
    29f7: 00 b7 01 00 00 01            	addb	%dh, 16777217(%rdi)
    29fd: 00 00                        	addb	%al, (%rax)
    29ff: 00 79 a7                     	addb	%bh, -89(%rcx)
    2a02: f0                           	lock
    2a03: ff 00                        	incl	(%rax)
    2a05: 00 00                        	addb	%al, (%rax)
    2a07: 00 05 00 74 00 00            	addb	%al, 29696(%rip)  # 9e0d
    2a0d: 00 00                        	addb	%al, (%rax)
    2a0f: 00 b7 01 00 00 10            	addb	%dh, 268435457(%rdi)
    2a15: 00 00                        	addb	%al, (%rax)
    2a17: 00 2d 81 2c 00 00            	addb	%ch, 11393(%rip)  # 569e <entrypoint+0x50fe>
    2a1d: 00 00                        	addb	%al, (%rax)
    2a1f: 00 bf 81 00 00 00            	addb	%bh, 129(%rdi)
    2a25: 00 00                        	addb	%al, (%rax)
    2a27: 00 07                        	addb	%al, (%rdi)
    2a29: 01 00                        	addl	%eax, (%rax)
    2a2b: 00 f0                        	addb	%dh, %al
    2a2d: ff ff                        	<unknown>
    2a2f: ff 79 a2                     	<unknown>
    2a32: f8                           	clc
    2a33: ff 00                        	incl	(%rax)
    2a35: 00 00                        	addb	%al, (%rax)
    2a37: 00 2d 12 28 00 00            	addb	%ch, 10258(%rip)  # 524f <entrypoint+0x4caf>
    2a3d: 00 00                        	addb	%al, (%rax)
    2a3f: 00 7b 7a                     	addb	%bh, 122(%rbx)
    2a42: f0                           	lock
    2a43: ff 00                        	incl	(%rax)
    2a45: 00 00                        	addb	%al, (%rax)
    2a47: 00 bf 62 00 00 00            	addb	%bh, 98(%rdi)
    2a4d: 00 00                        	addb	%al, (%rax)
    2a4f: 00 57 02                     	addb	%dl, 2(%rdi)
    2a52: 00 00                        	addb	%al, (%rax)
    2a54: ff 00                        	incl	(%rax)
    2a56: 00 00                        	addb	%al, (%rax)
    2a58: 18 03                        	sbbb	%al, (%rbx)
    2a5a: 00 00                        	addb	%al, (%rax)
    2a5c: 01 01                        	addl	%eax, (%rcx)
    2a5e: 01 01                        	addl	%eax, (%rcx)
    2a60: 00 00                        	addb	%al, (%rax)
    2a62: 00 00                        	addb	%al, (%rax)
    2a64: 01 01                        	addl	%eax, (%rcx)
    2a66: 01 01                        	addl	%eax, (%rcx)
    2a68: 2f                           	<unknown>
    2a69: 32 00                        	xorb	(%rax), %al
    2a6b: 00 00                        	addb	%al, (%rax)
    2a6d: 00 00                        	addb	%al, (%rax)
    2a6f: 00 18                        	addb	%bl, (%rax)
    2a71: 03 00                        	addl	(%rax), %eax
    2a73: 00 ff                        	addb	%bh, %bh
    2a75: fe fe                        	<unknown>
    2a77: fe 00                        	incb	(%rax)
    2a79: 00 00                        	addb	%al, (%rax)
    2a7b: 00 fe                        	addb	%bh, %dh
    2a7d: fe fe                        	<unknown>
    2a7f: fe 79 a7                     	<unknown>
    2a82: f8                           	clc
    2a83: ff 00                        	incl	(%rax)
    2a85: 00 00                        	addb	%al, (%rax)
    2a87: 00 bf 95 00 00 00            	addb	%bh, 149(%rdi)
    2a8d: 00 00                        	addb	%al, (%rax)
    2a8f: 00 0f                        	addb	%cl, (%rdi)
    2a91: 75 00                        	jne	0x2a93 <entrypoint+0x24f3>
    2a93: 00 00                        	addb	%al, (%rax)
    2a95: 00 00                        	addb	%al, (%rax)
    2a97: 00 79 50                     	addb	%bh, 80(%rcx)
    2a9a: 00 00                        	addb	%al, (%rax)
    2a9c: 00 00                        	addb	%al, (%rax)
    2a9e: 00 00                        	addb	%al, (%rax)
    2aa0: af                           	scasl	%es:(%rdi), %eax
    2aa1: 20 00                        	andb	%al, (%rax)
    2aa3: 00 00                        	addb	%al, (%rax)
    2aa5: 00 00                        	addb	%al, (%rax)
    2aa7: 00 bf 74 00 00 00            	addb	%bh, 116(%rdi)
    2aad: 00 00                        	addb	%al, (%rax)
    2aaf: 00 bf 07 00 00 00            	addb	%bh, 7(%rdi)
    2ab5: 00 00                        	addb	%al, (%rax)
    2ab7: 00 0f                        	addb	%cl, (%rdi)
    2ab9: 37                           	<unknown>
    2aba: 00 00                        	addb	%al, (%rax)
    2abc: 00 00                        	addb	%al, (%rax)
    2abe: 00 00                        	addb	%al, (%rax)
    2ac0: a7                           	cmpsl	%es:(%rdi), (%rsi)
    2ac1: 00 00                        	addb	%al, (%rax)
    2ac3: 00 ff                        	addb	%bh, %bh
    2ac5: ff ff                        	<unknown>
    2ac7: ff 5f 70                     	lcalll	*112(%rdi)
    2aca: 00 00                        	addb	%al, (%rax)
    2acc: 00 00                        	addb	%al, (%rax)
    2ace: 00 00                        	addb	%al, (%rax)
    2ad0: 79 55                        	jns	0x2b27 <entrypoint+0x2587>
    2ad2: 08 00                        	orb	%al, (%rax)
    2ad4: 00 00                        	addb	%al, (%rax)
    2ad6: 00 00                        	addb	%al, (%rax)
    2ad8: af                           	scasl	%es:(%rdi), %eax
    2ad9: 25 00 00 00 00               	andl	$0, %eax
    2ade: 00 00                        	addb	%al, (%rax)
    2ae0: bf 57 00 00 00               	movl	$87, %edi
    2ae5: 00 00                        	addb	%al, (%rax)
    2ae7: 00 0f                        	addb	%cl, (%rdi)
    2ae9: 37                           	<unknown>
    2aea: 00 00                        	addb	%al, (%rax)
    2aec: 00 00                        	addb	%al, (%rax)
    2aee: 00 00                        	addb	%al, (%rax)
    2af0: a7                           	cmpsl	%es:(%rdi), (%rsi)
    2af1: 05 00 00 ff ff               	addl	$4294901760, %eax
    2af6: ff ff                        	<unknown>
    2af8: 5f                           	popq	%rdi
    2af9: 75 00                        	jne	0x2afb <entrypoint+0x255b>
    2afb: 00 00                        	addb	%al, (%rax)
    2afd: 00 00                        	addb	%al, (%rax)
    2aff: 00 bf 47 00 00 00            	addb	%bh, 71(%rdi)
    2b05: 00 00                        	addb	%al, (%rax)
    2b07: 00 4f 05                     	addb	%cl, 5(%rdi)
    2b0a: 00 00                        	addb	%al, (%rax)
    2b0c: 00 00                        	addb	%al, (%rax)
    2b0e: 00 00                        	addb	%al, (%rax)
    2b10: 18 04 00                     	sbbb	%al, (%rax,%rax)
    2b13: 00 80 80 80 80 00            	addb	%al, 8421504(%rax)
    2b19: 00 00                        	addb	%al, (%rax)
    2b1b: 00 80 80 80 80 5f            	addb	%al, 1602257024(%rax)
    2b21: 45 00 00                     	addb	%r8b, (%r8)
    2b24: 00 00                        	addb	%al, (%rax)
    2b26: 00 00                        	addb	%al, (%rax)
    2b28: 55                           	pushq	%rbp
    2b29: 05 02 00 00 00               	addl	$2, %eax
    2b2e: 00 00                        	addb	%al, (%rax)
    2b30: 07                           	<unknown>
    2b31: 07                           	<unknown>
    2b32: 00 00                        	addb	%al, (%rax)
    2b34: 10 00                        	adcb	%al, (%rax)
    2b36: 00 00                        	addb	%al, (%rax)
    2b38: 3d 71 e9 ff 00               	cmpl	$16771441, %eax
    2b3d: 00 00                        	addb	%al, (%rax)
    2b3f: 00 bf 71 00 00 00            	addb	%bh, 113(%rdi)
    2b45: 00 00                        	addb	%al, (%rax)
    2b47: 00 79 a7                     	addb	%bh, -89(%rcx)
    2b4a: f0                           	lock
    2b4b: ff 00                        	incl	(%rax)
    2b4d: 00 00                        	addb	%al, (%rax)
    2b4f: 00 7b 1a                     	addb	%bh, 26(%rbx)
    2b52: f8                           	clc
    2b53: ff 00                        	incl	(%rax)
    2b55: 00 00                        	addb	%al, (%rax)
    2b57: 00 3d 18 04 00 00            	addb	%bh, 1048(%rip)  # 2f75 <entrypoint+0x29d5>
    2b5d: 00 00                        	addb	%al, (%rax)
    2b5f: 00 79 a1                     	addb	%bh, -95(%rcx)
    2b62: f8                           	clc
    2b63: ff 00                        	incl	(%rax)
    2b65: 00 00                        	addb	%al, (%rax)
    2b67: 00 bf 82 00 00 00            	addb	%bh, 130(%rdi)
    2b6d: 00 00                        	addb	%al, (%rax)
    2b6f: 00 85 10 00 00 5f            	addb	%al, 1593835536(%rbp)
    2b75: 02 00                        	addb	(%rax), %al
    2b77: 00 85 10 00 00 ff            	addb	%al, -16777200(%rbp)
    2b7d: ff ff                        	<unknown>
    2b7f: ff bf 91 00 00 00            	<unknown>
    2b85: 00 00                        	addb	%al, (%rax)
    2b87: 00 0f                        	addb	%cl, (%rdi)
    2b89: 81 00 00 00 00 00            	addl	$0, (%rax)
    2b8f: 00 79 a2                     	addb	%bh, -94(%rcx)
    2b92: f8                           	clc
    2b93: ff 00                        	incl	(%rax)
    2b95: 00 00                        	addb	%al, (%rax)
    2b97: 00 1f                        	addb	%bl, (%rdi)
    2b99: 28 00                        	subb	%al, (%rax)
    2b9b: 00 00                        	addb	%al, (%rax)
    2b9d: 00 00                        	addb	%al, (%rax)
    2b9f: 00 0f                        	addb	%cl, (%rdi)
    2ba1: 29 00                        	subl	%eax, (%rax)
    2ba3: 00 00                        	addb	%al, (%rax)
    2ba5: 00 00                        	addb	%al, (%rax)
    2ba7: 00 b7 00 00 00 00            	addb	%dh, (%rdi)
    2bad: 00 00                        	addb	%al, (%rax)
    2baf: 00 05 00 04 00 00            	addb	%al, 1024(%rip)  # 2fb5 <entrypoint+0x2a15>
    2bb5: 00 00                        	addb	%al, (%rax)
    2bb7: 00 0f                        	addb	%cl, (%rdi)
    2bb9: 40 00 00                     	addb	%al, (%rax)
    2bbc: 00 00                        	addb	%al, (%rax)
    2bbe: 00 00                        	addb	%al, (%rax)
    2bc0: 07                           	<unknown>
    2bc1: 08 00                        	orb	%al, (%rax)
    2bc3: 00 fc                        	addb	%bh, %ah
    2bc5: ff ff                        	<unknown>
    2bc7: ff 07                        	incl	(%rdi)
    2bc9: 09 00                        	orl	%eax, (%rax)
    2bcb: 00 04 00                     	addb	%al, (%rax,%rax)
    2bce: 00 00                        	addb	%al, (%rax)
    2bd0: 1d 23 36 00 00               	sbbl	$13859, %eax
    2bd5: 00 00                        	addb	%al, (%rax)
    2bd7: 00 bf 12 00 00 00            	addb	%bh, 18(%rdi)
    2bdd: 00 00                        	addb	%al, (%rax)
    2bdf: 00 1f                        	addb	%bl, (%rdi)
    2be1: 92                           	xchgl	%edx, %eax
    2be2: 00 00                        	addb	%al, (%rax)
    2be4: 00 00                        	addb	%al, (%rax)
    2be6: 00 00                        	addb	%al, (%rax)
    2be8: 25 02 02 00 03               	andl	$50332162, %eax
    2bed: 00 00                        	addb	%al, (%rax)
    2bef: 00 b7 01 00 00 00            	addb	%dh, 1(%rdi)
    2bf5: 00 00                        	addb	%al, (%rax)
    2bf7: 00 05 00 1f 00 00            	addb	%al, 7936(%rip)  # 4afd <entrypoint+0x455d>
    2bfd: 00 00                        	addb	%al, (%rax)
    2bff: 00 bf 62 00 00 00            	addb	%bh, 98(%rdi)
    2c05: 00 00                        	addb	%al, (%rax)
    2c07: 00 57 02                     	addb	%dl, 2(%rdi)
    2c0a: 00 00                        	addb	%al, (%rax)
    2c0c: ff 00                        	incl	(%rax)
    2c0e: 00 00                        	addb	%al, (%rax)
    2c10: 71 93                        	jno	0x2ba5 <entrypoint+0x2605>
    2c12: 00 00                        	addb	%al, (%rax)
    2c14: 00 00                        	addb	%al, (%rax)
    2c16: 00 00                        	addb	%al, (%rax)
    2c18: b7 04                        	movb	$4, %bh
    2c1a: 00 00                        	addb	%al, (%rax)
    2c1c: 01 00                        	addl	%eax, (%rax)
    2c1e: 00 00                        	addb	%al, (%rax)
    2c20: 5d                           	popq	%rbp
    2c21: 23 01                        	andl	(%rcx), %eax
    2c23: 00 00                        	addb	%al, (%rax)
    2c25: 00 00                        	addb	%al, (%rax)
    2c27: 00 b7 04 00 00 00            	addb	%dh, 4(%rdi)
    2c2d: 00 00                        	addb	%al, (%rax)
    2c2f: 00 0f                        	addb	%cl, (%rdi)
    2c31: 40 00 00                     	addb	%al, (%rax)
    2c34: 00 00                        	addb	%al, (%rax)
    2c36: 00 00                        	addb	%al, (%rax)
    2c38: 1d 23 29 00 00               	sbbl	$10531, %eax
    2c3d: 00 00                        	addb	%al, (%rax)
    2c3f: 00 bf 62 00 00 00            	addb	%bh, 98(%rdi)
    2c45: 00 00                        	addb	%al, (%rax)
    2c47: 00 57 02                     	addb	%dl, 2(%rdi)
    2c4a: 00 00                        	addb	%al, (%rax)
    2c4c: ff 00                        	incl	(%rax)
    2c4e: 00 00                        	addb	%al, (%rax)
    2c50: 71 93                        	jno	0x2be5 <entrypoint+0x2645>
    2c52: 01 00                        	addl	%eax, (%rax)
    2c54: 00 00                        	addb	%al, (%rax)
    2c56: 00 00                        	addb	%al, (%rax)
    2c58: b7 04                        	movb	$4, %bh
    2c5a: 00 00                        	addb	%al, (%rax)
    2c5c: 01 00                        	addl	%eax, (%rax)
    2c5e: 00 00                        	addb	%al, (%rax)
    2c60: 5d                           	popq	%rbp
    2c61: 23 01                        	andl	(%rcx), %eax
    2c63: 00 00                        	addb	%al, (%rax)
    2c65: 00 00                        	addb	%al, (%rax)
    2c67: 00 b7 04 00 00 00            	addb	%dh, 4(%rdi)
    2c6d: 00 00                        	addb	%al, (%rax)
    2c6f: 00 0f                        	addb	%cl, (%rdi)
    2c71: 40 00 00                     	addb	%al, (%rax)
    2c74: 00 00                        	addb	%al, (%rax)
    2c76: 00 00                        	addb	%al, (%rax)
    2c78: 1d 23 21 00 00               	sbbl	$8483, %eax
    2c7d: 00 00                        	addb	%al, (%rax)
    2c7f: 00 bf 62 00 00 00            	addb	%bh, 98(%rdi)
    2c85: 00 00                        	addb	%al, (%rax)
    2c87: 00 57 02                     	addb	%dl, 2(%rdi)
    2c8a: 00 00                        	addb	%al, (%rax)
    2c8c: ff 00                        	incl	(%rax)
    2c8e: 00 00                        	addb	%al, (%rax)
    2c90: 71 93                        	jno	0x2c25 <entrypoint+0x2685>
    2c92: 02 00                        	addb	(%rax), %al
    2c94: 00 00                        	addb	%al, (%rax)
    2c96: 00 00                        	addb	%al, (%rax)
    2c98: b7 04                        	movb	$4, %bh
    2c9a: 00 00                        	addb	%al, (%rax)
    2c9c: 01 00                        	addl	%eax, (%rax)
    2c9e: 00 00                        	addb	%al, (%rax)
    2ca0: 5d                           	popq	%rbp
    2ca1: 23 01                        	andl	(%rcx), %eax
    2ca3: 00 00                        	addb	%al, (%rax)
    2ca5: 00 00                        	addb	%al, (%rax)
    2ca7: 00 b7 04 00 00 00            	addb	%dh, 4(%rdi)
    2cad: 00 00                        	addb	%al, (%rax)
    2caf: 00 0f                        	addb	%cl, (%rdi)
    2cb1: 40 00 00                     	addb	%al, (%rax)
    2cb4: 00 00                        	addb	%al, (%rax)
    2cb6: 00 00                        	addb	%al, (%rax)
    2cb8: 1d 23 19 00 00               	sbbl	$6435, %eax
    2cbd: 00 00                        	addb	%al, (%rax)
    2cbf: 00 bf 62 00 00 00            	addb	%bh, 98(%rdi)
    2cc5: 00 00                        	addb	%al, (%rax)
    2cc7: 00 57 02                     	addb	%dl, 2(%rdi)
    2cca: 00 00                        	addb	%al, (%rax)
    2ccc: ff 00                        	incl	(%rax)
    2cce: 00 00                        	addb	%al, (%rax)
    2cd0: 71 93                        	jno	0x2c65 <entrypoint+0x26c5>
    2cd2: 03 00                        	addl	(%rax), %eax
    2cd4: 00 00                        	addb	%al, (%rax)
    2cd6: 00 00                        	addb	%al, (%rax)
    2cd8: b7 04                        	movb	$4, %bh
    2cda: 00 00                        	addb	%al, (%rax)
    2cdc: 01 00                        	addl	%eax, (%rax)
    2cde: 00 00                        	addb	%al, (%rax)
    2ce0: 5d                           	popq	%rbp
    2ce1: 23 da                        	andl	%edx, %ebx
    2ce3: ff 00                        	incl	(%rax)
    2ce5: 00 00                        	addb	%al, (%rax)
    2ce7: 00 b7 04 00 00 00            	addb	%dh, 4(%rdi)
    2ced: 00 00                        	addb	%al, (%rax)
    2cef: 00 05 00 d8 ff 00            	addb	%al, 16766976(%rip)  # 10004f5
    2cf5: 00 00                        	addb	%al, (%rax)
    2cf7: 00 15 08 19 00 00            	addb	%dl, 6408(%rip)  # 4605 <entrypoint+0x4065>
    2cfd: 00 00                        	addb	%al, (%rax)
    2cff: 00 07                        	addb	%al, (%rdi)
    2d01: 08 00                        	orb	%al, (%rax)
    2d03: 00 ff                        	addb	%bh, %bh
    2d05: ff ff                        	<unknown>
    2d07: ff bf 92 00 00 00            	<unknown>
    2d0d: 00 00                        	addb	%al, (%rax)
    2d0f: 00 0f                        	addb	%cl, (%rdi)
    2d11: 12 00                        	adcb	(%rax), %al
    2d13: 00 00                        	addb	%al, (%rax)
    2d15: 00 00                        	addb	%al, (%rax)
    2d17: 00 07                        	addb	%al, (%rdi)
    2d19: 01 00                        	addl	%eax, (%rax)
    2d1b: 00 01                        	addb	%al, (%rcx)
    2d1d: 00 00                        	addb	%al, (%rax)
    2d1f: 00 71 23                     	addb	%dh, 35(%rcx)
    2d22: 00 00                        	addb	%al, (%rax)
    2d24: 00 00                        	addb	%al, (%rax)
    2d26: 00 00                        	addb	%al, (%rax)
    2d28: bf 64 00 00 00               	movl	$100, %edi
    2d2d: 00 00                        	addb	%al, (%rax)
    2d2f: 00 57 04                     	addb	%dl, 4(%rdi)
    2d32: 00 00                        	addb	%al, (%rax)
    2d34: ff 00                        	incl	(%rax)
    2d36: 00 00                        	addb	%al, (%rax)
    2d38: 5d                           	popq	%rbp
    2d39: 43 f7 ff                     	idivl	%r15d
    2d3c: 00 00                        	addb	%al, (%rax)
    2d3e: 00 00                        	addb	%al, (%rax)
    2d40: b7 02                        	movb	$2, %bh
    2d42: 00 00                        	addb	%al, (%rax)
    2d44: 01 00                        	addl	%eax, (%rax)
    2d46: 00 00                        	addb	%al, (%rax)
    2d48: 1d 43 01 00 00               	sbbl	$323, %eax
    2d4d: 00 00                        	addb	%al, (%rax)
    2d4f: 00 b7 02 00 00 00            	addb	%dh, 2(%rdi)
    2d55: 00 00                        	addb	%al, (%rax)
    2d57: 00 07                        	addb	%al, (%rdi)
    2d59: 02 00                        	addb	(%rax), %al
    2d5b: 00 01                        	addb	%al, (%rcx)
    2d5d: 00 00                        	addb	%al, (%rax)
    2d5f: 00 57 02                     	addb	%dl, 2(%rdi)
    2d62: 00 00                        	addb	%al, (%rax)
    2d64: 01 00                        	addl	%eax, (%rax)
    2d66: 00 00                        	addb	%al, (%rax)
    2d68: 0f 02 00                     	larl	(%rax), %eax
    2d6b: 00 00                        	addb	%al, (%rax)
    2d6d: 00 00                        	addb	%al, (%rax)
    2d6f: 00 0f                        	addb	%cl, (%rdi)
    2d71: 12 00                        	adcb	(%rax), %al
    2d73: 00 00                        	addb	%al, (%rax)
    2d75: 00 00                        	addb	%al, (%rax)
    2d77: 00 07                        	addb	%al, (%rdi)
    2d79: 02 00                        	addb	(%rax), %al
    2d7b: 00 ff                        	addb	%bh, %bh
    2d7d: ff ff                        	<unknown>
    2d7f: ff bf 20 00 00 00            	<unknown>
    2d85: 00 00                        	addb	%al, (%rax)
    2d87: 00 bf 01 00 00 00            	addb	%bh, 1(%rdi)
    2d8d: 00 00                        	addb	%al, (%rax)
    2d8f: 00 85 10 00 00 26            	addb	%al, 637534224(%rbp)
    2d95: 0a 00                        	orb	(%rax), %al
    2d97: 00 b7 01 00 00 01            	addb	%dh, 16777217(%rdi)
    2d9d: 00 00                        	addb	%al, (%rax)
    2d9f: 00 79 a2                     	addb	%bh, -94(%rcx)
    2da2: f8                           	clc
    2da3: ff 00                        	incl	(%rax)
    2da5: 00 00                        	addb	%al, (%rax)
    2da7: 00 0f                        	addb	%cl, (%rdi)
    2da9: 20 00                        	andb	%al, (%rax)
    2dab: 00 00                        	addb	%al, (%rax)
    2dad: 00 00                        	addb	%al, (%rax)
    2daf: 00 7b 07                     	addb	%bh, 7(%rbx)
    2db2: 08 00                        	orb	%al, (%rax)
    2db4: 00 00                        	addb	%al, (%rax)
    2db6: 00 00                        	addb	%al, (%rax)
    2db8: 7b 17                        	jnp	0x2dd1 <entrypoint+0x2831>
    2dba: 00 00                        	addb	%al, (%rax)
    2dbc: 00 00                        	addb	%al, (%rax)
    2dbe: 00 00                        	addb	%al, (%rax)
    2dc0: 95                           	xchgl	%ebp, %eax
    2dc1: 00 00                        	addb	%al, (%rax)
    2dc3: 00 00                        	addb	%al, (%rax)
    2dc5: 00 00                        	addb	%al, (%rax)
    2dc7: 00 0f                        	addb	%cl, (%rdi)
    2dc9: 10 00                        	adcb	%al, (%rax)
    2dcb: 00 00                        	addb	%al, (%rax)
    2dcd: 00 00                        	addb	%al, (%rax)
    2dcf: 00 b7 01 00 00 00            	addb	%dh, 1(%rdi)
    2dd5: 00 00                        	addb	%al, (%rax)
    2dd7: 00 05 00 f8 ff 00            	addb	%al, 16775168(%rip)  # 10025dd
    2ddd: 00 00                        	addb	%al, (%rax)
    2ddf: 00 bf 16 00 00 00            	addb	%bh, 22(%rdi)
    2de5: 00 00                        	addb	%al, (%rax)
    2de7: 00 79 21                     	addb	%bh, 33(%rcx)
    2dea: 00 00                        	addb	%al, (%rax)
    2dec: 00 00                        	addb	%al, (%rax)
    2dee: 00 00                        	addb	%al, (%rax)
    2df0: 79 15                        	jns	0x2e07 <entrypoint+0x2867>
    2df2: 10 00                        	adcb	%al, (%rax)
    2df4: 00 00                        	addb	%al, (%rax)
    2df6: 00 00                        	addb	%al, (%rax)
    2df8: 79 12                        	jns	0x2e0c <entrypoint+0x286c>
    2dfa: 08 00                        	orb	%al, (%rax)
    2dfc: 00 00                        	addb	%al, (%rax)
    2dfe: 00 00                        	addb	%al, (%rax)
    2e00: 1d 25 46 00 00               	sbbl	$17957, %eax
    2e05: 00 00                        	addb	%al, (%rax)
    2e07: 00 bf 23 00 00 00            	addb	%bh, 35(%rdi)
    2e0d: 00 00                        	addb	%al, (%rax)
    2e0f: 00 07                        	addb	%al, (%rdi)
    2e11: 03 00                        	addl	(%rax), %eax
    2e13: 00 01                        	addb	%al, (%rcx)
    2e15: 00 00                        	addb	%al, (%rax)
    2e17: 00 7b 31                     	addb	%bh, 49(%rbx)
    2e1a: 08 00                        	orb	%al, (%rax)
    2e1c: 00 00                        	addb	%al, (%rax)
    2e1e: 00 00                        	addb	%al, (%rax)
    2e20: 71 24                        	jno	0x2e46 <entrypoint+0x28a6>
    2e22: 00 00                        	addb	%al, (%rax)
    2e24: 00 00                        	addb	%al, (%rax)
    2e26: 00 00                        	addb	%al, (%rax)
    2e28: bf 40 00 00 00               	movl	$64, %edi
    2e2d: 00 00                        	addb	%al, (%rax)
    2e2f: 00 67 00                     	addb	%ah, (%rdi)
    2e32: 00 00                        	addb	%al, (%rax)
    2e34: 38 00                        	cmpb	%al, (%rax)
    2e36: 00 00                        	addb	%al, (%rax)
    2e38: c7 00 00 00 38 00            	movl	$3670016, (%rax)
    2e3e: 00 00                        	addb	%al, (%rax)
    2e40: 65 00 3c 00                  	addb	%bh, %gs:(%rax,%rax)
    2e44: ff ff                        	<unknown>
    2e46: ff ff                        	<unknown>
    2e48: b7 08                        	movb	$8, %bh
    2e4a: 00 00                        	addb	%al, (%rax)
    2e4c: 00 00                        	addb	%al, (%rax)
    2e4e: 00 00                        	addb	%al, (%rax)
    2e50: bf 49 00 00 00               	movl	$73, %edi
    2e55: 00 00                        	addb	%al, (%rax)
    2e57: 00 57 09                     	addb	%dl, 9(%rdi)
    2e5a: 00 00                        	addb	%al, (%rax)
    2e5c: 1f                           	<unknown>
    2e5d: 00 00                        	addb	%al, (%rax)
    2e5f: 00 bf 57 00 00 00            	addb	%bh, 87(%rdi)
    2e65: 00 00                        	addb	%al, (%rax)
    2e67: 00 1d 53 06 00 00            	addb	%bl, 1619(%rip)  # 34c0 <entrypoint+0x2f20>
    2e6d: 00 00                        	addb	%al, (%rax)
    2e6f: 00 bf 23 00 00 00            	addb	%bh, 35(%rdi)
    2e75: 00 00                        	addb	%al, (%rax)
    2e77: 00 07                        	addb	%al, (%rdi)
    2e79: 03 00                        	addl	(%rax), %eax
    2e7b: 00 02                        	addb	%al, (%rdx)
    2e7d: 00 00                        	addb	%al, (%rax)
    2e7f: 00 7b 31                     	addb	%bh, 49(%rbx)
    2e82: 08 00                        	orb	%al, (%rax)
    2e84: 00 00                        	addb	%al, (%rax)
    2e86: 00 00                        	addb	%al, (%rax)
    2e88: 71 28                        	jno	0x2eb2 <entrypoint+0x2912>
    2e8a: 01 00                        	addl	%eax, (%rax)
    2e8c: 00 00                        	addb	%al, (%rax)
    2e8e: 00 00                        	addb	%al, (%rax)
    2e90: 57                           	pushq	%rdi
    2e91: 08 00                        	orb	%al, (%rax)
    2e93: 00 3f                        	addb	%bh, (%rdi)
    2e95: 00 00                        	addb	%al, (%rax)
    2e97: 00 bf 37 00 00 00            	addb	%bh, 55(%rdi)
    2e9d: 00 00                        	addb	%al, (%rax)
    2e9f: 00 7b 7a                     	addb	%bh, 122(%rbx)
    2ea2: f8                           	clc
    2ea3: ff 00                        	incl	(%rax)
    2ea5: 00 00                        	addb	%al, (%rax)
    2ea7: 00 bf 97 00 00 00            	addb	%bh, 151(%rdi)
    2ead: 00 00                        	addb	%al, (%rax)
    2eaf: 00 67 07                     	addb	%ah, 7(%rdi)
    2eb2: 00 00                        	addb	%al, (%rax)
    2eb4: 06                           	<unknown>
    2eb5: 00 00                        	addb	%al, (%rax)
    2eb7: 00 bf 80 00 00 00            	addb	%bh, 128(%rdi)
    2ebd: 00 00                        	addb	%al, (%rax)
    2ebf: 00 4f 70                     	addb	%cl, 112(%rdi)
    2ec2: 00 00                        	addb	%al, (%rax)
    2ec4: 00 00                        	addb	%al, (%rax)
    2ec6: 00 00                        	addb	%al, (%rax)
    2ec8: 25 04 01 00 df               	andl	$3741319428, %eax
    2ecd: 00 00                        	addb	%al, (%rax)
    2ecf: 00 05 00 24 00 00            	addb	%al, 9216(%rip)  # 52d5 <entrypoint+0x4d35>
    2ed5: 00 00                        	addb	%al, (%rax)
    2ed7: 00 7b 9a                     	addb	%bh, -102(%rbx)
    2eda: f0                           	lock
    2edb: ff 00                        	incl	(%rax)
    2edd: 00 00                        	addb	%al, (%rax)
    2edf: 00 b7 07 00 00 00            	addb	%dh, 7(%rdi)
    2ee5: 00 00                        	addb	%al, (%rax)
    2ee7: 00 bf 50 00 00 00            	addb	%bh, 80(%rdi)
    2eed: 00 00                        	addb	%al, (%rax)
    2eef: 00 79 a9                     	addb	%bh, -87(%rcx)
    2ef2: f8                           	clc
    2ef3: ff 00                        	incl	(%rax)
    2ef5: 00 00                        	addb	%al, (%rax)
    2ef7: 00 1d 59 06 00 00            	addb	%bl, 1625(%rip)  # 3556 <entrypoint+0x2fb6>
    2efd: 00 00                        	addb	%al, (%rax)
    2eff: 00 bf 93 00 00 00            	addb	%bh, 147(%rdi)
    2f05: 00 00                        	addb	%al, (%rax)
    2f07: 00 07                        	addb	%al, (%rdi)
    2f09: 03 00                        	addl	(%rax), %eax
    2f0b: 00 01                        	addb	%al, (%rcx)
    2f0d: 00 00                        	addb	%al, (%rax)
    2f0f: 00 7b 31                     	addb	%bh, 49(%rbx)
    2f12: 08 00                        	orb	%al, (%rax)
    2f14: 00 00                        	addb	%al, (%rax)
    2f16: 00 00                        	addb	%al, (%rax)
    2f18: 71 97                        	jno	0x2eb1 <entrypoint+0x2911>
    2f1a: 00 00                        	addb	%al, (%rax)
    2f1c: 00 00                        	addb	%al, (%rax)
    2f1e: 00 00                        	addb	%al, (%rax)
    2f20: 57                           	pushq	%rdi
    2f21: 07                           	<unknown>
    2f22: 00 00                        	addb	%al, (%rax)
    2f24: 3f                           	<unknown>
    2f25: 00 00                        	addb	%al, (%rax)
    2f27: 00 bf 30 00 00 00            	addb	%bh, 48(%rdi)
    2f2d: 00 00                        	addb	%al, (%rax)
    2f2f: 00 bf 09 00 00 00            	addb	%bh, 9(%rdi)
    2f35: 00 00                        	addb	%al, (%rax)
    2f37: 00 67 08                     	addb	%ah, 8(%rdi)
    2f3a: 00 00                        	addb	%al, (%rax)
    2f3c: 06                           	<unknown>
    2f3d: 00 00                        	addb	%al, (%rax)
    2f3f: 00 4f 87                     	addb	%cl, -121(%rdi)
    2f42: 00 00                        	addb	%al, (%rax)
    2f44: 00 00                        	addb	%al, (%rax)
    2f46: 00 00                        	addb	%al, (%rax)
    2f48: 79 a8                        	jns	0x2ef2 <entrypoint+0x2952>
    2f4a: f0                           	lock
    2f4b: ff 00                        	incl	(%rax)
    2f4d: 00 00                        	addb	%al, (%rax)
    2f4f: 00 67 08                     	addb	%ah, 8(%rdi)
    2f52: 00 00                        	addb	%al, (%rax)
    2f54: 0c 00                        	orb	$0, %al
    2f56: 00 00                        	addb	%al, (%rax)
    2f58: bf 70 00 00 00               	movl	$112, %edi
    2f5d: 00 00                        	addb	%al, (%rax)
    2f5f: 00 4f 80                     	addb	%cl, -128(%rdi)
    2f62: 00 00                        	addb	%al, (%rax)
    2f64: 00 00                        	addb	%al, (%rax)
    2f66: 00 00                        	addb	%al, (%rax)
    2f68: b7 08                        	movb	$8, %bh
    2f6a: 00 00                        	addb	%al, (%rax)
    2f6c: f0                           	lock
    2f6d: 00 00                        	addb	%al, (%rax)
    2f6f: 00 2d 48 10 00 00            	addb	%ch, 4168(%rip)  # 3fbd <entrypoint+0x3a1d>
    2f75: 00 00                        	addb	%al, (%rax)
    2f77: 00 b7 04 00 00 00            	addb	%dh, 4(%rdi)
    2f7d: 00 00                        	addb	%al, (%rax)
    2f7f: 00 1d 59 05 00 00            	addb	%bl, 1369(%rip)  # 34de <entrypoint+0x2f3e>
    2f85: 00 00                        	addb	%al, (%rax)
    2f87: 00 bf 93 00 00 00            	addb	%bh, 147(%rdi)
    2f8d: 00 00                        	addb	%al, (%rax)
    2f8f: 00 07                        	addb	%al, (%rdi)
    2f91: 03 00                        	addl	(%rax), %eax
    2f93: 00 01                        	addb	%al, (%rcx)
    2f95: 00 00                        	addb	%al, (%rax)
    2f97: 00 7b 31                     	addb	%bh, 49(%rbx)
    2f9a: 08 00                        	orb	%al, (%rax)
    2f9c: 00 00                        	addb	%al, (%rax)
    2f9e: 00 00                        	addb	%al, (%rax)
    2fa0: 71 94                        	jno	0x2f36 <entrypoint+0x2996>
    2fa2: 00 00                        	addb	%al, (%rax)
    2fa4: 00 00                        	addb	%al, (%rax)
    2fa6: 00 00                        	addb	%al, (%rax)
    2fa8: 57                           	pushq	%rdi
    2fa9: 04 00                        	addb	$0, %al
    2fab: 00 3f                        	addb	%bh, (%rdi)
    2fad: 00 00                        	addb	%al, (%rax)
    2faf: 00 67 07                     	addb	%ah, 7(%rdi)
    2fb2: 00 00                        	addb	%al, (%rax)
    2fb4: 06                           	<unknown>
    2fb5: 00 00                        	addb	%al, (%rax)
    2fb7: 00 79 a9                     	addb	%bh, -87(%rcx)
    2fba: f0                           	lock
    2fbb: ff 00                        	incl	(%rax)
    2fbd: 00 00                        	addb	%al, (%rax)
    2fbf: 00 67 09                     	addb	%ah, 9(%rdi)
    2fc2: 00 00                        	addb	%al, (%rax)
    2fc4: 12 00                        	adcb	(%rax), %al
    2fc6: 00 00                        	addb	%al, (%rax)
    2fc8: 57                           	pushq	%rdi
    2fc9: 09 00                        	orl	%eax, (%rax)
    2fcb: 00 00                        	addb	%al, (%rax)
    2fcd: 00 1c 00                     	addb	%bl, (%rax,%rax)
    2fd0: 4f 97                        	xchgq	%r15, %rax
    2fd2: 00 00                        	addb	%al, (%rax)
    2fd4: 00 00                        	addb	%al, (%rax)
    2fd6: 00 00                        	addb	%al, (%rax)
    2fd8: 4f 47                        	<unknown>
    2fda: 00 00                        	addb	%al, (%rax)
    2fdc: 00 00                        	addb	%al, (%rax)
    2fde: 00 00                        	addb	%al, (%rax)
    2fe0: b7 05                        	movb	$5, %bh
    2fe2: 00 00                        	addb	%al, (%rax)
    2fe4: 00 00                        	addb	%al, (%rax)
    2fe6: 11 00                        	adcl	%eax, (%rax)
    2fe8: bf 70 00 00 00               	movl	$112, %edi
    2fed: 00 00                        	addb	%al, (%rax)
    2fef: 00 15 07 0a 00 00            	addb	%dl, 2567(%rip)  # 39fc <entrypoint+0x345c>
    2ff5: 00 11                        	addb	%dl, (%rcx)
    2ff7: 00 1f                        	addb	%bl, (%rdi)
    2ff9: 23 00                        	andl	(%rax), %eax
    2ffb: 00 00                        	addb	%al, (%rax)
    2ffd: 00 00                        	addb	%al, (%rax)
    2fff: 00 79 14                     	addb	%bh, 20(%rcx)
    3002: 00 00                        	addb	%al, (%rax)
    3004: 00 00                        	addb	%al, (%rax)
    3006: 00 00                        	addb	%al, (%rax)
    3008: 0f 43 00                     	cmovael	(%rax), %eax
    300b: 00 00                        	addb	%al, (%rax)
    300d: 00 00                        	addb	%al, (%rax)
    300f: 00 7b 31                     	addb	%bh, 49(%rbx)
    3012: 00 00                        	addb	%al, (%rax)
    3014: 00 00                        	addb	%al, (%rax)
    3016: 00 00                        	addb	%al, (%rax)
    3018: bf 05 00 00 00               	movl	$5, %edi
    301d: 00 00                        	addb	%al, (%rax)
    301f: 00 05 00 04 00 00            	addb	%al, 1024(%rip)  # 3425 <entrypoint+0x2e85>
    3025: 00 00                        	addb	%al, (%rax)
    3027: 00 bf 40 00 00 00            	addb	%bh, 64(%rdi)
    302d: 00 00                        	addb	%al, (%rax)
    302f: 00 05 00 f8 ff 00            	addb	%al, 16775168(%rip)  # 1002835
    3035: 00 00                        	addb	%al, (%rax)
    3037: 00 85 10 00 00 d3            	addb	%al, -754974704(%rbp)
    303d: 09 00                        	orl	%eax, (%rax)
    303f: 00 b7 05 00 00 00            	addb	%dh, 5(%rdi)
    3045: 00 11                        	addb	%dl, (%rcx)
    3047: 00 63 56                     	addb	%ah, 86(%rbx)
    304a: 08 00                        	orb	%al, (%rax)
    304c: 00 00                        	addb	%al, (%rax)
    304e: 00 00                        	addb	%al, (%rax)
    3050: 7b 46                        	jnp	0x3098 <entrypoint+0x2af8>
    3052: 00 00                        	addb	%al, (%rax)
    3054: 00 00                        	addb	%al, (%rax)
    3056: 00 00                        	addb	%al, (%rax)
    3058: 95                           	xchgl	%ebp, %eax
    3059: 00 00                        	addb	%al, (%rax)
    305b: 00 00                        	addb	%al, (%rax)
    305d: 00 00                        	addb	%al, (%rax)
    305f: 00 bf 10 00 00 00            	addb	%bh, 16(%rdi)
    3065: 00 00                        	addb	%al, (%rax)
    3067: 00 95 00 00 00 00            	addb	%dl, (%rbp)
    306d: 00 00                        	addb	%al, (%rax)
    306f: 00 7b 4a                     	addb	%bh, 74(%rbx)
    3072: 38 ff                        	cmpb	%bh, %bh
    3074: 00 00                        	addb	%al, (%rax)
    3076: 00 00                        	addb	%al, (%rax)
    3078: 7b 3a                        	jnp	0x30b4 <entrypoint+0x2b14>
    307a: 30 ff                        	xorb	%bh, %bh
    307c: 00 00                        	addb	%al, (%rax)
    307e: 00 00                        	addb	%al, (%rax)
    3080: b7 00                        	movb	$0, %bh
    3082: 00 00                        	addb	%al, (%rax)
    3084: 01 00                        	addl	%eax, (%rax)
    3086: 00 00                        	addb	%al, (%rax)
    3088: b7 06                        	movb	$6, %bh
    308a: 00 00                        	addb	%al, (%rax)
    308c: 01 01                        	addl	%eax, (%rcx)
    308e: 00 00                        	addb	%al, (%rax)
    3090: bf 25 00 00 00               	movl	$37, %edi
    3095: 00 00                        	addb	%al, (%rax)
    3097: 00 2d 26 18 00 00            	addb	%ch, 6182(%rip)  # 48c3 <entrypoint+0x4323>
    309d: 00 00                        	addb	%al, (%rax)
    309f: 00 b7 05 00 00 00            	addb	%dh, 5(%rdi)
    30a5: 00 00                        	addb	%al, (%rax)
    30a7: 00 bf 10 00 00 00            	addb	%bh, 16(%rdi)
    30ad: 00 00                        	addb	%al, (%rax)
    30af: 00 07                        	addb	%al, (%rdi)
    30b1: 00 00                        	addb	%al, (%rax)
    30b3: 00 00                        	addb	%al, (%rax)
    30b5: 01 00                        	addl	%eax, (%rax)
    30b7: 00 bf 26 00 00 00            	addb	%bh, 38(%rdi)
    30bd: 00 00                        	addb	%al, (%rax)
    30bf: 00 07                        	addb	%al, (%rdi)
    30c1: 06                           	<unknown>
    30c2: 00 00                        	addb	%al, (%rax)
    30c4: 01 ff                        	addl	%edi, %edi
    30c6: ff ff                        	<unknown>
    30c8: bf 57 00 00 00               	movl	$87, %edi
    30cd: 00 00                        	addb	%al, (%rax)
    30cf: 00 07                        	addb	%al, (%rdi)
    30d1: 05 00 00 00 01               	addl	$16777216, %eax
    30d6: 00 00                        	addb	%al, (%rax)
    30d8: 3d 25 06 00 00               	cmpl	$1573, %eax
    30dd: 00 00                        	addb	%al, (%rax)
    30df: 00 bf 05 00 00 00            	addb	%bh, 5(%rdi)
    30e5: 00 00                        	addb	%al, (%rax)
    30e7: 00 0f                        	addb	%cl, (%rdi)
    30e9: 75 00                        	jne	0x30eb <entrypoint+0x2b4b>
    30eb: 00 00                        	addb	%al, (%rax)
    30ed: 00 00                        	addb	%al, (%rax)
    30ef: 00 71 55                     	addb	%dh, 85(%rcx)
    30f2: 00 00                        	addb	%al, (%rax)
    30f4: 00 00                        	addb	%al, (%rax)
    30f6: 00 00                        	addb	%al, (%rax)
    30f8: 67 05 00 00 38 00            	addl	$3670016, %eax
    30fe: 00 00                        	addb	%al, (%rax)
    3100: c7 05 00 00 38 00 00 00 65 05	movl	$90505216, 3670016(%rip)  # 38310a
    310a: 07                           	<unknown>
    310b: 00 bf ff ff ff bf            	addb	%bh, -1073741825(%rdi)
    3111: 75 00                        	jne	0x3113 <entrypoint+0x2b73>
    3113: 00 00                        	addb	%al, (%rax)
    3115: 00 00                        	addb	%al, (%rax)
    3117: 00 07                        	addb	%al, (%rdi)
    3119: 05 00 00 ff ff               	addl	$4294901760, %eax
    311e: ff ff                        	<unknown>
    3120: 15 07 01 00 01               	adcl	$16777479, %eax
    3125: ff ff                        	<unknown>
    3127: ff 5d 76                     	lcalll	*118(%rbp)
    312a: f3 ff 00                     	rep		incl	(%rax)
    312d: 00 00                        	addb	%al, (%rax)
    312f: 00 b7 00 00 00 00            	addb	%dh, (%rdi)
    3135: 00 00                        	addb	%al, (%rax)
    3137: 00 07                        	addb	%al, (%rdi)
    3139: 05 00 00 00 01               	addl	$16777216, %eax
    313e: 00 00                        	addb	%al, (%rax)
    3140: 05 00 03 00 00               	addl	$768, %eax
    3145: 00 00                        	addb	%al, (%rax)
    3147: 00 b7 00 00 00 00            	addb	%dh, (%rdi)
    314d: 00 00                        	addb	%al, (%rax)
    314f: 00 07                        	addb	%al, (%rdi)
    3151: 07                           	<unknown>
    3152: 00 00                        	addb	%al, (%rax)
    3154: 00 01                        	addb	%al, (%rcx)
    3156: 00 00                        	addb	%al, (%rax)
    3158: bf 75 00 00 00               	movl	$117, %edi
    315d: 00 00                        	addb	%al, (%rax)
    315f: 00 18                        	addb	%bl, (%rax)
    3161: 06                           	<unknown>
    3162: 00 00                        	addb	%al, (%rax)
    3164: b9 8a 00 00 00               	movl	$138, %ecx
    3169: 00 00                        	addb	%al, (%rax)
    316b: 00 00                        	addb	%al, (%rax)
    316d: 00 00                        	addb	%al, (%rax)
    316f: 00 55 00                     	addb	%dl, (%rbp)
    3172: 02 00                        	addb	(%rax), %al
    3174: 00 00                        	addb	%al, (%rax)
    3176: 00 00                        	addb	%al, (%rax)
    3178: 18 06                        	sbbb	%al, (%rsi)
    317a: 00 00                        	addb	%al, (%rax)
    317c: b4 8a                        	movb	$-118, %ah
		...
    3186: 00 00                        	addb	%al, (%rax)
    3188: b7 07                        	movb	$7, %bh
    318a: 00 00                        	addb	%al, (%rax)
    318c: 00 00                        	addb	%al, (%rax)
    318e: 00 00                        	addb	%al, (%rax)
    3190: 55                           	pushq	%rbp
    3191: 00 01                        	addb	%al, (%rcx)
    3193: 00 00                        	addb	%al, (%rax)
    3195: 00 00                        	addb	%al, (%rax)
    3197: 00 b7 07 00 00 05            	addb	%dh, 83886087(%rdi)
    319d: 00 00                        	addb	%al, (%rax)
    319f: 00 7b 5a                     	addb	%bh, 90(%rbx)
    31a2: 48 ff 00                     	incq	(%rax)
    31a5: 00 00                        	addb	%al, (%rax)
    31a7: 00 7b 1a                     	addb	%bh, 26(%rbx)
    31aa: 40 ff 00                     	incl	(%rax)
    31ad: 00 00                        	addb	%al, (%rax)
    31af: 00 7b 7a                     	addb	%bh, 122(%rbx)
    31b2: 58                           	popq	%rax
    31b3: ff 00                        	incl	(%rax)
    31b5: 00 00                        	addb	%al, (%rax)
    31b7: 00 7b 6a                     	addb	%bh, 106(%rbx)
    31ba: 50                           	pushq	%rax
    31bb: ff 00                        	incl	(%rax)
    31bd: 00 00                        	addb	%al, (%rax)
    31bf: 00 2d 23 bc 00 00            	addb	%ch, 48163(%rip)  # ede8
    31c5: 00 00                        	addb	%al, (%rax)
    31c7: 00 2d 24 bb 00 00            	addb	%ch, 47908(%rip)  # ecf1
    31cd: 00 00                        	addb	%al, (%rax)
    31cf: 00 2d 43 ef 00 00            	addb	%ch, 61251(%rip)  # 12118
    31d5: 00 00                        	addb	%al, (%rax)
    31d7: 00 15 03 09 00 00            	addb	%dl, 2307(%rip)  # 3ae0 <entrypoint+0x3540>
    31dd: 00 00                        	addb	%al, (%rax)
    31df: 00 1d 32 08 00 00            	addb	%bl, 2098(%rip)  # 3a17 <entrypoint+0x3477>
    31e5: 00 00                        	addb	%al, (%rax)
    31e7: 00 3d 23 08 00 00            	addb	%bh, 2083(%rip)  # 3a10 <entrypoint+0x3470>
    31ed: 00 00                        	addb	%al, (%rax)
    31ef: 00 bf 15 00 00 00            	addb	%bh, 21(%rdi)
    31f5: 00 00                        	addb	%al, (%rax)
    31f7: 00 0f                        	addb	%cl, (%rdi)
    31f9: 35 00 00 00 00               	xorl	$0, %eax
    31fe: 00 00                        	addb	%al, (%rax)
    3200: 71 55                        	jno	0x3257 <entrypoint+0x2cb7>
    3202: 00 00                        	addb	%al, (%rax)
    3204: 00 00                        	addb	%al, (%rax)
    3206: 00 00                        	addb	%al, (%rax)
    3208: 67 05 00 00 38 00            	addl	$3670016, %eax
    320e: 00 00                        	addb	%al, (%rax)
    3210: c7 05 00 00 38 00 00 00 b7 00	movl	$11993088, 3670016(%rip)  # 38321a
    321a: 00 00                        	addb	%al, (%rax)
    321c: c0 ff ff                     	sarb	$255, %bh
    321f: ff 6d 50                     	ljmpl	*80(%rbp)
    3222: 01 00                        	addl	%eax, (%rax)
    3224: 00 00                        	addb	%al, (%rax)
    3226: 00 00                        	addb	%al, (%rax)
    3228: bf 43 00 00 00               	movl	$67, %edi
    322d: 00 00                        	addb	%al, (%rax)
    322f: 00 7b 3a                     	addb	%bh, 58(%rbx)
    3232: 60                           	<unknown>
    3233: ff 00                        	incl	(%rax)
    3235: 00 00                        	addb	%al, (%rax)
    3237: 00 15 03 12 00 00            	addb	%dl, 4611(%rip)  # 4440 <entrypoint+0x3ea0>
    323d: 00 00                        	addb	%al, (%rax)
    323f: 00 1d 23 11 00 00            	addb	%bl, 4387(%rip)  # 4368 <entrypoint+0x3dc8>
    3245: 00 00                        	addb	%al, (%rax)
    3247: 00 bf 24 00 00 00            	addb	%bh, 36(%rdi)
    324d: 00 00                        	addb	%al, (%rax)
    324f: 00 07                        	addb	%al, (%rdi)
    3251: 04 00                        	addb	$0, %al
    3253: 00 01                        	addb	%al, (%rcx)
    3255: 00 00                        	addb	%al, (%rax)
    3257: 00 b7 05 00 00 c0            	addb	%dh, -1073741819(%rdi)
    325d: ff ff                        	<unknown>
    325f: ff 05 00 04 00 00            	incl	1024(%rip)  # 3665 <entrypoint+0x30c5>
    3265: 00 00                        	addb	%al, (%rax)
    3267: 00 bf 03 00 00 00            	addb	%bh, 3(%rdi)
    326d: 00 00                        	addb	%al, (%rax)
    326f: 00 07                        	addb	%al, (%rdi)
    3271: 03 00                        	addl	(%rax), %eax
    3273: 00 ff                        	addb	%bh, %bh
    3275: ff ff                        	<unknown>
    3277: ff 15 00 0a 00 01            	callq	*16779776(%rip)  # 1003c7d
    327d: 00 00                        	addb	%al, (%rax)
    327f: 00 1d 04 09 00 00            	addb	%bl, 2308(%rip)  # 3b89 <entrypoint+0x35e9>
    3285: 00 00                        	addb	%al, (%rax)
    3287: 00 bf 30 00 00 00            	addb	%bh, 48(%rdi)
    328d: 00 00                        	addb	%al, (%rax)
    328f: 00 3d 20 fa ff 00            	addb	%bh, 16775712(%rip)  # 1002cb5
    3295: 00 00                        	addb	%al, (%rax)
    3297: 00 bf 13 00 00 00            	addb	%bh, 19(%rdi)
    329d: 00 00                        	addb	%al, (%rax)
    329f: 00 0f                        	addb	%cl, (%rdi)
    32a1: 03 00                        	addl	(%rax), %eax
    32a3: 00 00                        	addb	%al, (%rax)
    32a5: 00 00                        	addb	%al, (%rax)
    32a7: 00 71 36                     	addb	%dh, 54(%rcx)
    32aa: 00 00                        	addb	%al, (%rax)
    32ac: 00 00                        	addb	%al, (%rax)
    32ae: 00 00                        	addb	%al, (%rax)
    32b0: 67 06                        	<unknown>
    32b2: 00 00                        	addb	%al, (%rax)
    32b4: 38 00                        	cmpb	%al, (%rax)
    32b6: 00 00                        	addb	%al, (%rax)
    32b8: c7 06 00 00 38 00            	movl	$3670016, (%rsi)
    32be: 00 00                        	addb	%al, (%rax)
    32c0: bf 03 00 00 00               	movl	$3, %edi
    32c5: 00 00                        	addb	%al, (%rax)
    32c7: 00 6d 65                     	addb	%ch, 101(%rbp)
    32ca: f3 ff 00                     	rep		incl	(%rax)
    32cd: 00 00                        	addb	%al, (%rax)
    32cf: 00 1d 23 37 00 00            	addb	%bl, 14115(%rip)  # 69f8 <entrypoint+0x6458>
    32d5: 00 00                        	addb	%al, (%rax)
    32d7: 00 bf 15 00 00 00            	addb	%bh, 21(%rdi)
    32dd: 00 00                        	addb	%al, (%rax)
    32df: 00 0f                        	addb	%cl, (%rdi)
    32e1: 35 00 00 00 00               	xorl	$0, %eax
    32e6: 00 00                        	addb	%al, (%rax)
    32e8: 71 54                        	jno	0x333e <entrypoint+0x2d9e>
    32ea: 00 00                        	addb	%al, (%rax)
    32ec: 00 00                        	addb	%al, (%rax)
    32ee: 00 00                        	addb	%al, (%rax)
    32f0: bf 40 00 00 00               	movl	$64, %edi
    32f5: 00 00                        	addb	%al, (%rax)
    32f7: 00 67 00                     	addb	%ah, (%rdi)
    32fa: 00 00                        	addb	%al, (%rax)
    32fc: 38 00                        	cmpb	%al, (%rax)
    32fe: 00 00                        	addb	%al, (%rax)
    3300: c7 00 00 00 38 00            	movl	$3670016, (%rax)
    3306: 00 00                        	addb	%al, (%rax)
    3308: 65 00 32                     	addb	%dh, %gs:(%rdx)
    330b: 00 ff                        	addb	%bh, %bh
    330d: ff ff                        	<unknown>
    330f: ff 0f                        	decl	(%rdi)
    3311: 21 00                        	andl	%eax, (%rax)
    3313: 00 00                        	addb	%al, (%rax)
    3315: 00 00                        	addb	%al, (%rax)
    3317: 00 bf 56 00 00 00            	addb	%bh, 86(%rdi)
    331d: 00 00                        	addb	%al, (%rax)
    331f: 00 07                        	addb	%al, (%rdi)
    3321: 06                           	<unknown>
    3322: 00 00                        	addb	%al, (%rax)
    3324: 01 00                        	addl	%eax, (%rax)
    3326: 00 00                        	addb	%al, (%rax)
    3328: b7 00                        	movb	$0, %bh
    332a: 00 00                        	addb	%al, (%rax)
    332c: 00 00                        	addb	%al, (%rax)
    332e: 00 00                        	addb	%al, (%rax)
    3330: bf 42 00 00 00               	movl	$66, %edi
    3335: 00 00                        	addb	%al, (%rax)
    3337: 00 57 02                     	addb	%dl, 2(%rdi)
    333a: 00 00                        	addb	%al, (%rax)
    333c: 1f                           	<unknown>
    333d: 00 00                        	addb	%al, (%rax)
    333f: 00 bf 17 00 00 00            	addb	%bh, 23(%rdi)
    3345: 00 00                        	addb	%al, (%rax)
    3347: 00 1d 16 04 00 00            	addb	%bl, 1046(%rip)  # 3763 <entrypoint+0x31c3>
    334d: 00 00                        	addb	%al, (%rax)
    334f: 00 71 50                     	addb	%dh, 80(%rcx)
    3352: 01 00                        	addl	%eax, (%rax)
    3354: 00 00                        	addb	%al, (%rax)
    3356: 00 00                        	addb	%al, (%rax)
    3358: 07                           	<unknown>
    3359: 05 00 00 02 00               	addl	$131072, %eax
    335e: 00 00                        	addb	%al, (%rax)
    3360: 57                           	pushq	%rdi
    3361: 00 00                        	addb	%al, (%rax)
    3363: 00 3f                        	addb	%bh, (%rdi)
    3365: 00 00                        	addb	%al, (%rax)
    3367: 00 bf 57 00 00 00            	addb	%bh, 87(%rdi)
    336d: 00 00                        	addb	%al, (%rax)
    336f: 00 bf 25 00 00 00            	addb	%bh, 37(%rdi)
    3375: 00 00                        	addb	%al, (%rax)
    3377: 00 67 05                     	addb	%ah, 5(%rdi)
    337a: 00 00                        	addb	%al, (%rax)
    337c: 06                           	<unknown>
    337d: 00 00                        	addb	%al, (%rax)
    337f: 00 bf 06 00 00 00            	addb	%bh, 6(%rdi)
    3385: 00 00                        	addb	%al, (%rax)
    3387: 00 4f 56                     	addb	%cl, 86(%rdi)
    338a: 00 00                        	addb	%al, (%rax)
    338c: 00 00                        	addb	%al, (%rax)
    338e: 00 00                        	addb	%al, (%rax)
    3390: 25 04 01 00 df               	andl	$3741319428, %eax
    3395: 00 00                        	addb	%al, (%rax)
    3397: 00 05 00 23 00 00            	addb	%al, 8960(%rip)  # 569d <entrypoint+0x50fd>
    339d: 00 00                        	addb	%al, (%rax)
    339f: 00 b7 05 00 00 00            	addb	%dh, 5(%rdi)
    33a5: 00 00                        	addb	%al, (%rax)
    33a7: 00 bf 18 00 00 00            	addb	%bh, 24(%rdi)
    33ad: 00 00                        	addb	%al, (%rax)
    33af: 00 1d 17 04 00 00            	addb	%bl, 1047(%rip)  # 37cc <entrypoint+0x322c>
    33b5: 00 00                        	addb	%al, (%rax)
    33b7: 00 71 75                     	addb	%dh, 117(%rcx)
    33ba: 00 00                        	addb	%al, (%rax)
    33bc: 00 00                        	addb	%al, (%rax)
    33be: 00 00                        	addb	%al, (%rax)
    33c0: 07                           	<unknown>
    33c1: 07                           	<unknown>
    33c2: 00 00                        	addb	%al, (%rax)
    33c4: 01 00                        	addl	%eax, (%rax)
    33c6: 00 00                        	addb	%al, (%rax)
    33c8: 57                           	pushq	%rdi
    33c9: 05 00 00 3f 00               	addl	$4128768, %eax
    33ce: 00 00                        	addb	%al, (%rax)
    33d0: bf 78 00 00 00               	movl	$120, %edi
    33d5: 00 00                        	addb	%al, (%rax)
    33d7: 00 67 00                     	addb	%ah, (%rdi)
    33da: 00 00                        	addb	%al, (%rax)
    33dc: 06                           	<unknown>
    33dd: 00 00                        	addb	%al, (%rax)
    33df: 00 4f 05                     	addb	%cl, 5(%rdi)
    33e2: 00 00                        	addb	%al, (%rax)
    33e4: 00 00                        	addb	%al, (%rax)
    33e6: 00 00                        	addb	%al, (%rax)
    33e8: bf 20 00 00 00               	movl	$32, %edi
    33ed: 00 00                        	addb	%al, (%rax)
    33ef: 00 67 00                     	addb	%ah, (%rdi)
    33f2: 00 00                        	addb	%al, (%rax)
    33f4: 0c 00                        	orb	$0, %al
    33f6: 00 00                        	addb	%al, (%rax)
    33f8: bf 56 00 00 00               	movl	$86, %edi
    33fd: 00 00                        	addb	%al, (%rax)
    33ff: 00 4f 06                     	addb	%cl, 6(%rdi)
    3402: 00 00                        	addb	%al, (%rax)
    3404: 00 00                        	addb	%al, (%rax)
    3406: 00 00                        	addb	%al, (%rax)
    3408: b7 00                        	movb	$0, %bh
    340a: 00 00                        	addb	%al, (%rax)
    340c: f0                           	lock
    340d: 00 00                        	addb	%al, (%rax)
    340f: 00 2d 40 14 00 00            	addb	%ch, 5184(%rip)  # 4855 <entrypoint+0x42b5>
    3415: 00 00                        	addb	%al, (%rax)
    3417: 00 b7 04 00 00 00            	addb	%dh, 4(%rdi)
    341d: 00 00                        	addb	%al, (%rax)
    341f: 00 1d 18 02 00 00            	addb	%bl, 536(%rip)  # 363d <entrypoint+0x309d>
    3425: 00 00                        	addb	%al, (%rax)
    3427: 00 71 84                     	addb	%dh, -124(%rcx)
    342a: 00 00                        	addb	%al, (%rax)
    342c: 00 00                        	addb	%al, (%rax)
    342e: 00 00                        	addb	%al, (%rax)
    3430: 57                           	pushq	%rdi
    3431: 04 00                        	addb	$0, %al
    3433: 00 3f                        	addb	%bh, (%rdi)
    3435: 00 00                        	addb	%al, (%rax)
    3437: 00 67 05                     	addb	%ah, 5(%rdi)
    343a: 00 00                        	addb	%al, (%rax)
    343c: 06                           	<unknown>
    343d: 00 00                        	addb	%al, (%rax)
    343f: 00 67 02                     	addb	%ah, 2(%rdi)
    3442: 00 00                        	addb	%al, (%rax)
    3444: 12 00                        	adcb	(%rax), %al
    3446: 00 00                        	addb	%al, (%rax)
    3448: 57                           	pushq	%rdi
    3449: 02 00                        	addb	(%rax), %al
    344b: 00 00                        	addb	%al, (%rax)
    344d: 00 1c 00                     	addb	%bl, (%rax,%rax)
    3450: 4f 25 00 00 00 00            	andq	$0, %rax
    3456: 00 00                        	addb	%al, (%rax)
    3458: 4f 45                        	<unknown>
    345a: 00 00                        	addb	%al, (%rax)
    345c: 00 00                        	addb	%al, (%rax)
    345e: 00 00                        	addb	%al, (%rax)
    3460: bf 56 00 00 00               	movl	$86, %edi
    3465: 00 00                        	addb	%al, (%rax)
    3467: 00 55 05                     	addb	%dl, 5(%rbp)
    346a: 09 00                        	orl	%eax, (%rax)
    346c: 00 00                        	addb	%al, (%rax)
    346e: 11 00                        	adcl	%eax, (%rax)
    3470: 18 01                        	sbbb	%al, (%rcx)
    3472: 00 00                        	addb	%al, (%rax)
    3474: d0 9b 00 00 00 00            	rcrb	(%rbx)
    347a: 00 00                        	addb	%al, (%rax)
    347c: 00 00                        	addb	%al, (%rax)
    347e: 00 00                        	addb	%al, (%rax)
    3480: 85 10                        	testl	%edx, (%rax)
    3482: 00 00                        	addb	%al, (%rax)
    3484: 4b 09 00                     	orq	%rax, (%r8)
    3487: 00 85 10 00 00 ff            	addb	%al, -16777200(%rbp)
    348d: ff ff                        	<unknown>
    348f: ff 85 10 00 00 48            	incl	1207959568(%rbp)
    3495: 09 00                        	orl	%eax, (%rax)
    3497: 00 05 00 fa ff 00            	addb	%al, 16775680(%rip)  # 1002e9d
    349d: 00 00                        	addb	%al, (%rax)
    349f: 00 63 4a                     	addb	%ah, 74(%rbx)
    34a2: 6c                           	insb	%dx, %es:(%rdi)
    34a3: ff 00                        	incl	(%rax)
    34a5: 00 00                        	addb	%al, (%rax)
    34a7: 00 b7 01 00 00 01            	addb	%dh, 16777217(%rdi)
    34ad: 00 00                        	addb	%al, (%rax)
    34af: 00 05 00 0b 00 00            	addb	%al, 2816(%rip)  # 3fb5 <entrypoint+0x3a15>
    34b5: 00 00                        	addb	%al, (%rax)
    34b7: 00 b7 01 00 00 01            	addb	%dh, 16777217(%rdi)
    34bd: 00 00                        	addb	%al, (%rax)
    34bf: 00 63 6a                     	addb	%ah, 106(%rbx)
    34c2: 6c                           	insb	%dx, %es:(%rdi)
    34c3: ff 00                        	incl	(%rax)
    34c5: 00 00                        	addb	%al, (%rax)
    34c7: 00 b7 02 00 00 80            	addb	%dh, -2147483646(%rdi)
    34cd: 00 00                        	addb	%al, (%rax)
    34cf: 00 2d 62 07 00 00            	addb	%ch, 1890(%rip)  # 3c37 <entrypoint+0x3697>
    34d5: 00 00                        	addb	%al, (%rax)
    34d7: 00 b7 01 00 00 02            	addb	%dh, 33554433(%rdi)
    34dd: 00 00                        	addb	%al, (%rax)
    34df: 00 b7 02 00 00 00            	addb	%dh, 2(%rdi)
    34e5: 08 00                        	orb	%al, (%rax)
    34e7: 00 2d 62 04 00 00            	addb	%ch, 1122(%rip)  # 394f <entrypoint+0x33af>
    34ed: 00 00                        	addb	%al, (%rax)
    34ef: 00 b7 01 00 00 03            	addb	%dh, 50331649(%rdi)
    34f5: 00 00                        	addb	%al, (%rax)
    34f7: 00 b7 02 00 00 00            	addb	%dh, 2(%rdi)
    34fd: 00 01                        	addb	%al, (%rcx)
    34ff: 00 2d 62 01 00 00            	addb	%ch, 354(%rip)  # 3667 <entrypoint+0x30c7>
    3505: 00 00                        	addb	%al, (%rax)
    3507: 00 b7 01 00 00 04            	addb	%dh, 67108865(%rdi)
    350d: 00 00                        	addb	%al, (%rax)
    350f: 00 7b 3a                     	addb	%bh, 58(%rbx)
    3512: 70 ff                        	jo	0x3513 <entrypoint+0x2f73>
    3514: 00 00                        	addb	%al, (%rax)
    3516: 00 00                        	addb	%al, (%rax)
    3518: 0f 31                        	rdtsc
    351a: 00 00                        	addb	%al, (%rax)
    351c: 00 00                        	addb	%al, (%rax)
    351e: 00 00                        	addb	%al, (%rax)
    3520: 7b 1a                        	jnp	0x353c <entrypoint+0x2f9c>
    3522: 78 ff                        	js	0x3523 <entrypoint+0x2f83>
    3524: 00 00                        	addb	%al, (%rax)
    3526: 00 00                        	addb	%al, (%rax)
    3528: bf a1 00 00 00               	movl	$161, %edi
    352d: 00 00                        	addb	%al, (%rax)
    352f: 00 07                        	addb	%al, (%rdi)
    3531: 01 00                        	addl	%eax, (%rax)
    3533: 00 20                        	addb	%ah, (%rax)
    3535: ff ff                        	<unknown>
    3537: ff bf a2 00 00 00            	<unknown>
    353d: 00 00                        	addb	%al, (%rax)
    353f: 00 07                        	addb	%al, (%rdi)
    3541: 02 00                        	addb	(%rax), %al
    3543: 00 60 ff                     	addb	%ah, -1(%rax)
    3546: ff ff                        	<unknown>
    3548: 18 03                        	sbbb	%al, (%rbx)
    354a: 00 00                        	addb	%al, (%rax)
    354c: c8 84 00 00                  	enter	$132, $0
		...
    3558: 85 10                        	testl	%edx, (%rax)
    355a: 00 00                        	addb	%al, (%rax)
    355c: d2 04 00                     	rolb	%cl, (%rax,%rax)
    355f: 00 79 a1                     	addb	%bh, -95(%rcx)
    3562: 20 ff                        	andb	%bh, %bh
    3564: 00 00                        	addb	%al, (%rax)
    3566: 00 00                        	addb	%al, (%rax)
    3568: 7b 1a                        	jnp	0x3584 <entrypoint+0x2fe4>
    356a: 68 fe 00 00 00               	pushq	$254
    356f: 00 79 a1                     	addb	%bh, -95(%rcx)
    3572: 28 ff                        	subb	%bh, %bh
    3574: 00 00                        	addb	%al, (%rax)
    3576: 00 00                        	addb	%al, (%rax)
    3578: 7b 1a                        	jnp	0x3594 <entrypoint+0x2ff4>
    357a: 60                           	<unknown>
    357b: fe 00                        	incb	(%rax)
    357d: 00 00                        	addb	%al, (%rax)
    357f: 00 bf a1 00 00 00            	addb	%bh, 161(%rdi)
    3585: 00 00                        	addb	%al, (%rax)
    3587: 00 07                        	addb	%al, (%rdi)
    3589: 01 00                        	addl	%eax, (%rax)
    358b: 00 10                        	addb	%dl, (%rax)
    358d: ff ff                        	<unknown>
    358f: ff bf a2 00 00 00            	<unknown>
    3595: 00 00                        	addb	%al, (%rax)
    3597: 00 07                        	addb	%al, (%rdi)
    3599: 02 00                        	addb	(%rax), %al
    359b: 00 6c ff ff                  	addb	%ch, -1(%rdi,%rdi,8)
    359f: ff 18                        	lcalll	*(%rax)
    35a1: 03 00                        	addl	(%rax), %eax
    35a3: 00 e0                        	addb	%ah, %al
    35a5: 79 00                        	jns	0x35a7 <entrypoint+0x3007>
		...
    35af: 00 85 10 00 00 ca            	addb	%al, -905969648(%rbp)
    35b5: 04 00                        	addb	$0, %al
    35b7: 00 79 a1                     	addb	%bh, -95(%rcx)
    35ba: 10 ff                        	adcb	%bh, %bh
    35bc: 00 00                        	addb	%al, (%rax)
    35be: 00 00                        	addb	%al, (%rax)
    35c0: 7b 1a                        	jnp	0x35dc <entrypoint+0x303c>
    35c2: 58                           	popq	%rax
    35c3: fe 00                        	incb	(%rax)
    35c5: 00 00                        	addb	%al, (%rax)
    35c7: 00 79 a1                     	addb	%bh, -95(%rcx)
    35ca: 18 ff                        	sbbb	%bh, %bh
    35cc: 00 00                        	addb	%al, (%rax)
    35ce: 00 00                        	addb	%al, (%rax)
    35d0: 7b 1a                        	jnp	0x35ec <entrypoint+0x304c>
    35d2: 50                           	pushq	%rax
    35d3: fe 00                        	incb	(%rax)
    35d5: 00 00                        	addb	%al, (%rax)
    35d7: 00 bf a1 00 00 00            	addb	%bh, 161(%rdi)
    35dd: 00 00                        	addb	%al, (%rax)
    35df: 00 07                        	addb	%al, (%rdi)
    35e1: 01 00                        	addl	%eax, (%rax)
    35e3: 00 00                        	addb	%al, (%rax)
    35e5: ff ff                        	<unknown>
    35e7: ff bf a2 00 00 00            	<unknown>
    35ed: 00 00                        	addb	%al, (%rax)
    35ef: 00 07                        	addb	%al, (%rdi)
    35f1: 02 00                        	addb	(%rax), %al
    35f3: 00 70 ff                     	addb	%dh, -1(%rax)
    35f6: ff ff                        	<unknown>
    35f8: 18 03                        	sbbb	%al, (%rbx)
    35fa: 00 00                        	addb	%al, (%rax)
    35fc: 50                           	pushq	%rax
    35fd: 23 00                        	andl	(%rax), %eax
		...
    3607: 00 85 10 00 00 b9            	addb	%al, -1191182320(%rbp)
    360d: 04 00                        	addb	$0, %al
    360f: 00 79 a6                     	addb	%bh, -90(%rcx)
    3612: 00 ff                        	addb	%bh, %bh
    3614: 00 00                        	addb	%al, (%rax)
    3616: 00 00                        	addb	%al, (%rax)
    3618: 79 a7                        	jns	0x35c1 <entrypoint+0x3021>
    361a: 08 ff                        	orb	%bh, %bh
    361c: 00 00                        	addb	%al, (%rax)
    361e: 00 00                        	addb	%al, (%rax)
    3620: bf a1 00 00 00               	movl	$161, %edi
    3625: 00 00                        	addb	%al, (%rax)
    3627: 00 07                        	addb	%al, (%rdi)
    3629: 01 00                        	addl	%eax, (%rax)
    362b: 00 f0                        	addb	%dh, %al
    362d: fe ff                        	<unknown>
    362f: ff bf a2 00 00 00            	<unknown>
    3635: 00 00                        	addb	%al, (%rax)
    3637: 00 07                        	addb	%al, (%rdi)
    3639: 02 00                        	addb	(%rax), %al
    363b: 00 40 ff                     	addb	%al, -1(%rax)
    363e: ff ff                        	<unknown>
    3640: 18 03                        	sbbb	%al, (%rbx)
    3642: 00 00                        	addb	%al, (%rax)
    3644: 78 7e                        	js	0x36c4 <entrypoint+0x3124>
		...
    364e: 00 00                        	addb	%al, (%rax)
    3650: 85 10                        	testl	%edx, (%rax)
    3652: 00 00                        	addb	%al, (%rax)
    3654: b0 04                        	movb	$4, %al
    3656: 00 00                        	addb	%al, (%rax)
    3658: 79 a8                        	jns	0x3602 <entrypoint+0x3062>
    365a: f0                           	lock
    365b: fe 00                        	incb	(%rax)
    365d: 00 00                        	addb	%al, (%rax)
    365f: 00 79 a9                     	addb	%bh, -87(%rcx)
    3662: f8                           	clc
    3663: fe 00                        	incb	(%rax)
    3665: 00 00                        	addb	%al, (%rax)
    3667: 00 bf a1 00 00 00            	addb	%bh, 161(%rdi)
    366d: 00 00                        	addb	%al, (%rax)
    366f: 00 07                        	addb	%al, (%rdi)
    3671: 01 00                        	addl	%eax, (%rax)
    3673: 00 e0                        	addb	%ah, %al
    3675: fe ff                        	<unknown>
    3677: ff bf a2 00 00 00            	<unknown>
    367d: 00 00                        	addb	%al, (%rax)
    367f: 00 07                        	addb	%al, (%rdi)
    3681: 02 00                        	addb	(%rax), %al
    3683: 00 50 ff                     	addb	%dl, -1(%rax)
    3686: ff ff                        	<unknown>
    3688: 18 03                        	sbbb	%al, (%rbx)
    368a: 00 00                        	addb	%al, (%rax)
    368c: 78 7e                        	js	0x370c <entrypoint+0x316c>
		...
    3696: 00 00                        	addb	%al, (%rax)
    3698: 85 10                        	testl	%edx, (%rax)
    369a: 00 00                        	addb	%al, (%rax)
    369c: a7                           	cmpsl	%es:(%rdi), (%rsi)
    369d: 04 00                        	addb	$0, %al
    369f: 00 7b 9a                     	addb	%bh, -102(%rbx)
    36a2: e8 ff 00 00 00               	callq	0x37a6 <entrypoint+0x3206>
    36a7: 00 7b 8a                     	addb	%bh, -118(%rbx)
    36aa: e0 ff                        	loopne	0x36ab <entrypoint+0x310b>
    36ac: 00 00                        	addb	%al, (%rax)
    36ae: 00 00                        	addb	%al, (%rax)
    36b0: 7b 7a                        	jnp	0x372c <entrypoint+0x318c>
    36b2: d8 ff                        	fdivr	%st(7), %st
    36b4: 00 00                        	addb	%al, (%rax)
    36b6: 00 00                        	addb	%al, (%rax)
    36b8: 7b 6a                        	jnp	0x3724 <entrypoint+0x3184>
    36ba: d0 ff                        	sarb	%bh
    36bc: 00 00                        	addb	%al, (%rax)
    36be: 00 00                        	addb	%al, (%rax)
    36c0: 79 a1                        	jns	0x3663 <entrypoint+0x30c3>
    36c2: 50                           	pushq	%rax
    36c3: fe 00                        	incb	(%rax)
    36c5: 00 00                        	addb	%al, (%rax)
    36c7: 00 7b 1a                     	addb	%bh, 26(%rbx)
    36ca: c8 ff 00 00                  	enter	$255, $0
    36ce: 00 00                        	addb	%al, (%rax)
    36d0: 79 a1                        	jns	0x3673 <entrypoint+0x30d3>
    36d2: 58                           	popq	%rax
    36d3: fe 00                        	incb	(%rax)
    36d5: 00 00                        	addb	%al, (%rax)
    36d7: 00 7b 1a                     	addb	%bh, 26(%rbx)
    36da: c0 ff 00                     	sarb	$0, %bh
    36dd: 00 00                        	addb	%al, (%rax)
    36df: 00 79 a1                     	addb	%bh, -95(%rcx)
    36e2: 60                           	<unknown>
    36e3: fe 00                        	incb	(%rax)
    36e5: 00 00                        	addb	%al, (%rax)
    36e7: 00 7b 1a                     	addb	%bh, 26(%rbx)
    36ea: b8 ff 00 00 00               	movl	$255, %eax
    36ef: 00 79 a1                     	addb	%bh, -95(%rcx)
    36f2: 68 fe 00 00 00               	pushq	$254
    36f7: 00 7b 1a                     	addb	%bh, 26(%rbx)
    36fa: b0 ff                        	movb	$-1, %al
    36fc: 00 00                        	addb	%al, (%rax)
    36fe: 00 00                        	addb	%al, (%rax)
    3700: bf a1 00 00 00               	movl	$161, %edi
    3705: 00 00                        	addb	%al, (%rax)
    3707: 00 07                        	addb	%al, (%rdi)
    3709: 01 00                        	addl	%eax, (%rax)
    370b: 00 b0 ff ff ff 7b            	addb	%dh, 2080374783(%rax)
    3711: 1a a0 ff 00 00 00            	sbbb	255(%rax), %ah
    3717: 00 b7 01 00 00 00            	addb	%dh, 1(%rdi)
    371d: 00 00                        	addb	%al, (%rax)
    371f: 00 7b 1a                     	addb	%bh, 26(%rbx)
    3722: 90                           	nop
    3723: ff 00                        	incl	(%rax)
    3725: 00 00                        	addb	%al, (%rax)
    3727: 00 b7 01 00 00 05            	addb	%dh, 83886081(%rdi)
    372d: 00 00                        	addb	%al, (%rax)
    372f: 00 7b 1a                     	addb	%bh, 26(%rbx)
    3732: a8 ff                        	testb	$-1, %al
    3734: 00 00                        	addb	%al, (%rax)
    3736: 00 00                        	addb	%al, (%rax)
    3738: 7b 1a                        	jnp	0x3754 <entrypoint+0x31b4>
    373a: 88 ff                        	movb	%bh, %bh
    373c: 00 00                        	addb	%al, (%rax)
    373e: 00 00                        	addb	%al, (%rax)
    3740: 18 01                        	sbbb	%al, (%rcx)
    3742: 00 00                        	addb	%al, (%rax)
    3744: 98                           	cwtl
    3745: 9c                           	pushfq
		...
    374e: 00 00                        	addb	%al, (%rax)
    3750: 7b 1a                        	jnp	0x376c <entrypoint+0x31cc>
    3752: 80 ff 00                     	cmpb	$0, %bh
    3755: 00 00                        	addb	%al, (%rax)
    3757: 00 79 a1                     	addb	%bh, -95(%rcx)
    375a: e8 fe 00 00 00               	callq	0x385d <entrypoint+0x32bd>
    375f: 00 7b 1a                     	addb	%bh, 26(%rbx)
    3762: f8                           	clc
    3763: ff 00                        	incl	(%rax)
    3765: 00 00                        	addb	%al, (%rax)
    3767: 00 79 a1                     	addb	%bh, -95(%rcx)
    376a: e0 fe                        	loopne	0x376a <entrypoint+0x31ca>
    376c: 00 00                        	addb	%al, (%rax)
    376e: 00 00                        	addb	%al, (%rax)
    3770: 7b 1a                        	jnp	0x378c <entrypoint+0x31ec>
    3772: f0                           	lock
    3773: ff 00                        	incl	(%rax)
    3775: 00 00                        	addb	%al, (%rax)
    3777: 00 bf a1 00 00 00            	addb	%bh, 161(%rdi)
    377d: 00 00                        	addb	%al, (%rax)
    377f: 00 07                        	addb	%al, (%rdi)
    3781: 01 00                        	addl	%eax, (%rax)
    3783: 00 80 ff ff ff 18            	addb	%al, 419430399(%rax)
    3789: 02 00                        	addb	(%rax), %al
    378b: 00 e8                        	addb	%ch, %al
    378d: 9c                           	pushfq
		...
    3796: 00 00                        	addb	%al, (%rax)
    3798: 85 10                        	testl	%edx, (%rax)
    379a: 00 00                        	addb	%al, (%rax)
    379c: 2b 09                        	subl	(%rcx), %ecx
    379e: 00 00                        	addb	%al, (%rax)
    37a0: 85 10                        	testl	%edx, (%rax)
    37a2: 00 00                        	addb	%al, (%rax)
    37a4: ff ff                        	<unknown>
    37a6: ff ff                        	<unknown>
    37a8: 2d 23 01 00 00               	subl	$291, %eax
    37ad: 00 00                        	addb	%al, (%rax)
    37af: 00 bf 43 00 00 00            	addb	%bh, 67(%rdi)
    37b5: 00 00                        	addb	%al, (%rax)
    37b7: 00 7b 3a                     	addb	%bh, 58(%rbx)
    37ba: 70 ff                        	jo	0x37bb <entrypoint+0x321b>
    37bc: 00 00                        	addb	%al, (%rax)
    37be: 00 00                        	addb	%al, (%rax)
    37c0: bf a1 00 00 00               	movl	$161, %edi
    37c5: 00 00                        	addb	%al, (%rax)
    37c7: 00 07                        	addb	%al, (%rdi)
    37c9: 01 00                        	addl	%eax, (%rax)
    37cb: 00 90 fe ff ff bf            	addb	%dl, -1073741826(%rax)
    37d1: a2 00 00 00 00 00 00 07 02   	movabsb	%al, 146085512912830464
    37da: 00 00                        	addb	%al, (%rax)
    37dc: 70 ff                        	jo	0x37dd <entrypoint+0x323d>
    37de: ff ff                        	<unknown>
    37e0: 18 03                        	sbbb	%al, (%rbx)
    37e2: 00 00                        	addb	%al, (%rax)
    37e4: c8 84 00 00                  	enter	$132, $0
		...
    37f0: 85 10                        	testl	%edx, (%rax)
    37f2: 00 00                        	addb	%al, (%rax)
    37f4: 7f 04                        	jg	0x37fa <entrypoint+0x325a>
    37f6: 00 00                        	addb	%al, (%rax)
    37f8: 79 a6                        	jns	0x37a0 <entrypoint+0x3200>
    37fa: 90                           	nop
    37fb: fe 00                        	incb	(%rax)
    37fd: 00 00                        	addb	%al, (%rax)
    37ff: 00 79 a7                     	addb	%bh, -89(%rcx)
    3802: 98                           	cwtl
    3803: fe 00                        	incb	(%rax)
    3805: 00 00                        	addb	%al, (%rax)
    3807: 00 bf a1 00 00 00            	addb	%bh, 161(%rdi)
    380d: 00 00                        	addb	%al, (%rax)
    380f: 00 07                        	addb	%al, (%rdi)
    3811: 01 00                        	addl	%eax, (%rax)
    3813: 00 80 fe ff ff bf            	addb	%al, -1073741826(%rax)
    3819: a2 00 00 00 00 00 00 07 02   	movabsb	%al, 146085512912830464
    3822: 00 00                        	addb	%al, (%rax)
    3824: 40 ff ff                     	<unknown>
    3827: ff 18                        	lcalll	*(%rax)
    3829: 03 00                        	addl	(%rax), %eax
    382b: 00 78 7e                     	addb	%bh, 126(%rax)
		...
    3836: 00 00                        	addb	%al, (%rax)
    3838: 85 10                        	testl	%edx, (%rax)
    383a: 00 00                        	addb	%al, (%rax)
    383c: 73 04                        	jae	0x3842 <entrypoint+0x32a2>
    383e: 00 00                        	addb	%al, (%rax)
    3840: 79 a8                        	jns	0x37ea <entrypoint+0x324a>
    3842: 80 fe 00                     	cmpb	$0, %dh
    3845: 00 00                        	addb	%al, (%rax)
    3847: 00 79 a9                     	addb	%bh, -87(%rcx)
    384a: 88 fe                        	movb	%bh, %dh
    384c: 00 00                        	addb	%al, (%rax)
    384e: 00 00                        	addb	%al, (%rax)
    3850: bf a1 00 00 00               	movl	$161, %edi
    3855: 00 00                        	addb	%al, (%rax)
    3857: 00 07                        	addb	%al, (%rdi)
    3859: 01 00                        	addl	%eax, (%rax)
    385b: 00 70 fe                     	addb	%dh, -2(%rax)
    385e: ff ff                        	<unknown>
    3860: bf a2 00 00 00               	movl	$162, %edi
    3865: 00 00                        	addb	%al, (%rax)
    3867: 00 07                        	addb	%al, (%rdi)
    3869: 02 00                        	addb	(%rax), %al
    386b: 00 50 ff                     	addb	%dl, -1(%rax)
    386e: ff ff                        	<unknown>
    3870: 18 03                        	sbbb	%al, (%rbx)
    3872: 00 00                        	addb	%al, (%rax)
    3874: 78 7e                        	js	0x38f4 <entrypoint+0x3354>
		...
    387e: 00 00                        	addb	%al, (%rax)
    3880: 85 10                        	testl	%edx, (%rax)
    3882: 00 00                        	addb	%al, (%rax)
    3884: 6a 04                        	pushq	$4
    3886: 00 00                        	addb	%al, (%rax)
    3888: 7b 9a                        	jnp	0x3824 <entrypoint+0x3284>
    388a: c8 ff 00 00                  	enter	$255, $0
    388e: 00 00                        	addb	%al, (%rax)
    3890: 7b 8a                        	jnp	0x381c <entrypoint+0x327c>
    3892: c0 ff 00                     	sarb	$0, %bh
    3895: 00 00                        	addb	%al, (%rax)
    3897: 00 7b 7a                     	addb	%bh, 122(%rbx)
    389a: b8 ff 00 00 00               	movl	$255, %eax
    389f: 00 7b 6a                     	addb	%bh, 106(%rbx)
    38a2: b0 ff                        	movb	$-1, %al
    38a4: 00 00                        	addb	%al, (%rax)
    38a6: 00 00                        	addb	%al, (%rax)
    38a8: bf a1 00 00 00               	movl	$161, %edi
    38ad: 00 00                        	addb	%al, (%rax)
    38af: 00 07                        	addb	%al, (%rdi)
    38b1: 01 00                        	addl	%eax, (%rax)
    38b3: 00 b0 ff ff ff 7b            	addb	%dh, 2080374783(%rax)
    38b9: 1a a0 ff 00 00 00            	sbbb	255(%rax), %ah
    38bf: 00 b7 01 00 00 00            	addb	%dh, 1(%rdi)
    38c5: 00 00                        	addb	%al, (%rax)
    38c7: 00 7b 1a                     	addb	%bh, 26(%rbx)
    38ca: 90                           	nop
    38cb: ff 00                        	incl	(%rax)
    38cd: 00 00                        	addb	%al, (%rax)
    38cf: 00 b7 01 00 00 03            	addb	%dh, 50331649(%rdi)
    38d5: 00 00                        	addb	%al, (%rax)
    38d7: 00 7b 1a                     	addb	%bh, 26(%rbx)
    38da: a8 ff                        	testb	$-1, %al
    38dc: 00 00                        	addb	%al, (%rax)
    38de: 00 00                        	addb	%al, (%rax)
    38e0: 7b 1a                        	jnp	0x38fc <entrypoint+0x335c>
    38e2: 88 ff                        	movb	%bh, %bh
    38e4: 00 00                        	addb	%al, (%rax)
    38e6: 00 00                        	addb	%al, (%rax)
    38e8: 18 01                        	sbbb	%al, (%rcx)
    38ea: 00 00                        	addb	%al, (%rax)
    38ec: f8                           	clc
    38ed: 9b                           	wait
		...
    38f6: 00 00                        	addb	%al, (%rax)
    38f8: 7b 1a                        	jnp	0x3914 <entrypoint+0x3374>
    38fa: 80 ff 00                     	cmpb	$0, %bh
    38fd: 00 00                        	addb	%al, (%rax)
    38ff: 00 79 a1                     	addb	%bh, -95(%rcx)
    3902: 78 fe                        	js	0x3902 <entrypoint+0x3362>
    3904: 00 00                        	addb	%al, (%rax)
    3906: 00 00                        	addb	%al, (%rax)
    3908: 7b 1a                        	jnp	0x3924 <entrypoint+0x3384>
    390a: d8 ff                        	fdivr	%st(7), %st
    390c: 00 00                        	addb	%al, (%rax)
    390e: 00 00                        	addb	%al, (%rax)
    3910: 79 a1                        	jns	0x38b3 <entrypoint+0x3313>
    3912: 70 fe                        	jo	0x3912 <entrypoint+0x3372>
    3914: 00 00                        	addb	%al, (%rax)
    3916: 00 00                        	addb	%al, (%rax)
    3918: 7b 1a                        	jnp	0x3934 <entrypoint+0x3394>
    391a: d0 ff                        	sarb	%bh
    391c: 00 00                        	addb	%al, (%rax)
    391e: 00 00                        	addb	%al, (%rax)
    3920: bf a1 00 00 00               	movl	$161, %edi
    3925: 00 00                        	addb	%al, (%rax)
    3927: 00 07                        	addb	%al, (%rdi)
    3929: 01 00                        	addl	%eax, (%rax)
    392b: 00 80 ff ff ff 18            	addb	%al, 419430399(%rax)
    3931: 02 00                        	addb	(%rax), %al
    3933: 00 28                        	addb	%ch, (%rax)
    3935: 9c                           	pushfq
		...
    393e: 00 00                        	addb	%al, (%rax)
    3940: 85 10                        	testl	%edx, (%rax)
    3942: 00 00                        	addb	%al, (%rax)
    3944: f6 08                        	<unknown>
    3946: 00 00                        	addb	%al, (%rax)
    3948: 85 10                        	testl	%edx, (%rax)
    394a: 00 00                        	addb	%al, (%rax)
    394c: ff ff                        	<unknown>
    394e: ff ff                        	<unknown>
    3950: bf a1 00 00 00               	movl	$161, %edi
    3955: 00 00                        	addb	%al, (%rax)
    3957: 00 07                        	addb	%al, (%rdi)
    3959: 01 00                        	addl	%eax, (%rax)
    395b: 00 d0                        	addb	%dl, %al
    395d: fe ff                        	<unknown>
    395f: ff bf a2 00 00 00            	<unknown>
    3965: 00 00                        	addb	%al, (%rax)
    3967: 00 07                        	addb	%al, (%rdi)
    3969: 02 00                        	addb	(%rax), %al
    396b: 00 30                        	addb	%dh, (%rax)
    396d: ff ff                        	<unknown>
    396f: ff 18                        	lcalll	*(%rax)
    3971: 03 00                        	addl	(%rax), %eax
    3973: 00 c8                        	addb	%cl, %al
    3975: 84 00                        	testb	%al, (%rax)
		...
    397f: 00 85 10 00 00 4d            	addb	%al, 1291845648(%rbp)
    3985: 04 00                        	addb	$0, %al
    3987: 00 79 a1                     	addb	%bh, -95(%rcx)
    398a: d0 fe                        	sarb	%dh
    398c: 00 00                        	addb	%al, (%rax)
    398e: 00 00                        	addb	%al, (%rax)
    3990: 7b 1a                        	jnp	0x39ac <entrypoint+0x340c>
    3992: 68 fe 00 00 00               	pushq	$254
    3997: 00 79 a1                     	addb	%bh, -95(%rcx)
    399a: d8 fe                        	fdivr	%st(6), %st
    399c: 00 00                        	addb	%al, (%rax)
    399e: 00 00                        	addb	%al, (%rax)
    39a0: 7b 1a                        	jnp	0x39bc <entrypoint+0x341c>
    39a2: 60                           	<unknown>
    39a3: fe 00                        	incb	(%rax)
    39a5: 00 00                        	addb	%al, (%rax)
    39a7: 00 bf a1 00 00 00            	addb	%bh, 161(%rdi)
    39ad: 00 00                        	addb	%al, (%rax)
    39af: 00 07                        	addb	%al, (%rdi)
    39b1: 01 00                        	addl	%eax, (%rax)
    39b3: 00 c0                        	addb	%al, %al
    39b5: fe ff                        	<unknown>
    39b7: ff bf a2 00 00 00            	<unknown>
    39bd: 00 00                        	addb	%al, (%rax)
    39bf: 00 07                        	addb	%al, (%rdi)
    39c1: 02 00                        	addb	(%rax), %al
    39c3: 00 38                        	addb	%bh, (%rax)
    39c5: ff ff                        	<unknown>
    39c7: ff 18                        	lcalll	*(%rax)
    39c9: 03 00                        	addl	(%rax), %eax
    39cb: 00 c8                        	addb	%cl, %al
    39cd: 84 00                        	testb	%al, (%rax)
		...
    39d7: 00 85 10 00 00 42            	addb	%al, 1107296272(%rbp)
    39dd: 04 00                        	addb	$0, %al
    39df: 00 79 a8                     	addb	%bh, -88(%rcx)
    39e2: c0 fe 00                     	sarb	$0, %dh
    39e5: 00 00                        	addb	%al, (%rax)
    39e7: 00 79 a9                     	addb	%bh, -87(%rcx)
    39ea: c8 fe 00 00                  	enter	$254, $0
    39ee: 00 00                        	addb	%al, (%rax)
    39f0: bf a1 00 00 00               	movl	$161, %edi
    39f5: 00 00                        	addb	%al, (%rax)
    39f7: 00 07                        	addb	%al, (%rdi)
    39f9: 01 00                        	addl	%eax, (%rax)
    39fb: 00 b0 fe ff ff bf            	addb	%dh, -1073741826(%rax)
    3a01: a2 00 00 00 00 00 00 07 02   	movabsb	%al, 146085512912830464
    3a0a: 00 00                        	addb	%al, (%rax)
    3a0c: 40 ff ff                     	<unknown>
    3a0f: ff 18                        	lcalll	*(%rax)
    3a11: 03 00                        	addl	(%rax), %eax
    3a13: 00 78 7e                     	addb	%bh, 126(%rax)
		...
    3a1e: 00 00                        	addb	%al, (%rax)
    3a20: 85 10                        	testl	%edx, (%rax)
    3a22: 00 00                        	addb	%al, (%rax)
    3a24: 36 04 00                     	addb	$0, %al
    3a27: 00 79 a6                     	addb	%bh, -90(%rcx)
    3a2a: b0 fe                        	movb	$-2, %al
    3a2c: 00 00                        	addb	%al, (%rax)
    3a2e: 00 00                        	addb	%al, (%rax)
    3a30: 79 a7                        	jns	0x39d9 <entrypoint+0x3439>
    3a32: b8 fe 00 00 00               	movl	$254, %eax
    3a37: 00 bf a1 00 00 00            	addb	%bh, 161(%rdi)
    3a3d: 00 00                        	addb	%al, (%rax)
    3a3f: 00 07                        	addb	%al, (%rdi)
    3a41: 01 00                        	addl	%eax, (%rax)
    3a43: 00 a0 fe ff ff bf            	addb	%ah, -1073741826(%rax)
    3a49: a2 00 00 00 00 00 00 07 02   	movabsb	%al, 146085512912830464
    3a52: 00 00                        	addb	%al, (%rax)
    3a54: 50                           	pushq	%rax
    3a55: ff ff                        	<unknown>
    3a57: ff 18                        	lcalll	*(%rax)
    3a59: 03 00                        	addl	(%rax), %eax
    3a5b: 00 78 7e                     	addb	%bh, 126(%rax)
		...
    3a66: 00 00                        	addb	%al, (%rax)
    3a68: 85 10                        	testl	%edx, (%rax)
    3a6a: 00 00                        	addb	%al, (%rax)
    3a6c: 2d 04 00 00 7b               	subl	$2063597572, %eax
    3a71: 7a d8                        	jp	0x3a4b <entrypoint+0x34ab>
    3a73: ff 00                        	incl	(%rax)
    3a75: 00 00                        	addb	%al, (%rax)
    3a77: 00 7b 6a                     	addb	%bh, 106(%rbx)
    3a7a: d0 ff                        	sarb	%bh
    3a7c: 00 00                        	addb	%al, (%rax)
    3a7e: 00 00                        	addb	%al, (%rax)
    3a80: 7b 9a                        	jnp	0x3a1c <entrypoint+0x347c>
    3a82: c8 ff 00 00                  	enter	$255, $0
    3a86: 00 00                        	addb	%al, (%rax)
    3a88: 7b 8a                        	jnp	0x3a14 <entrypoint+0x3474>
    3a8a: c0 ff 00                     	sarb	$0, %bh
    3a8d: 00 00                        	addb	%al, (%rax)
    3a8f: 00 79 a1                     	addb	%bh, -95(%rcx)
    3a92: 60                           	<unknown>
    3a93: fe 00                        	incb	(%rax)
    3a95: 00 00                        	addb	%al, (%rax)
    3a97: 00 7b 1a                     	addb	%bh, 26(%rbx)
    3a9a: b8 ff 00 00 00               	movl	$255, %eax
    3a9f: 00 79 a1                     	addb	%bh, -95(%rcx)
    3aa2: 68 fe 00 00 00               	pushq	$254
    3aa7: 00 7b 1a                     	addb	%bh, 26(%rbx)
    3aaa: b0 ff                        	movb	$-1, %al
    3aac: 00 00                        	addb	%al, (%rax)
    3aae: 00 00                        	addb	%al, (%rax)
    3ab0: bf a1 00 00 00               	movl	$161, %edi
    3ab5: 00 00                        	addb	%al, (%rax)
    3ab7: 00 07                        	addb	%al, (%rdi)
    3ab9: 01 00                        	addl	%eax, (%rax)
    3abb: 00 b0 ff ff ff 7b            	addb	%dh, 2080374783(%rax)
    3ac1: 1a a0 ff 00 00 00            	sbbb	255(%rax), %ah
    3ac7: 00 b7 01 00 00 00            	addb	%dh, 1(%rdi)
    3acd: 00 00                        	addb	%al, (%rax)
    3acf: 00 7b 1a                     	addb	%bh, 26(%rbx)
    3ad2: 90                           	nop
    3ad3: ff 00                        	incl	(%rax)
    3ad5: 00 00                        	addb	%al, (%rax)
    3ad7: 00 b7 01 00 00 04            	addb	%dh, 67108865(%rdi)
    3add: 00 00                        	addb	%al, (%rax)
    3adf: 00 7b 1a                     	addb	%bh, 26(%rbx)
    3ae2: a8 ff                        	testb	$-1, %al
    3ae4: 00 00                        	addb	%al, (%rax)
    3ae6: 00 00                        	addb	%al, (%rax)
    3ae8: 7b 1a                        	jnp	0x3b04 <entrypoint+0x3564>
    3aea: 88 ff                        	movb	%bh, %bh
    3aec: 00 00                        	addb	%al, (%rax)
    3aee: 00 00                        	addb	%al, (%rax)
    3af0: 18 01                        	sbbb	%al, (%rcx)
    3af2: 00 00                        	addb	%al, (%rax)
    3af4: 40 9c                        	pushfq
		...
    3afe: 00 00                        	addb	%al, (%rax)
    3b00: 7b 1a                        	jnp	0x3b1c <entrypoint+0x357c>
    3b02: 80 ff 00                     	cmpb	$0, %bh
    3b05: 00 00                        	addb	%al, (%rax)
    3b07: 00 79 a1                     	addb	%bh, -95(%rcx)
    3b0a: a8 fe                        	testb	$-2, %al
    3b0c: 00 00                        	addb	%al, (%rax)
    3b0e: 00 00                        	addb	%al, (%rax)
    3b10: 7b 1a                        	jnp	0x3b2c <entrypoint+0x358c>
    3b12: e8 ff 00 00 00               	callq	0x3c16 <entrypoint+0x3676>
    3b17: 00 79 a1                     	addb	%bh, -95(%rcx)
    3b1a: a0 fe 00 00 00 00 7b 1a e0   	movabsb	-2298389419889000194, %al
    3b23: ff 00                        	incl	(%rax)
    3b25: 00 00                        	addb	%al, (%rax)
    3b27: 00 bf a1 00 00 00            	addb	%bh, 161(%rdi)
    3b2d: 00 00                        	addb	%al, (%rax)
    3b2f: 00 07                        	addb	%al, (%rdi)
    3b31: 01 00                        	addl	%eax, (%rax)
    3b33: 00 80 ff ff ff 18            	addb	%al, 419430399(%rax)
    3b39: 02 00                        	addb	(%rax), %al
    3b3b: 00 80 9c 00 00 00            	addb	%al, 156(%rax)
    3b41: 00 00                        	addb	%al, (%rax)
    3b43: 00 00                        	addb	%al, (%rax)
    3b45: 00 00                        	addb	%al, (%rax)
    3b47: 00 85 10 00 00 b5            	addb	%al, -1258291184(%rbp)
    3b4d: 08 00                        	orb	%al, (%rax)
    3b4f: 00 85 10 00 00 ff            	addb	%al, -16777200(%rbp)
    3b55: ff ff                        	<unknown>
    3b57: ff 95 00 00 00 00            	callq	*(%rbp)
    3b5d: 00 00                        	addb	%al, (%rax)
    3b5f: 00 b7 00 00 00 00            	addb	%dh, (%rdi)
    3b65: 00 00                        	addb	%al, (%rax)
    3b67: 00 95 00 00 00 00            	addb	%dl, (%rbp)
    3b6d: 00 00                        	addb	%al, (%rax)
    3b6f: 00 bf 16 00 00 00            	addb	%bh, 22(%rdi)
    3b75: 00 00                        	addb	%al, (%rax)
    3b77: 00 bf a1 00 00 00            	addb	%bh, 161(%rdi)
    3b7d: 00 00                        	addb	%al, (%rax)
    3b7f: 00 07                        	addb	%al, (%rdi)
    3b81: 01 00                        	addl	%eax, (%rax)
    3b83: 00 f0                        	addb	%dh, %al
    3b85: ff ff                        	<unknown>
    3b87: ff 85 10 00 00 0d            	incl	218103824(%rbp)
    3b8d: 02 00                        	addb	(%rax), %al
    3b8f: 00 79 a1                     	addb	%bh, -95(%rcx)
    3b92: f0                           	lock
    3b93: ff 00                        	incl	(%rax)
    3b95: 00 00                        	addb	%al, (%rax)
    3b97: 00 79 a2                     	addb	%bh, -94(%rcx)
    3b9a: f8                           	clc
    3b9b: ff 00                        	incl	(%rax)
    3b9d: 00 00                        	addb	%al, (%rax)
    3b9f: 00 7b 26                     	addb	%bh, 38(%rbx)
    3ba2: 08 00                        	orb	%al, (%rax)
    3ba4: 00 00                        	addb	%al, (%rax)
    3ba6: 00 00                        	addb	%al, (%rax)
    3ba8: 7b 16                        	jnp	0x3bc0 <entrypoint+0x3620>
    3baa: 00 00                        	addb	%al, (%rax)
    3bac: 00 00                        	addb	%al, (%rax)
    3bae: 00 00                        	addb	%al, (%rax)
    3bb0: 95                           	xchgl	%ebp, %eax
    3bb1: 00 00                        	addb	%al, (%rax)
    3bb3: 00 00                        	addb	%al, (%rax)
    3bb5: 00 00                        	addb	%al, (%rax)
    3bb7: 00 7b 31                     	addb	%bh, 49(%rbx)
    3bba: 08 00                        	orb	%al, (%rax)
    3bbc: 00 00                        	addb	%al, (%rax)
    3bbe: 00 00                        	addb	%al, (%rax)
    3bc0: 7b 21                        	jnp	0x3be3 <entrypoint+0x3643>
    3bc2: 00 00                        	addb	%al, (%rax)
    3bc4: 00 00                        	addb	%al, (%rax)
    3bc6: 00 00                        	addb	%al, (%rax)
    3bc8: 95                           	xchgl	%ebp, %eax
    3bc9: 00 00                        	addb	%al, (%rax)
    3bcb: 00 00                        	addb	%al, (%rax)
    3bcd: 00 00                        	addb	%al, (%rax)
    3bcf: 00 7b 2a                     	addb	%bh, 42(%rbx)
    3bd2: 98                           	cwtl
    3bd3: ff 00                        	incl	(%rax)
    3bd5: 00 00                        	addb	%al, (%rax)
    3bd7: 00 7b 1a                     	addb	%bh, 26(%rbx)
    3bda: 90                           	nop
    3bdb: ff 00                        	incl	(%rax)
    3bdd: 00 00                        	addb	%al, (%rax)
    3bdf: 00 7b 4a                     	addb	%bh, 74(%rbx)
    3be2: a8 ff                        	testb	$-1, %al
    3be4: 00 00                        	addb	%al, (%rax)
    3be6: 00 00                        	addb	%al, (%rax)
    3be8: 7b 3a                        	jnp	0x3c24 <entrypoint+0x3684>
    3bea: a0 ff 00 00 00 00 bf a1 00   	movabsb	45527477971321087, %al
    3bf3: 00 00                        	addb	%al, (%rax)
    3bf5: 00 00                        	addb	%al, (%rax)
    3bf7: 00 07                        	addb	%al, (%rdi)
    3bf9: 01 00                        	addl	%eax, (%rax)
    3bfb: 00 80 ff ff ff bf            	addb	%al, -1073741825(%rax)
    3c01: a2 00 00 00 00 00 00 07 02   	movabsb	%al, 146085512912830464
    3c0a: 00 00                        	addb	%al, (%rax)
    3c0c: 90                           	nop
    3c0d: ff ff                        	<unknown>
    3c0f: ff 18                        	lcalll	*(%rax)
    3c11: 03 00                        	addl	(%rax), %eax
    3c13: 00 78 7e                     	addb	%bh, 126(%rax)
		...
    3c1e: 00 00                        	addb	%al, (%rax)
    3c20: 85 10                        	testl	%edx, (%rax)
    3c22: 00 00                        	addb	%al, (%rax)
    3c24: f6 03 00                     	testb	$0, (%rbx)
    3c27: 00 79 a6                     	addb	%bh, -90(%rcx)
    3c2a: 80 ff 00                     	cmpb	$0, %bh
    3c2d: 00 00                        	addb	%al, (%rax)
    3c2f: 00 79 a7                     	addb	%bh, -89(%rcx)
    3c32: 88 ff                        	movb	%bh, %bh
    3c34: 00 00                        	addb	%al, (%rax)
    3c36: 00 00                        	addb	%al, (%rax)
    3c38: bf a1 00 00 00               	movl	$161, %edi
    3c3d: 00 00                        	addb	%al, (%rax)
    3c3f: 00 07                        	addb	%al, (%rdi)
    3c41: 01 00                        	addl	%eax, (%rax)
    3c43: 00 70 ff                     	addb	%dh, -1(%rax)
    3c46: ff ff                        	<unknown>
    3c48: bf a2 00 00 00               	movl	$162, %edi
    3c4d: 00 00                        	addb	%al, (%rax)
    3c4f: 00 07                        	addb	%al, (%rdi)
    3c51: 02 00                        	addb	(%rax), %al
    3c53: 00 a0 ff ff ff 18            	addb	%ah, 419430399(%rax)
    3c59: 03 00                        	addl	(%rax), %eax
    3c5b: 00 48 7e                     	addb	%cl, 126(%rax)
		...
    3c66: 00 00                        	addb	%al, (%rax)
    3c68: 85 10                        	testl	%edx, (%rax)
    3c6a: 00 00                        	addb	%al, (%rax)
    3c6c: ed                           	inl	%dx, %eax
    3c6d: 03 00                        	addl	(%rax), %eax
    3c6f: 00 7b 7a                     	addb	%bh, 122(%rbx)
    3c72: e8 ff 00 00 00               	callq	0x3d76 <entrypoint+0x37d6>
    3c77: 00 7b 6a                     	addb	%bh, 106(%rbx)
    3c7a: e0 ff                        	loopne	0x3c7b <entrypoint+0x36db>
    3c7c: 00 00                        	addb	%al, (%rax)
    3c7e: 00 00                        	addb	%al, (%rax)
    3c80: bf a1 00 00 00               	movl	$161, %edi
    3c85: 00 00                        	addb	%al, (%rax)
    3c87: 00 07                        	addb	%al, (%rdi)
    3c89: 01 00                        	addl	%eax, (%rax)
    3c8b: 00 e0                        	addb	%ah, %al
    3c8d: ff ff                        	<unknown>
    3c8f: ff 7b 1a                     	<unknown>
    3c92: d0 ff                        	sarb	%bh
    3c94: 00 00                        	addb	%al, (%rax)
    3c96: 00 00                        	addb	%al, (%rax)
    3c98: b7 01                        	movb	$1, %bh
    3c9a: 00 00                        	addb	%al, (%rax)
    3c9c: 00 00                        	addb	%al, (%rax)
    3c9e: 00 00                        	addb	%al, (%rax)
    3ca0: 7b 1a                        	jnp	0x3cbc <entrypoint+0x371c>
    3ca2: c0 ff 00                     	sarb	$0, %bh
    3ca5: 00 00                        	addb	%al, (%rax)
    3ca7: 00 b7 01 00 00 02            	addb	%dh, 33554433(%rdi)
    3cad: 00 00                        	addb	%al, (%rax)
    3caf: 00 7b 1a                     	addb	%bh, 26(%rbx)
    3cb2: d8 ff                        	fdivr	%st(7), %st
    3cb4: 00 00                        	addb	%al, (%rax)
    3cb6: 00 00                        	addb	%al, (%rax)
    3cb8: 7b 1a                        	jnp	0x3cd4 <entrypoint+0x3734>
    3cba: b8 ff 00 00 00               	movl	$255, %eax
    3cbf: 00 18                        	addb	%bl, (%rax)
    3cc1: 01 00                        	addl	%eax, (%rax)
    3cc3: 00 00                        	addb	%al, (%rax)
    3cc5: 9d                           	popfq
		...
    3cce: 00 00                        	addb	%al, (%rax)
    3cd0: 7b 1a                        	jnp	0x3cec <entrypoint+0x374c>
    3cd2: b0 ff                        	movb	$-1, %al
    3cd4: 00 00                        	addb	%al, (%rax)
    3cd6: 00 00                        	addb	%al, (%rax)
    3cd8: 79 a1                        	jns	0x3c7b <entrypoint+0x36db>
    3cda: 78 ff                        	js	0x3cdb <entrypoint+0x373b>
    3cdc: 00 00                        	addb	%al, (%rax)
    3cde: 00 00                        	addb	%al, (%rax)
    3ce0: 7b 1a                        	jnp	0x3cfc <entrypoint+0x375c>
    3ce2: f8                           	clc
    3ce3: ff 00                        	incl	(%rax)
    3ce5: 00 00                        	addb	%al, (%rax)
    3ce7: 00 79 a1                     	addb	%bh, -95(%rcx)
    3cea: 70 ff                        	jo	0x3ceb <entrypoint+0x374b>
    3cec: 00 00                        	addb	%al, (%rax)
    3cee: 00 00                        	addb	%al, (%rax)
    3cf0: 7b 1a                        	jnp	0x3d0c <entrypoint+0x376c>
    3cf2: f0                           	lock
    3cf3: ff 00                        	incl	(%rax)
    3cf5: 00 00                        	addb	%al, (%rax)
    3cf7: 00 bf a1 00 00 00            	addb	%bh, 161(%rdi)
    3cfd: 00 00                        	addb	%al, (%rax)
    3cff: 00 07                        	addb	%al, (%rdi)
    3d01: 01 00                        	addl	%eax, (%rax)
    3d03: 00 b0 ff ff ff 18            	addb	%dh, 419430399(%rax)
    3d09: 02 00                        	addb	(%rax), %al
    3d0b: 00 20                        	addb	%ah, (%rax)
    3d0d: 9d                           	popfq
		...
    3d16: 00 00                        	addb	%al, (%rax)
    3d18: 85 10                        	testl	%edx, (%rax)
    3d1a: 00 00                        	addb	%al, (%rax)
    3d1c: 7b 08                        	jnp	0x3d26 <entrypoint+0x3786>
    3d1e: 00 00                        	addb	%al, (%rax)
    3d20: 85 10                        	testl	%edx, (%rax)
    3d22: 00 00                        	addb	%al, (%rax)
    3d24: ff ff                        	<unknown>
    3d26: ff ff                        	<unknown>
    3d28: 7b 2a                        	jnp	0x3d54 <entrypoint+0x37b4>
    3d2a: a8 ff                        	testb	$-1, %al
    3d2c: 00 00                        	addb	%al, (%rax)
    3d2e: 00 00                        	addb	%al, (%rax)
    3d30: 7b 1a                        	jnp	0x3d4c <entrypoint+0x37ac>
    3d32: a0 ff 00 00 00 00 bf a1 00   	movabsb	45527477971321087, %al
    3d3b: 00 00                        	addb	%al, (%rax)
    3d3d: 00 00                        	addb	%al, (%rax)
    3d3f: 00 07                        	addb	%al, (%rdi)
    3d41: 01 00                        	addl	%eax, (%rax)
    3d43: 00 90 ff ff ff bf            	addb	%dl, -1073741825(%rax)
    3d49: a2 00 00 00 00 00 00 07 02   	movabsb	%al, 146085512912830464
    3d52: 00 00                        	addb	%al, (%rax)
    3d54: a0 ff ff ff 18 03 00 00 c8   	movabsb	-4035225252819632129, %al
    3d5d: 84 00                        	testb	%al, (%rax)
		...
    3d67: 00 85 10 00 00 d0            	addb	%al, -805306352(%rbp)
    3d6d: 03 00                        	addl	(%rax), %eax
    3d6f: 00 79 a6                     	addb	%bh, -90(%rcx)
    3d72: 90                           	nop
    3d73: ff 00                        	incl	(%rax)
    3d75: 00 00                        	addb	%al, (%rax)
    3d77: 00 79 a7                     	addb	%bh, -89(%rcx)
    3d7a: 98                           	cwtl
    3d7b: ff 00                        	incl	(%rax)
    3d7d: 00 00                        	addb	%al, (%rax)
    3d7f: 00 bf a1 00 00 00            	addb	%bh, 161(%rdi)
    3d85: 00 00                        	addb	%al, (%rax)
    3d87: 00 07                        	addb	%al, (%rdi)
    3d89: 01 00                        	addl	%eax, (%rax)
    3d8b: 00 80 ff ff ff bf            	addb	%al, -1073741825(%rax)
    3d91: a2 00 00 00 00 00 00 07 02   	movabsb	%al, 146085512912830464
    3d9a: 00 00                        	addb	%al, (%rax)
    3d9c: a8 ff                        	testb	$-1, %al
    3d9e: ff ff                        	<unknown>
    3da0: 18 03                        	sbbb	%al, (%rbx)
    3da2: 00 00                        	addb	%al, (%rax)
    3da4: c8 84 00 00                  	enter	$132, $0
		...
    3db0: 85 10                        	testl	%edx, (%rax)
    3db2: 00 00                        	addb	%al, (%rax)
    3db4: c7 03 00 00 7b 7a            	movl	$2054881280, (%rbx)
    3dba: e8 ff 00 00 00               	callq	0x3ebe <entrypoint+0x391e>
    3dbf: 00 7b 6a                     	addb	%bh, 106(%rbx)
    3dc2: e0 ff                        	loopne	0x3dc3 <entrypoint+0x3823>
    3dc4: 00 00                        	addb	%al, (%rax)
    3dc6: 00 00                        	addb	%al, (%rax)
    3dc8: bf a1 00 00 00               	movl	$161, %edi
    3dcd: 00 00                        	addb	%al, (%rax)
    3dcf: 00 07                        	addb	%al, (%rdi)
    3dd1: 01 00                        	addl	%eax, (%rax)
    3dd3: 00 e0                        	addb	%ah, %al
    3dd5: ff ff                        	<unknown>
    3dd7: ff 7b 1a                     	<unknown>
    3dda: d0 ff                        	sarb	%bh
    3ddc: 00 00                        	addb	%al, (%rax)
    3dde: 00 00                        	addb	%al, (%rax)
    3de0: b7 01                        	movb	$1, %bh
    3de2: 00 00                        	addb	%al, (%rax)
    3de4: 00 00                        	addb	%al, (%rax)
    3de6: 00 00                        	addb	%al, (%rax)
    3de8: 7b 1a                        	jnp	0x3e04 <entrypoint+0x3864>
    3dea: c0 ff 00                     	sarb	$0, %bh
    3ded: 00 00                        	addb	%al, (%rax)
    3def: 00 b7 01 00 00 02            	addb	%dh, 33554433(%rdi)
    3df5: 00 00                        	addb	%al, (%rax)
    3df7: 00 7b 1a                     	addb	%bh, 26(%rbx)
    3dfa: d8 ff                        	fdivr	%st(7), %st
    3dfc: 00 00                        	addb	%al, (%rax)
    3dfe: 00 00                        	addb	%al, (%rax)
    3e00: 7b 1a                        	jnp	0x3e1c <entrypoint+0x387c>
    3e02: b8 ff 00 00 00               	movl	$255, %eax
    3e07: 00 18                        	addb	%bl, (%rax)
    3e09: 01 00                        	addl	%eax, (%rax)
    3e0b: 00 38                        	addb	%bh, (%rax)
    3e0d: 9d                           	popfq
		...
    3e16: 00 00                        	addb	%al, (%rax)
    3e18: 7b 1a                        	jnp	0x3e34 <entrypoint+0x3894>
    3e1a: b0 ff                        	movb	$-1, %al
    3e1c: 00 00                        	addb	%al, (%rax)
    3e1e: 00 00                        	addb	%al, (%rax)
    3e20: 79 a1                        	jns	0x3dc3 <entrypoint+0x3823>
    3e22: 88 ff                        	movb	%bh, %bh
    3e24: 00 00                        	addb	%al, (%rax)
    3e26: 00 00                        	addb	%al, (%rax)
    3e28: 7b 1a                        	jnp	0x3e44 <entrypoint+0x38a4>
    3e2a: f8                           	clc
    3e2b: ff 00                        	incl	(%rax)
    3e2d: 00 00                        	addb	%al, (%rax)
    3e2f: 00 79 a1                     	addb	%bh, -95(%rcx)
    3e32: 80 ff 00                     	cmpb	$0, %bh
    3e35: 00 00                        	addb	%al, (%rax)
    3e37: 00 7b 1a                     	addb	%bh, 26(%rbx)
    3e3a: f0                           	lock
    3e3b: ff 00                        	incl	(%rax)
    3e3d: 00 00                        	addb	%al, (%rax)
    3e3f: 00 bf a1 00 00 00            	addb	%bh, 161(%rdi)
    3e45: 00 00                        	addb	%al, (%rax)
    3e47: 00 07                        	addb	%al, (%rdi)
    3e49: 01 00                        	addl	%eax, (%rax)
    3e4b: 00 b0 ff ff ff 18            	addb	%dh, 419430399(%rax)
    3e51: 02 00                        	addb	(%rax), %al
    3e53: 00 58 9d                     	addb	%bl, -99(%rax)
		...
    3e5e: 00 00                        	addb	%al, (%rax)
    3e60: 85 10                        	testl	%edx, (%rax)
    3e62: 00 00                        	addb	%al, (%rax)
    3e64: 52                           	pushq	%rdx
    3e65: 08 00                        	orb	%al, (%rax)
    3e67: 00 85 10 00 00 ff            	addb	%al, -16777200(%rbp)
    3e6d: ff ff                        	<unknown>
    3e6f: ff 7b 2a                     	<unknown>
    3e72: a8 ff                        	testb	$-1, %al
    3e74: 00 00                        	addb	%al, (%rax)
    3e76: 00 00                        	addb	%al, (%rax)
    3e78: 7b 1a                        	jnp	0x3e94 <entrypoint+0x38f4>
    3e7a: a0 ff 00 00 00 00 bf a1 00   	movabsb	45527477971321087, %al
    3e83: 00 00                        	addb	%al, (%rax)
    3e85: 00 00                        	addb	%al, (%rax)
    3e87: 00 07                        	addb	%al, (%rdi)
    3e89: 01 00                        	addl	%eax, (%rax)
    3e8b: 00 90 ff ff ff bf            	addb	%dl, -1073741825(%rax)
    3e91: a2 00 00 00 00 00 00 07 02   	movabsb	%al, 146085512912830464
    3e9a: 00 00                        	addb	%al, (%rax)
    3e9c: a0 ff ff ff 18 03 00 00 c8   	movabsb	-4035225252819632129, %al
    3ea5: 84 00                        	testb	%al, (%rax)
		...
    3eaf: 00 85 10 00 00 a7            	addb	%al, -1493172208(%rbp)
    3eb5: 03 00                        	addl	(%rax), %eax
    3eb7: 00 79 a6                     	addb	%bh, -90(%rcx)
    3eba: 90                           	nop
    3ebb: ff 00                        	incl	(%rax)
    3ebd: 00 00                        	addb	%al, (%rax)
    3ebf: 00 79 a7                     	addb	%bh, -89(%rcx)
    3ec2: 98                           	cwtl
    3ec3: ff 00                        	incl	(%rax)
    3ec5: 00 00                        	addb	%al, (%rax)
    3ec7: 00 bf a1 00 00 00            	addb	%bh, 161(%rdi)
    3ecd: 00 00                        	addb	%al, (%rax)
    3ecf: 00 07                        	addb	%al, (%rdi)
    3ed1: 01 00                        	addl	%eax, (%rax)
    3ed3: 00 80 ff ff ff bf            	addb	%al, -1073741825(%rax)
    3ed9: a2 00 00 00 00 00 00 07 02   	movabsb	%al, 146085512912830464
    3ee2: 00 00                        	addb	%al, (%rax)
    3ee4: a8 ff                        	testb	$-1, %al
    3ee6: ff ff                        	<unknown>
    3ee8: 18 03                        	sbbb	%al, (%rbx)
    3eea: 00 00                        	addb	%al, (%rax)
    3eec: c8 84 00 00                  	enter	$132, $0
		...
    3ef8: 85 10                        	testl	%edx, (%rax)
    3efa: 00 00                        	addb	%al, (%rax)
    3efc: 9e                           	sahf
    3efd: 03 00                        	addl	(%rax), %eax
    3eff: 00 7b 7a                     	addb	%bh, 122(%rbx)
    3f02: e8 ff 00 00 00               	callq	0x4006 <entrypoint+0x3a66>
    3f07: 00 7b 6a                     	addb	%bh, 106(%rbx)
    3f0a: e0 ff                        	loopne	0x3f0b <entrypoint+0x396b>
    3f0c: 00 00                        	addb	%al, (%rax)
    3f0e: 00 00                        	addb	%al, (%rax)
    3f10: bf a1 00 00 00               	movl	$161, %edi
    3f15: 00 00                        	addb	%al, (%rax)
    3f17: 00 07                        	addb	%al, (%rdi)
    3f19: 01 00                        	addl	%eax, (%rax)
    3f1b: 00 e0                        	addb	%ah, %al
    3f1d: ff ff                        	<unknown>
    3f1f: ff 7b 1a                     	<unknown>
    3f22: d0 ff                        	sarb	%bh
    3f24: 00 00                        	addb	%al, (%rax)
    3f26: 00 00                        	addb	%al, (%rax)
    3f28: b7 01                        	movb	$1, %bh
    3f2a: 00 00                        	addb	%al, (%rax)
    3f2c: 00 00                        	addb	%al, (%rax)
    3f2e: 00 00                        	addb	%al, (%rax)
    3f30: 7b 1a                        	jnp	0x3f4c <entrypoint+0x39ac>
    3f32: c0 ff 00                     	sarb	$0, %bh
    3f35: 00 00                        	addb	%al, (%rax)
    3f37: 00 b7 01 00 00 02            	addb	%dh, 33554433(%rdi)
    3f3d: 00 00                        	addb	%al, (%rax)
    3f3f: 00 7b 1a                     	addb	%bh, 26(%rbx)
    3f42: d8 ff                        	fdivr	%st(7), %st
    3f44: 00 00                        	addb	%al, (%rax)
    3f46: 00 00                        	addb	%al, (%rax)
    3f48: 7b 1a                        	jnp	0x3f64 <entrypoint+0x39c4>
    3f4a: b8 ff 00 00 00               	movl	$255, %eax
    3f4f: 00 18                        	addb	%bl, (%rax)
    3f51: 01 00                        	addl	%eax, (%rax)
    3f53: 00 70 9d                     	addb	%dh, -99(%rax)
		...
    3f5e: 00 00                        	addb	%al, (%rax)
    3f60: 7b 1a                        	jnp	0x3f7c <entrypoint+0x39dc>
    3f62: b0 ff                        	movb	$-1, %al
    3f64: 00 00                        	addb	%al, (%rax)
    3f66: 00 00                        	addb	%al, (%rax)
    3f68: 79 a1                        	jns	0x3f0b <entrypoint+0x396b>
    3f6a: 88 ff                        	movb	%bh, %bh
    3f6c: 00 00                        	addb	%al, (%rax)
    3f6e: 00 00                        	addb	%al, (%rax)
    3f70: 7b 1a                        	jnp	0x3f8c <entrypoint+0x39ec>
    3f72: f8                           	clc
    3f73: ff 00                        	incl	(%rax)
    3f75: 00 00                        	addb	%al, (%rax)
    3f77: 00 79 a1                     	addb	%bh, -95(%rcx)
    3f7a: 80 ff 00                     	cmpb	$0, %bh
    3f7d: 00 00                        	addb	%al, (%rax)
    3f7f: 00 7b 1a                     	addb	%bh, 26(%rbx)
    3f82: f0                           	lock
    3f83: ff 00                        	incl	(%rax)
    3f85: 00 00                        	addb	%al, (%rax)
    3f87: 00 bf a1 00 00 00            	addb	%bh, 161(%rdi)
    3f8d: 00 00                        	addb	%al, (%rax)
    3f8f: 00 07                        	addb	%al, (%rdi)
    3f91: 01 00                        	addl	%eax, (%rax)
    3f93: 00 b0 ff ff ff 18            	addb	%dh, 419430399(%rax)
    3f99: 02 00                        	addb	(%rax), %al
    3f9b: 00 90 9d 00 00 00            	addb	%dl, 157(%rax)
    3fa1: 00 00                        	addb	%al, (%rax)
    3fa3: 00 00                        	addb	%al, (%rax)
    3fa5: 00 00                        	addb	%al, (%rax)
    3fa7: 00 85 10 00 00 29            	addb	%al, 687865872(%rbp)
    3fad: 08 00                        	orb	%al, (%rax)
    3faf: 00 85 10 00 00 ff            	addb	%al, -16777200(%rbp)
    3fb5: ff ff                        	<unknown>
    3fb7: ff 7b 21                     	<unknown>
    3fba: 00 00                        	addb	%al, (%rax)
    3fbc: 00 00                        	addb	%al, (%rax)
    3fbe: 00 00                        	addb	%al, (%rax)
    3fc0: 67 03 00                     	addl	(%eax), %eax
    3fc3: 00 01                        	addb	%al, (%rcx)
    3fc5: 00 00                        	addb	%al, (%rax)
    3fc7: 00 0f                        	addb	%cl, (%rdi)
    3fc9: 32 00                        	xorb	(%rax), %al
    3fcb: 00 00                        	addb	%al, (%rax)
    3fcd: 00 00                        	addb	%al, (%rax)
    3fcf: 00 7b 21                     	addb	%bh, 33(%rbx)
    3fd2: 08 00                        	orb	%al, (%rax)
    3fd4: 00 00                        	addb	%al, (%rax)
    3fd6: 00 00                        	addb	%al, (%rax)
    3fd8: 95                           	xchgl	%ebp, %eax
    3fd9: 00 00                        	addb	%al, (%rax)
    3fdb: 00 00                        	addb	%al, (%rax)
    3fdd: 00 00                        	addb	%al, (%rax)
    3fdf: 00 bf 24 00 00 00            	addb	%bh, 36(%rdi)
    3fe5: 00 00                        	addb	%al, (%rax)
    3fe7: 00 0f                        	addb	%cl, (%rdi)
    3fe9: 34 00                        	xorb	$0, %al
    3feb: 00 00                        	addb	%al, (%rax)
    3fed: 00 00                        	addb	%al, (%rax)
    3fef: 00 7b 41                     	addb	%bh, 65(%rbx)
    3ff2: 08 00                        	orb	%al, (%rax)
    3ff4: 00 00                        	addb	%al, (%rax)
    3ff6: 00 00                        	addb	%al, (%rax)
    3ff8: 7b 21                        	jnp	0x401b <entrypoint+0x3a7b>
    3ffa: 00 00                        	addb	%al, (%rax)
    3ffc: 00 00                        	addb	%al, (%rax)
    3ffe: 00 00                        	addb	%al, (%rax)
    4000: 95                           	xchgl	%ebp, %eax
    4001: 00 00                        	addb	%al, (%rax)
    4003: 00 00                        	addb	%al, (%rax)
    4005: 00 00                        	addb	%al, (%rax)
    4007: 00 79 23                     	addb	%bh, 35(%rcx)
    400a: 08 00                        	orb	%al, (%rax)
    400c: 00 00                        	addb	%al, (%rax)
    400e: 00 00                        	addb	%al, (%rax)
    4010: 7b 31                        	jnp	0x4043 <entrypoint+0x3aa3>
    4012: 08 00                        	orb	%al, (%rax)
    4014: 00 00                        	addb	%al, (%rax)
    4016: 00 00                        	addb	%al, (%rax)
    4018: 79 22                        	jns	0x403c <entrypoint+0x3a9c>
    401a: 00 00                        	addb	%al, (%rax)
    401c: 00 00                        	addb	%al, (%rax)
    401e: 00 00                        	addb	%al, (%rax)
    4020: 7b 21                        	jnp	0x4043 <entrypoint+0x3aa3>
    4022: 00 00                        	addb	%al, (%rax)
    4024: 00 00                        	addb	%al, (%rax)
    4026: 00 00                        	addb	%al, (%rax)
    4028: 95                           	xchgl	%ebp, %eax
    4029: 00 00                        	addb	%al, (%rax)
    402b: 00 00                        	addb	%al, (%rax)
    402d: 00 00                        	addb	%al, (%rax)
    402f: 00 bf 25 00 00 00            	addb	%bh, 37(%rdi)
    4035: 00 00                        	addb	%al, (%rax)
    4037: 00 b7 00 00 00 00            	addb	%dh, (%rdi)
    403d: 00 00                        	addb	%al, (%rax)
    403f: 00 5d 45                     	addb	%bl, 69(%rbp)
    4042: 09 00                        	orl	%eax, (%rax)
    4044: 00 00                        	addb	%al, (%rax)
    4046: 00 00                        	addb	%al, (%rax)
    4048: b7 00                        	movb	$0, %bh
    404a: 00 00                        	addb	%al, (%rax)
    404c: 01 00                        	addl	%eax, (%rax)
    404e: 00 00                        	addb	%al, (%rax)
    4050: 1d 31 07 00 00               	sbbl	$1841, %eax
    4055: 00 00                        	addb	%al, (%rax)
    4057: 00 bf 32 00 00 00            	addb	%bh, 50(%rdi)
    405d: 00 00                        	addb	%al, (%rax)
    405f: 00 bf 53 00 00 00            	addb	%bh, 83(%rdi)
    4065: 00 00                        	addb	%al, (%rax)
    4067: 00 85 10 00 00 a6            	addb	%al, -1509949424(%rbp)
    406d: 08 00                        	orb	%al, (%rax)
    406f: 00 bf 01 00 00 00            	addb	%bh, 1(%rdi)
    4075: 00 00                        	addb	%al, (%rax)
    4077: 00 b7 00 00 00 01            	addb	%dh, 16777216(%rdi)
    407d: 00 00                        	addb	%al, (%rax)
    407f: 00 15 01 01 00 00            	addb	%dl, 257(%rip)  # 4186 <entrypoint+0x3be6>
    4085: 00 00                        	addb	%al, (%rax)
    4087: 00 b7 00 00 00 00            	addb	%dh, (%rdi)
    408d: 00 00                        	addb	%al, (%rax)
    408f: 00 57 00                     	addb	%dl, (%rdi)
    4092: 00 00                        	addb	%al, (%rax)
    4094: 01 00                        	addl	%eax, (%rax)
    4096: 00 00                        	addb	%al, (%rax)
    4098: 95                           	xchgl	%ebp, %eax
    4099: 00 00                        	addb	%al, (%rax)
    409b: 00 00                        	addb	%al, (%rax)
    409d: 00 00                        	addb	%al, (%rax)
    409f: 00 67 02                     	addb	%ah, 2(%rdi)
    40a2: 00 00                        	addb	%al, (%rax)
    40a4: 04 00                        	addb	$0, %al
    40a6: 00 00                        	addb	%al, (%rax)
    40a8: 79 10                        	jns	0x40ba <entrypoint+0x3b1a>
    40aa: 00 00                        	addb	%al, (%rax)
    40ac: 00 00                        	addb	%al, (%rax)
    40ae: 00 00                        	addb	%al, (%rax)
    40b0: 0f 20 00                     	<unknown>
    40b3: 00 00                        	addb	%al, (%rax)
    40b5: 00 00                        	addb	%al, (%rax)
    40b7: 00 95 00 00 00 00            	addb	%dl, (%rbp)
    40bd: 00 00                        	addb	%al, (%rax)
    40bf: 00 67 02                     	addb	%ah, 2(%rdi)
    40c2: 00 00                        	addb	%al, (%rax)
    40c4: 06                           	<unknown>
    40c5: 00 00                        	addb	%al, (%rax)
    40c7: 00 79 10                     	addb	%bh, 16(%rcx)
    40ca: 00 00                        	addb	%al, (%rax)
    40cc: 00 00                        	addb	%al, (%rax)
    40ce: 00 00                        	addb	%al, (%rax)
    40d0: 0f 20 00                     	<unknown>
    40d3: 00 00                        	addb	%al, (%rax)
    40d5: 00 00                        	addb	%al, (%rax)
    40d7: 00 95 00 00 00 00            	addb	%dl, (%rbp)
    40dd: 00 00                        	addb	%al, (%rax)
    40df: 00 bf 16 00 00 00            	addb	%bh, 22(%rdi)
    40e5: 00 00                        	addb	%al, (%rax)
    40e7: 00 bf a7 00 00 00            	addb	%bh, 167(%rdi)
    40ed: 00 00                        	addb	%al, (%rax)
    40ef: 00 07                        	addb	%al, (%rdi)
    40f1: 07                           	<unknown>
    40f2: 00 00                        	addb	%al, (%rax)
    40f4: e0 ff                        	loopne	0x40f5 <entrypoint+0x3b55>
    40f6: ff ff                        	<unknown>
    40f8: bf 71 00 00 00               	movl	$113, %edi
    40fd: 00 00                        	addb	%al, (%rax)
    40ff: 00 18                        	addb	%bl, (%rax)
    4101: 03 00                        	addl	(%rax), %eax
    4103: 00 2f                        	addb	%ch, (%rdi)
    4105: 8c 00                        	movw	%es, (%rax)
		...
    410f: 00 b7 04 00 00 11            	addb	%dh, 285212676(%rdi)
    4115: 00 00                        	addb	%al, (%rax)
    4117: 00 85 10 00 00 16            	addb	%al, 369098768(%rbp)
    411d: 07                           	<unknown>
    411e: 00 00                        	addb	%al, (%rax)
    4120: 7b 6a                        	jnp	0x418c <entrypoint+0x3bec>
    4122: f8                           	clc
    4123: ff 00                        	incl	(%rax)
    4125: 00 00                        	addb	%al, (%rax)
    4127: 00 bf a2 00 00 00            	addb	%bh, 162(%rdi)
    412d: 00 00                        	addb	%al, (%rax)
    412f: 00 07                        	addb	%al, (%rdi)
    4131: 02 00                        	addb	(%rax), %al
    4133: 00 f8                        	addb	%bh, %al
    4135: ff ff                        	<unknown>
    4137: ff bf 71 00 00 00            	<unknown>
    413d: 00 00                        	addb	%al, (%rax)
    413f: 00 18                        	addb	%bl, (%rax)
    4141: 03 00                        	addl	(%rax), %eax
    4143: 00 a8 9d 00 00 00            	addb	%ch, 157(%rax)
    4149: 00 00                        	addb	%al, (%rax)
    414b: 00 00                        	addb	%al, (%rax)
    414d: 00 00                        	addb	%al, (%rax)
    414f: 00 85 10 00 00 29            	addb	%al, 687865872(%rbp)
    4155: 02 00                        	addb	(%rax), %al
    4157: 00 bf 71 00 00 00            	addb	%bh, 113(%rdi)
    415d: 00 00                        	addb	%al, (%rax)
    415f: 00 85 10 00 00 6f            	addb	%al, 1862270992(%rbp)
    4165: 02 00                        	addb	(%rax), %al
    4167: 00 95 00 00 00 00            	addb	%dl, (%rbp)
    416d: 00 00                        	addb	%al, (%rax)
    416f: 00 bf 23 00 00 00            	addb	%bh, 35(%rdi)
    4175: 00 00                        	addb	%al, (%rax)
    4177: 00 77 03                     	addb	%dh, 3(%rdi)
    417a: 00 00                        	addb	%al, (%rax)
    417c: 01 00                        	addl	%eax, (%rax)
    417e: 00 00                        	addb	%al, (%rax)
    4180: 18 04 00                     	sbbb	%al, (%rax,%rax)
    4183: 00 55 55                     	addb	%dl, 85(%rbp)
    4186: 55                           	pushq	%rbp
    4187: 55                           	pushq	%rbp
    4188: 00 00                        	addb	%al, (%rax)
    418a: 00 00                        	addb	%al, (%rax)
    418c: 55                           	pushq	%rbp
    418d: 55                           	pushq	%rbp
    418e: 55                           	pushq	%rbp
    418f: 55                           	pushq	%rbp
    4190: 5f                           	popq	%rdi
    4191: 43 00 00                     	addb	%al, (%r8)
    4194: 00 00                        	addb	%al, (%rax)
    4196: 00 00                        	addb	%al, (%rax)
    4198: bf 24 00 00 00               	movl	$36, %edi
    419d: 00 00                        	addb	%al, (%rax)
    419f: 00 1f                        	addb	%bl, (%rdi)
    41a1: 34 00                        	xorb	$0, %al
    41a3: 00 00                        	addb	%al, (%rax)
    41a5: 00 00                        	addb	%al, (%rax)
    41a7: 00 18                        	addb	%bl, (%rax)
    41a9: 03 00                        	addl	(%rax), %eax
    41ab: 00 33                        	addb	%dh, (%rbx)
    41ad: 33 33                        	xorl	(%rbx), %esi
    41af: 33 00                        	xorl	(%rax), %eax
    41b1: 00 00                        	addb	%al, (%rax)
    41b3: 00 33                        	addb	%dh, (%rbx)
    41b5: 33 33                        	xorl	(%rbx), %esi
    41b7: 33 bf 45 00 00 00            	xorl	69(%rdi), %edi
    41bd: 00 00                        	addb	%al, (%rax)
    41bf: 00 5f 35                     	addb	%bl, 53(%rdi)
    41c2: 00 00                        	addb	%al, (%rax)
    41c4: 00 00                        	addb	%al, (%rax)
    41c6: 00 00                        	addb	%al, (%rax)
    41c8: 77 04                        	ja	0x41ce <entrypoint+0x3c2e>
    41ca: 00 00                        	addb	%al, (%rax)
    41cc: 02 00                        	addb	(%rax), %al
    41ce: 00 00                        	addb	%al, (%rax)
    41d0: 5f                           	popq	%rdi
    41d1: 34 00                        	xorb	$0, %al
    41d3: 00 00                        	addb	%al, (%rax)
    41d5: 00 00                        	addb	%al, (%rax)
    41d7: 00 0f                        	addb	%cl, (%rdi)
    41d9: 45 00 00                     	addb	%r8b, (%r8)
    41dc: 00 00                        	addb	%al, (%rax)
    41de: 00 00                        	addb	%al, (%rax)
    41e0: bf 53 00 00 00               	movl	$83, %edi
    41e5: 00 00                        	addb	%al, (%rax)
    41e7: 00 77 03                     	addb	%dh, 3(%rdi)
    41ea: 00 00                        	addb	%al, (%rax)
    41ec: 04 00                        	addb	$0, %al
    41ee: 00 00                        	addb	%al, (%rax)
    41f0: 0f 35                        	sysexitl
    41f2: 00 00                        	addb	%al, (%rax)
    41f4: 00 00                        	addb	%al, (%rax)
    41f6: 00 00                        	addb	%al, (%rax)
    41f8: 18 03                        	sbbb	%al, (%rbx)
    41fa: 00 00                        	addb	%al, (%rax)
    41fc: 0f 0f 0f 0f                  	<unknown>
    4200: 00 00                        	addb	%al, (%rax)
    4202: 00 00                        	addb	%al, (%rax)
    4204: 0f 0f 0f 0f                  	<unknown>
    4208: 5f                           	popq	%rdi
    4209: 35 00 00 00 00               	xorl	$0, %eax
    420e: 00 00                        	addb	%al, (%rax)
    4210: 18 03                        	sbbb	%al, (%rbx)
    4212: 00 00                        	addb	%al, (%rax)
    4214: 01 01                        	addl	%eax, (%rcx)
    4216: 01 01                        	addl	%eax, (%rcx)
    4218: 00 00                        	addb	%al, (%rax)
    421a: 00 00                        	addb	%al, (%rax)
    421c: 01 01                        	addl	%eax, (%rcx)
    421e: 01 01                        	addl	%eax, (%rcx)
    4220: 2f                           	<unknown>
    4221: 35 00 00 00 00               	xorl	$0, %eax
    4226: 00 00                        	addb	%al, (%rax)
    4228: 77 05                        	ja	0x422f <entrypoint+0x3c8f>
    422a: 00 00                        	addb	%al, (%rax)
    422c: 38 00                        	cmpb	%al, (%rax)
    422e: 00 00                        	addb	%al, (%rax)
    4230: 55                           	pushq	%rbp
    4231: 05 08 00 01 00               	addl	$65544, %eax
    4236: 00 00                        	addb	%al, (%rax)
    4238: bf 23 00 00 00               	movl	$35, %edi
    423d: 00 00                        	addb	%al, (%rax)
    423f: 00 07                        	addb	%al, (%rdi)
    4241: 03 00                        	addl	(%rax), %eax
    4243: 00 ff                        	addb	%bh, %bh
    4245: ff ff                        	<unknown>
    4247: ff 5f 13                     	lcalll	*19(%rdi)
    424a: 00 00                        	addb	%al, (%rax)
    424c: 00 00                        	addb	%al, (%rax)
    424e: 00 00                        	addb	%al, (%rax)
    4250: b7 00                        	movb	$0, %bh
    4252: 00 00                        	addb	%al, (%rax)
    4254: 00 00                        	addb	%al, (%rax)
    4256: 00 00                        	addb	%al, (%rax)
    4258: 15 03 02 00 00               	adcl	$515, %eax
    425d: 00 00                        	addb	%al, (%rax)
    425f: 00 1f                        	addb	%bl, (%rdi)
    4261: 32 00                        	xorb	(%rax), %al
    4263: 00 00                        	addb	%al, (%rax)
    4265: 00 00                        	addb	%al, (%rax)
    4267: 00 bf 20 00 00 00            	addb	%bh, 32(%rdi)
    426d: 00 00                        	addb	%al, (%rax)
    426f: 00 95 00 00 00 00            	addb	%dl, (%rbp)
    4275: 00 00                        	addb	%al, (%rax)
    4277: 00 18                        	addb	%bl, (%rax)
    4279: 01 00                        	addl	%eax, (%rax)
    427b: 00 c8                        	addb	%cl, %al
    427d: 9d                           	popfq
		...
    4286: 00 00                        	addb	%al, (%rax)
    4288: 85 10                        	testl	%edx, (%rax)
    428a: 00 00                        	addb	%al, (%rax)
    428c: 8a 07                        	movb	(%rdi), %al
    428e: 00 00                        	addb	%al, (%rax)
    4290: 85 10                        	testl	%edx, (%rax)
    4292: 00 00                        	addb	%al, (%rax)
    4294: ff ff                        	<unknown>
    4296: ff ff                        	<unknown>
    4298: bf 23 00 00 00               	movl	$35, %edi
    429d: 00 00                        	addb	%al, (%rax)
    429f: 00 67 03                     	addb	%ah, 3(%rdi)
    42a2: 00 00                        	addb	%al, (%rax)
    42a4: 20 00                        	andb	%al, (%rax)
    42a6: 00 00                        	addb	%al, (%rax)
    42a8: 77 03                        	ja	0x42ad <entrypoint+0x3d0d>
    42aa: 00 00                        	addb	%al, (%rax)
    42ac: 20 00                        	andb	%al, (%rax)
    42ae: 00 00                        	addb	%al, (%rax)
    42b0: b7 04                        	movb	$4, %bh
    42b2: 00 00                        	addb	%al, (%rax)
    42b4: 00 08                        	addb	%cl, (%rax)
    42b6: 00 00                        	addb	%al, (%rax)
    42b8: 2d 34 12 00 00               	subl	$4660, %eax
    42bd: 00 00                        	addb	%al, (%rax)
    42bf: 00 b7 04 00 00 00            	addb	%dh, 4(%rdi)
    42c5: 00 01                        	addb	%al, (%rcx)
    42c7: 00 2d 34 01 00 00            	addb	%ch, 308(%rip)  # 4401 <entrypoint+0x3e61>
    42cd: 00 00                        	addb	%al, (%rax)
    42cf: 00 05 00 15 00 00            	addb	%al, 5376(%rip)  # 57d5 <entrypoint+0x5235>
    42d5: 00 00                        	addb	%al, (%rax)
    42d7: 00 18                        	addb	%bl, (%rax)
    42d9: 04 00                        	addb	$0, %al
    42db: 00 c0                        	addb	%al, %al
    42dd: ff ff                        	<unknown>
    42df: ff 00                        	incl	(%rax)
    42e1: 00 00                        	addb	%al, (%rax)
    42e3: 00 00                        	addb	%al, (%rax)
    42e5: 00 00                        	addb	%al, (%rax)
    42e7: 00 bf 23 00 00 00            	addb	%bh, 35(%rdi)
    42ed: 00 00                        	addb	%al, (%rax)
    42ef: 00 5f 43                     	addb	%bl, 67(%rdi)
    42f2: 00 00                        	addb	%al, (%rax)
    42f4: 00 00                        	addb	%al, (%rax)
    42f6: 00 00                        	addb	%al, (%rax)
    42f8: 77 03                        	ja	0x42fd <entrypoint+0x3d5d>
    42fa: 00 00                        	addb	%al, (%rax)
    42fc: 06                           	<unknown>
    42fd: 00 00                        	addb	%al, (%rax)
    42ff: 00 07                        	addb	%al, (%rdi)
    4301: 03 00                        	addl	(%rax), %eax
    4303: 00 e0                        	addb	%ah, %al
    4305: ff ff                        	<unknown>
    4307: ff 25 03 32 00 df            	jmpq	*-553635325(%rip)  # ffffffffdf007510
    430d: 03 00                        	addl	(%rax), %eax
    430f: 00 bf 14 00 00 00            	addb	%bh, 20(%rdi)
    4315: 00 00                        	addb	%al, (%rax)
    4317: 00 0f                        	addb	%cl, (%rdi)
    4319: 34 00                        	xorb	$0, %al
    431b: 00 00                        	addb	%al, (%rax)
    431d: 00 00                        	addb	%al, (%rax)
    431f: 00 71 44                     	addb	%dh, 68(%rcx)
    4322: 30 01                        	xorb	%al, (%rcx)
    4324: 00 00                        	addb	%al, (%rax)
    4326: 00 00                        	addb	%al, (%rax)
    4328: 79 13                        	jns	0x433d <entrypoint+0x3d9d>
    432a: 08 01                        	orb	%al, (%rcx)
    432c: 00 00                        	addb	%al, (%rax)
    432e: 00 00                        	addb	%al, (%rax)
    4330: 3d 34 33 00 00               	cmpl	$13108, %eax
    4335: 00 00                        	addb	%al, (%rax)
    4337: 00 67 04                     	addb	%ah, 4(%rdi)
    433a: 00 00                        	addb	%al, (%rax)
    433c: 03 00                        	addl	(%rax), %eax
    433e: 00 00                        	addb	%al, (%rax)
    4340: 79 11                        	jns	0x4353 <entrypoint+0x3db3>
    4342: 00 01                        	addb	%al, (%rcx)
    4344: 00 00                        	addb	%al, (%rax)
    4346: 00 00                        	addb	%al, (%rax)
    4348: 05 00 20 00 00               	addl	$8192, %eax
    434d: 00 00                        	addb	%al, (%rax)
    434f: 00 18                        	addb	%bl, (%rax)
    4351: 03 00                        	addl	(%rax), %eax
    4353: 00 c0                        	addb	%al, %al
    4355: ff ff                        	<unknown>
    4357: ff 00                        	incl	(%rax)
    4359: 00 00                        	addb	%al, (%rax)
    435b: 00 00                        	addb	%al, (%rax)
    435d: 00 00                        	addb	%al, (%rax)
    435f: 00 bf 24 00 00 00            	addb	%bh, 36(%rdi)
    4365: 00 00                        	addb	%al, (%rax)
    4367: 00 5f 34                     	addb	%bl, 52(%rdi)
    436a: 00 00                        	addb	%al, (%rax)
    436c: 00 00                        	addb	%al, (%rax)
    436e: 00 00                        	addb	%al, (%rax)
    4370: 77 04                        	ja	0x4376 <entrypoint+0x3dd6>
    4372: 00 00                        	addb	%al, (%rax)
    4374: 03 00                        	addl	(%rax), %eax
    4376: 00 00                        	addb	%al, (%rax)
    4378: 05 00 1a 00 00               	addl	$6656, %eax
    437d: 00 00                        	addb	%al, (%rax)
    437f: 00 18                        	addb	%bl, (%rax)
    4381: 04 00                        	addb	$0, %al
    4383: 00 00                        	addb	%al, (%rax)
    4385: f0                           	lock
    4386: ff ff                        	<unknown>
		...
    4390: bf 23 00 00 00               	movl	$35, %edi
    4395: 00 00                        	addb	%al, (%rax)
    4397: 00 5f 43                     	addb	%bl, 67(%rdi)
    439a: 00 00                        	addb	%al, (%rax)
    439c: 00 00                        	addb	%al, (%rax)
    439e: 00 00                        	addb	%al, (%rax)
    43a0: 77 03                        	ja	0x43a5 <entrypoint+0x3e05>
    43a2: 00 00                        	addb	%al, (%rax)
    43a4: 0c 00                        	orb	$0, %al
    43a6: 00 00                        	addb	%al, (%rax)
    43a8: 07                           	<unknown>
    43a9: 03 00                        	addl	(%rax), %eax
    43ab: 00 f0                        	addb	%dh, %al
    43ad: ff ff                        	<unknown>
    43af: ff b7 04 00 00 00            	pushq	4(%rdi)
    43b5: 01 00                        	addl	%eax, (%rax)
    43b7: 00 2d 34 01 00 00            	addb	%ch, 308(%rip)  # 44f1 <entrypoint+0x3f51>
    43bd: 00 00                        	addb	%al, (%rax)
    43bf: 00 05 00 24 00 00            	addb	%al, 9216(%rip)  # 67c5 <entrypoint+0x6225>
    43c5: 00 00                        	addb	%al, (%rax)
    43c7: 00 bf 14 00 00 00            	addb	%bh, 20(%rdi)
    43cd: 00 00                        	addb	%al, (%rax)
    43cf: 00 0f                        	addb	%cl, (%rdi)
    43d1: 34 00                        	xorb	$0, %al
    43d3: 00 00                        	addb	%al, (%rax)
    43d5: 00 00                        	addb	%al, (%rax)
    43d7: 00 71 44                     	addb	%dh, 68(%rcx)
    43da: 10 05 00 00 00 00            	adcb	%al, (%rip)  # 43e0 <entrypoint+0x3e40>
    43e0: 67 04 00                     	addb	$0, %al
    43e3: 00 06                        	addb	%al, (%rsi)
    43e5: 00 00                        	addb	%al, (%rax)
    43e7: 00 bf 23 00 00 00            	addb	%bh, 35(%rdi)
    43ed: 00 00                        	addb	%al, (%rax)
    43ef: 00 77 03                     	addb	%dh, 3(%rdi)
    43f2: 00 00                        	addb	%al, (%rax)
    43f4: 06                           	<unknown>
    43f5: 00 00                        	addb	%al, (%rax)
    43f7: 00 57 03                     	addb	%dl, 3(%rdi)
    43fa: 00 00                        	addb	%al, (%rax)
    43fc: 3f                           	<unknown>
    43fd: 00 00                        	addb	%al, (%rax)
    43ff: 00 4f 34                     	addb	%cl, 52(%rdi)
    4402: 00 00                        	addb	%al, (%rax)
    4404: 00 00                        	addb	%al, (%rax)
    4406: 00 00                        	addb	%al, (%rax)
    4408: 79 13                        	jns	0x441d <entrypoint+0x3e7d>
    440a: 18 01                        	sbbb	%al, (%rcx)
    440c: 00 00                        	addb	%al, (%rax)
    440e: 00 00                        	addb	%al, (%rax)
    4410: 3d 34 20 00 00               	cmpl	$8244, %eax
    4415: 00 00                        	addb	%al, (%rax)
    4417: 00 79 13                     	addb	%bh, 19(%rcx)
    441a: 10 01                        	adcb	%al, (%rcx)
    441c: 00 00                        	addb	%al, (%rax)
    441e: 00 00                        	addb	%al, (%rax)
    4420: 0f 43 00                     	cmovael	(%rax), %eax
    4423: 00 00                        	addb	%al, (%rax)
    4425: 00 00                        	addb	%al, (%rax)
    4427: 00 71 34                     	addb	%dh, 52(%rcx)
    442a: 00 00                        	addb	%al, (%rax)
    442c: 00 00                        	addb	%al, (%rax)
    442e: 00 00                        	addb	%al, (%rax)
    4430: 79 13                        	jns	0x4445 <entrypoint+0x3ea5>
    4432: 28 01                        	subb	%al, (%rcx)
    4434: 00 00                        	addb	%al, (%rax)
    4436: 00 00                        	addb	%al, (%rax)
    4438: 3d 34 1e 00 00               	cmpl	$7732, %eax
    443d: 00 00                        	addb	%al, (%rax)
    443f: 00 67 04                     	addb	%ah, 4(%rdi)
    4442: 00 00                        	addb	%al, (%rax)
    4444: 03 00                        	addl	(%rax), %eax
    4446: 00 00                        	addb	%al, (%rax)
    4448: 79 11                        	jns	0x445b <entrypoint+0x3ebb>
    444a: 20 01                        	andb	%al, (%rcx)
    444c: 00 00                        	addb	%al, (%rax)
    444e: 00 00                        	addb	%al, (%rax)
    4450: 0f 41 00                     	cmovnol	(%rax), %eax
    4453: 00 00                        	addb	%al, (%rax)
    4455: 00 00                        	addb	%al, (%rax)
    4457: 00 57 02                     	addb	%dl, 2(%rdi)
    445a: 00 00                        	addb	%al, (%rax)
    445c: 3f                           	<unknown>
    445d: 00 00                        	addb	%al, (%rax)
    445f: 00 b7 00 00 00 01            	addb	%dh, 16777216(%rdi)
    4465: 00 00                        	addb	%al, (%rax)
    4467: 00 b7 03 00 00 01            	addb	%dh, 16777219(%rdi)
    446d: 00 00                        	addb	%al, (%rax)
    446f: 00 6f 23                     	addb	%ch, 35(%rdi)
    4472: 00 00                        	addb	%al, (%rax)
    4474: 00 00                        	addb	%al, (%rax)
    4476: 00 00                        	addb	%al, (%rax)
    4478: 79 11                        	jns	0x448b <entrypoint+0x3eeb>
    447a: 00 00                        	addb	%al, (%rax)
    447c: 00 00                        	addb	%al, (%rax)
    447e: 00 00                        	addb	%al, (%rax)
    4480: 5f                           	popq	%rdi
    4481: 31 00                        	xorl	%eax, (%rax)
    4483: 00 00                        	addb	%al, (%rax)
    4485: 00 00                        	addb	%al, (%rax)
    4487: 00 55 01                     	addb	%dl, 1(%rbp)
    448a: 01 00                        	addl	%eax, (%rax)
    448c: 00 00                        	addb	%al, (%rax)
    448e: 00 00                        	addb	%al, (%rax)
    4490: b7 00                        	movb	$0, %bh
    4492: 00 00                        	addb	%al, (%rax)
    4494: 00 00                        	addb	%al, (%rax)
    4496: 00 00                        	addb	%al, (%rax)
    4498: 95                           	xchgl	%ebp, %eax
    4499: 00 00                        	addb	%al, (%rax)
    449b: 00 00                        	addb	%al, (%rax)
    449d: 00 00                        	addb	%al, (%rax)
    449f: 00 18                        	addb	%bl, (%rax)
    44a1: 01 00                        	addl	%eax, (%rax)
    44a3: 00 18                        	addb	%bl, (%rax)
    44a5: 9e                           	sahf
		...
    44ae: 00 00                        	addb	%al, (%rax)
    44b0: bf 32 00 00 00               	movl	$50, %edi
    44b5: 00 00                        	addb	%al, (%rax)
    44b7: 00 b7 03 00 00 e0            	addb	%dh, -536870909(%rdi)
    44bd: 03 00                        	addl	(%rax), %eax
    44bf: 00 85 10 00 00 5d            	addb	%al, 1560281104(%rbp)
    44c5: 07                           	<unknown>
    44c6: 00 00                        	addb	%al, (%rax)
    44c8: 85 10                        	testl	%edx, (%rax)
    44ca: 00 00                        	addb	%al, (%rax)
    44cc: ff ff                        	<unknown>
    44ce: ff ff                        	<unknown>
    44d0: 18 01                        	sbbb	%al, (%rcx)
    44d2: 00 00                        	addb	%al, (%rax)
    44d4: 30 9e 00 00 00 00            	xorb	%bl, (%rsi)
    44da: 00 00                        	addb	%al, (%rax)
    44dc: 00 00                        	addb	%al, (%rax)
    44de: 00 00                        	addb	%al, (%rax)
    44e0: 05 00 0b 00 00               	addl	$2816, %eax
    44e5: 00 00                        	addb	%al, (%rax)
    44e7: 00 18                        	addb	%bl, (%rax)
    44e9: 01 00                        	addl	%eax, (%rax)
    44eb: 00 48 9e                     	addb	%cl, -98(%rax)
		...
    44f6: 00 00                        	addb	%al, (%rax)
    44f8: bf 32 00 00 00               	movl	$50, %edi
    44fd: 00 00                        	addb	%al, (%rax)
    44ff: 00 b7 03 00 00 00            	addb	%dh, 3(%rdi)
    4505: 01 00                        	addl	%eax, (%rax)
    4507: 00 85 10 00 00 54            	addb	%al, 1409286160(%rbp)
    450d: 07                           	<unknown>
    450e: 00 00                        	addb	%al, (%rax)
    4510: 85 10                        	testl	%edx, (%rax)
    4512: 00 00                        	addb	%al, (%rax)
    4514: ff ff                        	<unknown>
    4516: ff ff                        	<unknown>
    4518: 18 01                        	sbbb	%al, (%rcx)
    451a: 00 00                        	addb	%al, (%rax)
    451c: 60                           	<unknown>
    451d: 9e                           	sahf
		...
    4526: 00 00                        	addb	%al, (%rax)
    4528: 05 00 02 00 00               	addl	$512, %eax
    452d: 00 00                        	addb	%al, (%rax)
    452f: 00 18                        	addb	%bl, (%rax)
    4531: 01 00                        	addl	%eax, (%rax)
    4533: 00 78 9e                     	addb	%bh, -98(%rax)
		...
    453e: 00 00                        	addb	%al, (%rax)
    4540: bf 42 00 00 00               	movl	$66, %edi
    4545: 00 00                        	addb	%al, (%rax)
    4547: 00 85 10 00 00 4c            	addb	%al, 1275068432(%rbp)
    454d: 07                           	<unknown>
    454e: 00 00                        	addb	%al, (%rax)
    4550: 85 10                        	testl	%edx, (%rax)
    4552: 00 00                        	addb	%al, (%rax)
    4554: ff ff                        	<unknown>
    4556: ff ff                        	<unknown>
    4558: bf 57 00 00 00               	movl	$87, %edi
    455d: 00 00                        	addb	%al, (%rax)
    455f: 00 7b 4a                     	addb	%bh, 74(%rbx)
    4562: a0 ff 00 00 00 00 bf 16 00   	movabsb	6402456208539903, %al
    456b: 00 00                        	addb	%al, (%rax)
    456d: 00 00                        	addb	%al, (%rax)
    456f: 00 bf a1 00 00 00            	addb	%bh, 161(%rdi)
    4575: 00 00                        	addb	%al, (%rax)
    4577: 00 07                        	addb	%al, (%rdi)
    4579: 01 00                        	addl	%eax, (%rax)
    457b: 00 e0                        	addb	%ah, %al
    457d: ff ff                        	<unknown>
    457f: ff 85 10 00 00 46            	incl	1174405136(%rbp)
    4585: ff ff                        	<unknown>
    4587: ff 79 75                     	<unknown>
    458a: 10 f0                        	adcb	%dh, %al
    458c: 00 00                        	addb	%al, (%rax)
    458e: 00 00                        	addb	%al, (%rax)
    4590: 79 72                        	jns	0x4604 <entrypoint+0x4064>
    4592: 08 f0                        	orb	%dh, %al
    4594: 00 00                        	addb	%al, (%rax)
    4596: 00 00                        	addb	%al, (%rax)
    4598: 79 a0                        	jns	0x453a <entrypoint+0x3f9a>
    459a: e8 ff 00 00 00               	callq	0x469e <entrypoint+0x40fe>
    459f: 00 79 a9                     	addb	%bh, -87(%rcx)
    45a2: e0 ff                        	loopne	0x45a3 <entrypoint+0x4003>
    45a4: 00 00                        	addb	%al, (%rax)
    45a6: 00 00                        	addb	%al, (%rax)
    45a8: 1d 09 31 00 00               	sbbl	$12553, %eax
    45ad: 00 00                        	addb	%al, (%rax)
    45af: 00 15 09 30 00 00            	addb	%dl, 12297(%rip)  # 75be <entrypoint+0x701e>
    45b5: 00 00                        	addb	%al, (%rax)
    45b7: 00 79 71                     	addb	%bh, 113(%rcx)
    45ba: 00 f0                        	addb	%dh, %al
    45bc: 00 00                        	addb	%al, (%rax)
    45be: 00 00                        	addb	%al, (%rax)
    45c0: 7b 1a                        	jnp	0x45dc <entrypoint+0x403c>
    45c2: 90                           	nop
    45c3: ff 00                        	incl	(%rax)
    45c5: 00 00                        	addb	%al, (%rax)
    45c7: 00 bf 67 00 00 00            	addb	%bh, 103(%rdi)
    45cd: 00 00                        	addb	%al, (%rax)
    45cf: 00 57 07                     	addb	%dl, 7(%rdi)
    45d2: 00 00                        	addb	%al, (%rax)
    45d4: 00 ff                        	addb	%bh, %bh
    45d6: 00 00                        	addb	%al, (%rax)
    45d8: 77 07                        	ja	0x45e1 <entrypoint+0x4041>
    45da: 00 00                        	addb	%al, (%rax)
    45dc: 08 00                        	orb	%al, (%rax)
    45de: 00 00                        	addb	%al, (%rax)
    45e0: b7 01                        	movb	$1, %bh
    45e2: 00 00                        	addb	%al, (%rax)
    45e4: 00 00                        	addb	%al, (%rax)
    45e6: 00 00                        	addb	%al, (%rax)
    45e8: 7b 2a                        	jnp	0x4614 <entrypoint+0x4074>
    45ea: 88 ff                        	movb	%bh, %bh
    45ec: 00 00                        	addb	%al, (%rax)
    45ee: 00 00                        	addb	%al, (%rax)
    45f0: 7b 0a                        	jnp	0x45fc <entrypoint+0x405c>
    45f2: 98                           	cwtl
    45f3: ff 00                        	incl	(%rax)
    45f5: 00 00                        	addb	%al, (%rax)
    45f7: 00 7b 7a                     	addb	%bh, 122(%rbx)
    45fa: 80 ff 00                     	cmpb	$0, %bh
    45fd: 00 00                        	addb	%al, (%rax)
    45ff: 00 05 00 03 00 00            	addb	%al, 768(%rip)  # 4905 <entrypoint+0x4365>
    4605: 00 00                        	addb	%al, (%rax)
    4607: 00 2d 74 25 00 00            	addb	%ch, 9588(%rip)  # 6b81 <entrypoint+0x65e1>
    460d: 00 00                        	addb	%al, (%rax)
    460f: 00 bf 81 00 00 00            	addb	%bh, 129(%rdi)
    4615: 00 00                        	addb	%al, (%rax)
    4617: 00 1d 09 23 00 00            	addb	%bl, 8969(%rip)  # 6926 <entrypoint+0x6386>
    461d: 00 00                        	addb	%al, (%rax)
    461f: 00 71 93                     	addb	%dh, -109(%rcx)
    4622: 01 00                        	addl	%eax, (%rax)
    4624: 00 00                        	addb	%al, (%rax)
    4626: 00 00                        	addb	%al, (%rax)
    4628: bf 18 00 00 00               	movl	$24, %edi
    462d: 00 00                        	addb	%al, (%rax)
    462f: 00 0f                        	addb	%cl, (%rdi)
    4631: 38 00                        	cmpb	%al, (%rax)
    4633: 00 00                        	addb	%al, (%rax)
    4635: 00 00                        	addb	%al, (%rax)
    4637: 00 71 94                     	addb	%dh, -108(%rcx)
    463a: 00 00                        	addb	%al, (%rax)
    463c: 00 00                        	addb	%al, (%rax)
    463e: 00 00                        	addb	%al, (%rax)
    4640: 07                           	<unknown>
    4641: 09 00                        	orl	%eax, (%rax)
    4643: 00 02                        	addb	%al, (%rdx)
    4645: 00 00                        	addb	%al, (%rax)
    4647: 00 1d 74 01 00 00            	addb	%bl, 372(%rip)  # 47c1 <entrypoint+0x4221>
    464d: 00 00                        	addb	%al, (%rax)
    464f: 00 05 00 f6 ff 00            	addb	%al, 16774656(%rip)  # 1003c55
    4655: 00 00                        	addb	%al, (%rax)
    4657: 00 2d 81 5c 00 00            	addb	%ch, 23681(%rip)  # a2de
    465d: 00 00                        	addb	%al, (%rax)
    465f: 00 bf 57 00 00 00            	addb	%bh, 87(%rdi)
    4665: 00 00                        	addb	%al, (%rax)
    4667: 00 79 a2                     	addb	%bh, -94(%rcx)
    466a: 90                           	nop
    466b: ff 00                        	incl	(%rax)
    466d: 00 00                        	addb	%al, (%rax)
    466f: 00 2d 28 55 00 00            	addb	%ch, 21800(%rip)  # 9b9d
    4675: 00 00                        	addb	%al, (%rax)
    4677: 00 79 a2                     	addb	%bh, -94(%rcx)
    467a: a0 ff 00 00 00 00 0f 12 00   	movabsb	5083042255208703, %al
    4683: 00 00                        	addb	%al, (%rax)
    4685: 00 00                        	addb	%al, (%rax)
    4687: 00 bf a1 00 00 00            	addb	%bh, 161(%rdi)
    468d: 00 00                        	addb	%al, (%rax)
    468f: 00 07                        	addb	%al, (%rdi)
    4691: 01 00                        	addl	%eax, (%rax)
    4693: 00 d0                        	addb	%dl, %al
    4695: ff ff                        	<unknown>
    4697: ff 85 10 00 00 28            	incl	671088656(%rbp)
    469d: ff ff                        	<unknown>
    469f: ff 79 a1                     	<unknown>
    46a2: d8 ff                        	fdivr	%st(7), %st
    46a4: 00 00                        	addb	%al, (%rax)
    46a6: 00 00                        	addb	%al, (%rax)
    46a8: 79 a2                        	jns	0x464c <entrypoint+0x40ac>
    46aa: d0 ff                        	sarb	%bh
    46ac: 00 00                        	addb	%al, (%rax)
    46ae: 00 00                        	addb	%al, (%rax)
    46b0: bf 75 00 00 00               	movl	$117, %edi
    46b5: 00 00                        	addb	%al, (%rax)
    46b7: 00 79 a0                     	addb	%bh, -96(%rcx)
    46ba: 98                           	cwtl
    46bb: ff 00                        	incl	(%rax)
    46bd: 00 00                        	addb	%al, (%rax)
    46bf: 00 1d 21 09 00 00            	addb	%bl, 2337(%rip)  # 4fe6 <entrypoint+0x4a46>
    46c5: 00 00                        	addb	%al, (%rax)
    46c7: 00 b7 07 00 00 00            	addb	%dh, 7(%rdi)
    46cd: 00 00                        	addb	%al, (%rax)
    46cf: 00 bf 63 00 00 00            	addb	%bh, 99(%rdi)
    46d5: 00 00                        	addb	%al, (%rax)
    46d7: 00 57 03                     	addb	%dl, 3(%rdi)
    46da: 00 00                        	addb	%al, (%rax)
    46dc: ff 00                        	incl	(%rax)
    46de: 00 00                        	addb	%al, (%rax)
    46e0: 71 24                        	jno	0x4706 <entrypoint+0x4166>
    46e2: 00 00                        	addb	%al, (%rax)
    46e4: 00 00                        	addb	%al, (%rax)
    46e6: 00 00                        	addb	%al, (%rax)
    46e8: 07                           	<unknown>
    46e9: 02 00                        	addb	(%rax), %al
    46eb: 00 01                        	addb	%al, (%rcx)
    46ed: 00 00                        	addb	%al, (%rax)
    46ef: 00 5d 34                     	addb	%bl, 52(%rbp)
    46f2: f9                           	stc
    46f3: ff 00                        	incl	(%rax)
    46f5: 00 00                        	addb	%al, (%rax)
    46f7: 00 57 07                     	addb	%dl, 7(%rdi)
    46fa: 00 00                        	addb	%al, (%rax)
    46fc: 01 00                        	addl	%eax, (%rax)
    46fe: 00 00                        	addb	%al, (%rax)
    4700: bf 70 00 00 00               	movl	$112, %edi
    4705: 00 00                        	addb	%al, (%rax)
    4707: 00 95 00 00 00 00            	addb	%dl, (%rbp)
    470d: 00 00                        	addb	%al, (%rax)
    470f: 00 bf 81 00 00 00            	addb	%bh, 129(%rdi)
    4715: 00 00                        	addb	%al, (%rax)
    4717: 00 79 a2                     	addb	%bh, -94(%rcx)
    471a: 88 ff                        	movb	%bh, %bh
    471c: 00 00                        	addb	%al, (%rax)
    471e: 00 00                        	addb	%al, (%rax)
    4720: 79 a7                        	jns	0x46c9 <entrypoint+0x4129>
    4722: 80 ff 00                     	cmpb	$0, %bh
    4725: 00 00                        	addb	%al, (%rax)
    4727: 00 1d 09 01 00 00            	addb	%bl, 265(%rip)  # 4836 <entrypoint+0x4296>
    472d: 00 00                        	addb	%al, (%rax)
    472f: 00 05 00 dd ff 00            	addb	%al, 16768256(%rip)  # 1002435
    4735: 00 00                        	addb	%al, (%rax)
    4737: 00 bf 23 00 00 00            	addb	%bh, 35(%rdi)
    473d: 00 00                        	addb	%al, (%rax)
    473f: 00 0f                        	addb	%cl, (%rdi)
    4741: 53                           	pushq	%rbx
    4742: 00 00                        	addb	%al, (%rax)
    4744: 00 00                        	addb	%al, (%rax)
    4746: 00 00                        	addb	%al, (%rax)
    4748: bf a1 00 00 00               	movl	$161, %edi
    474d: 00 00                        	addb	%al, (%rax)
    474f: 00 07                        	addb	%al, (%rdi)
    4751: 01 00                        	addl	%eax, (%rax)
    4753: 00 c0                        	addb	%al, %al
    4755: ff ff                        	<unknown>
    4757: ff 85 10 00 00 82            	incl	-2113929200(%rbp)
    475d: fe ff                        	<unknown>
    475f: ff 79 a1                     	<unknown>
    4762: c8 ff 00 00                  	enter	$255, $0
    4766: 00 00                        	addb	%al, (%rax)
    4768: 7b 1a                        	jnp	0x4784 <entrypoint+0x41e4>
    476a: f8                           	clc
    476b: ff 00                        	incl	(%rax)
    476d: 00 00                        	addb	%al, (%rax)
    476f: 00 79 a1                     	addb	%bh, -95(%rcx)
    4772: c0 ff 00                     	sarb	$0, %bh
    4775: 00 00                        	addb	%al, (%rax)
    4777: 00 7b 1a                     	addb	%bh, 26(%rbx)
    477a: f0                           	lock
    477b: ff 00                        	incl	(%rax)
    477d: 00 00                        	addb	%al, (%rax)
    477f: 00 bf a1 00 00 00            	addb	%bh, 161(%rdi)
    4785: 00 00                        	addb	%al, (%rax)
    4787: 00 07                        	addb	%al, (%rdi)
    4789: 01 00                        	addl	%eax, (%rax)
    478b: 00 b8 ff ff ff bf            	addb	%bh, -1073741825(%rax)
    4791: a2 00 00 00 00 00 00 07 02   	movabsb	%al, 146085512912830464
    479a: 00 00                        	addb	%al, (%rax)
    479c: f0                           	lock
    479d: ff ff                        	<unknown>
    479f: ff 85 10 00 00 8d            	incl	-1929379824(%rbp)
    47a5: 00 00                        	addb	%al, (%rax)
    47a7: 00 b7 07 00 00 01            	addb	%dh, 16777223(%rdi)
    47ad: 00 00                        	addb	%al, (%rax)
    47af: 00 71 a1                     	addb	%dh, -95(%rcx)
    47b2: b8 ff 00 00 00               	movl	$255, %eax
    47b7: 00 57 01                     	addb	%dl, 1(%rdi)
    47ba: 00 00                        	addb	%al, (%rax)
    47bc: 01 00                        	addl	%eax, (%rax)
    47be: 00 00                        	addb	%al, (%rax)
    47c0: 15 01 14 00 00               	adcl	$5121, %eax
    47c5: 00 00                        	addb	%al, (%rax)
    47c7: 00 71 a9                     	addb	%dh, -87(%rcx)
    47ca: b9 ff 00 00 00               	movl	$255, %ecx
    47cf: 00 b7 07 00 00 01            	addb	%dh, 16777223(%rdi)
    47d5: 00 00                        	addb	%al, (%rax)
    47d7: 00 57 06                     	addb	%dl, 6(%rdi)
    47da: 00 00                        	addb	%al, (%rax)
    47dc: ff ff                        	<unknown>
    47de: 00 00                        	addb	%al, (%rax)
    47e0: b7 08                        	movb	$8, %bh
    47e2: 00 00                        	addb	%al, (%rax)
    47e4: 00 00                        	addb	%al, (%rax)
    47e6: 00 00                        	addb	%al, (%rax)
    47e8: 05 00 10 00 00               	addl	$4096, %eax
    47ed: 00 00                        	addb	%al, (%rax)
    47ef: 00 57 09                     	addb	%dl, 9(%rdi)
    47f2: 00 00                        	addb	%al, (%rax)
    47f4: ff 00                        	incl	(%rax)
    47f6: 00 00                        	addb	%al, (%rax)
    47f8: 1f                           	<unknown>
    47f9: 96                           	xchgl	%esi, %eax
    47fa: 00 00                        	addb	%al, (%rax)
    47fc: 00 00                        	addb	%al, (%rax)
    47fe: 00 00                        	addb	%al, (%rax)
    4800: 67 06                        	<unknown>
    4802: 00 00                        	addb	%al, (%rax)
    4804: 20 00                        	andb	%al, (%rax)
    4806: 00 00                        	addb	%al, (%rax)
    4808: c7 06 00 00 20 00            	movl	$2097152, (%rsi)
    480e: 00 00                        	addb	%al, (%rax)
    4810: 6d                           	insl	%dx, %es:(%rdi)
    4811: 68 0a 00 00 00               	pushq	$10
    4816: 00 00                        	addb	%al, (%rax)
    4818: bf a1 00 00 00               	movl	$161, %edi
    481d: 00 00                        	addb	%al, (%rax)
    481f: 00 07                        	addb	%al, (%rdi)
    4821: 01 00                        	addl	%eax, (%rax)
    4823: 00 a8 ff ff ff bf            	addb	%ch, -1073741825(%rax)
    4829: a2 00 00 00 00 00 00 07 02   	movabsb	%al, 146085512912830464
    4832: 00 00                        	addb	%al, (%rax)
    4834: f0                           	lock
    4835: ff ff                        	<unknown>
    4837: ff 85 10 00 00 7a            	incl	2046820368(%rbp)
    483d: 00 00                        	addb	%al, (%rax)
    483f: 00 a7 07 00 00 01            	addb	%ah, 16777223(%rdi)
    4845: 00 00                        	addb	%al, (%rax)
    4847: 00 71 a9                     	addb	%dh, -87(%rcx)
    484a: a9 ff 00 00 00               	testl	$255, %eax
    484f: 00 71 a1                     	addb	%dh, -95(%rcx)
    4852: a8 ff                        	testb	$-1, %al
    4854: 00 00                        	addb	%al, (%rax)
    4856: 00 00                        	addb	%al, (%rax)
    4858: 57                           	pushq	%rdi
    4859: 01 00                        	addl	%eax, (%rax)
    485b: 00 01                        	addb	%al, (%rcx)
    485d: 00 00                        	addb	%al, (%rax)
    485f: 00 55 01                     	addb	%dl, 1(%rbp)
    4862: 01 00                        	addl	%eax, (%rax)
    4864: 00 00                        	addb	%al, (%rax)
    4866: 00 00                        	addb	%al, (%rax)
    4868: 05 00 d1 ff 00               	addl	$16765184, %eax
    486d: 00 00                        	addb	%al, (%rax)
    486f: 00 bf 91 00 00 00            	addb	%bh, 145(%rdi)
    4875: 00 00                        	addb	%al, (%rax)
    4877: 00 67 01                     	addb	%ah, 1(%rdi)
    487a: 00 00                        	addb	%al, (%rax)
    487c: 38 00                        	cmpb	%al, (%rax)
    487e: 00 00                        	addb	%al, (%rax)
    4880: c7 01 00 00 38 00            	movl	$3670016, (%rcx)
    4886: 00 00                        	addb	%al, (%rax)
    4888: 6d                           	insl	%dx, %es:(%rdi)
    4889: 18 01                        	sbbb	%al, (%rcx)
    488b: 00 00                        	addb	%al, (%rax)
    488d: 00 00                        	addb	%al, (%rax)
    488f: 00 05 00 eb ff 00            	addb	%al, 16771840(%rip)  # 1003395
    4895: 00 00                        	addb	%al, (%rax)
    4897: 00 bf a1 00 00 00            	addb	%bh, 161(%rdi)
    489d: 00 00                        	addb	%al, (%rax)
    489f: 00 07                        	addb	%al, (%rdi)
    48a1: 01 00                        	addl	%eax, (%rax)
    48a3: 00 b0 ff ff ff bf            	addb	%dh, -1073741825(%rax)
    48a9: a2 00 00 00 00 00 00 07 02   	movabsb	%al, 146085512912830464
    48b2: 00 00                        	addb	%al, (%rax)
    48b4: f0                           	lock
    48b5: ff ff                        	<unknown>
    48b7: ff 85 10 00 00 6a            	incl	1778384912(%rbp)
    48bd: 00 00                        	addb	%al, (%rax)
    48bf: 00 71 a1                     	addb	%dh, -95(%rcx)
    48c2: b0 ff                        	movb	$-1, %al
    48c4: 00 00                        	addb	%al, (%rax)
    48c6: 00 00                        	addb	%al, (%rax)
    48c8: 57                           	pushq	%rdi
    48c9: 01 00                        	addl	%eax, (%rax)
    48cb: 00 01                        	addb	%al, (%rcx)
    48cd: 00 00                        	addb	%al, (%rax)
    48cf: 00 55 01                     	addb	%dl, 1(%rbp)
    48d2: 04 00                        	addb	$0, %al
    48d4: 00 00                        	addb	%al, (%rax)
    48d6: 00 00                        	addb	%al, (%rax)
    48d8: 18 01                        	sbbb	%al, (%rcx)
    48da: 00 00                        	addb	%al, (%rax)
    48dc: f0                           	lock
    48dd: 9d                           	popfq
		...
    48e6: 00 00                        	addb	%al, (%rax)
    48e8: 85 10                        	testl	%edx, (%rax)
    48ea: 00 00                        	addb	%al, (%rax)
    48ec: be 06 00 00 85               	movl	$2231369734, %esi
    48f1: 10 00                        	adcb	%al, (%rax)
    48f3: 00 ff                        	addb	%bh, %bh
    48f5: ff ff                        	<unknown>
    48f7: ff 71 a1                     	pushq	-95(%rcx)
    48fa: b1 ff                        	movb	$-1, %cl
    48fc: 00 00                        	addb	%al, (%rax)
    48fe: 00 00                        	addb	%al, (%rax)
    4900: 57                           	pushq	%rdi
    4901: 09 00                        	orl	%eax, (%rax)
    4903: 00 7f 00                     	addb	%bh, (%rdi)
    4906: 00 00                        	addb	%al, (%rax)
    4908: 67 09 00                     	orl	%eax, (%eax)
    490b: 00 08                        	addb	%cl, (%rax)
    490d: 00 00                        	addb	%al, (%rax)
    490f: 00 4f 19                     	addb	%cl, 25(%rdi)
    4912: 00 00                        	addb	%al, (%rax)
    4914: 00 00                        	addb	%al, (%rax)
    4916: 00 00                        	addb	%al, (%rax)
    4918: 05 00 db ff 00               	addl	$16767744, %eax
    491d: 00 00                        	addb	%al, (%rax)
    491f: 00 bf 81 00 00 00            	addb	%bh, 129(%rdi)
    4925: 00 00                        	addb	%al, (%rax)
    4927: 00 79 a2                     	addb	%bh, -94(%rcx)
    492a: 90                           	nop
    492b: ff 00                        	incl	(%rax)
    492d: 00 00                        	addb	%al, (%rax)
    492f: 00 85 10 00 00 7e            	addb	%al, 2113929232(%rbp)
    4935: fe ff                        	<unknown>
    4937: ff 85 10 00 00 ff            	incl	-16777200(%rbp)
    493d: ff ff                        	<unknown>
    493f: ff bf 82 00 00 00            	<unknown>
    4945: 00 00                        	addb	%al, (%rax)
    4947: 00 85 10 00 00 a4            	addb	%al, -1543503856(%rbp)
    494d: fe ff                        	<unknown>
    494f: ff 85 10 00 00 ff            	incl	-16777200(%rbp)
    4955: ff ff                        	<unknown>
    4957: ff bf 12 00 00 00            	<unknown>
    495d: 00 00                        	addb	%al, (%rax)
    495f: 00 67 02                     	addb	%ah, 2(%rdi)
    4962: 00 00                        	addb	%al, (%rax)
    4964: 20 00                        	andb	%al, (%rax)
    4966: 00 00                        	addb	%al, (%rax)
    4968: 77 02                        	ja	0x496c <entrypoint+0x43cc>
    496a: 00 00                        	addb	%al, (%rax)
    496c: 20 00                        	andb	%al, (%rax)
    496e: 00 00                        	addb	%al, (%rax)
    4970: b7 03                        	movb	$3, %bh
    4972: 00 00                        	addb	%al, (%rax)
    4974: 00 00                        	addb	%al, (%rax)
    4976: 01 00                        	addl	%eax, (%rax)
    4978: 2d 23 11 00 00               	subl	$4387, %eax
    497d: 00 00                        	addb	%al, (%rax)
    497f: 00 b7 03 00 00 00            	addb	%dh, 3(%rdi)
    4985: 00 02                        	addb	%al, (%rdx)
    4987: 00 2d 23 01 00 00            	addb	%ch, 291(%rip)  # 4ab0 <entrypoint+0x4510>
    498d: 00 00                        	addb	%al, (%rax)
    498f: 00 05 00 1d 00 00            	addb	%al, 7424(%rip)  # 6695 <entrypoint+0x60f5>
    4995: 00 00                        	addb	%al, (%rax)
    4997: 00 18                        	addb	%bl, (%rax)
    4999: 02 00                        	addb	(%rax), %al
    499b: 00 0b                        	addb	%cl, (%rbx)
    499d: 91                           	xchgl	%ecx, %eax
		...
    49a6: 00 00                        	addb	%al, (%rax)
    49a8: 7b 2a                        	jnp	0x49d4 <entrypoint+0x4434>
    49aa: 08 f0                        	orb	%dh, %al
    49ac: 00 00                        	addb	%al, (%rax)
    49ae: 00 00                        	addb	%al, (%rax)
    49b0: b7 02                        	movb	$2, %bh
    49b2: 00 00                        	addb	%al, (%rax)
    49b4: 98                           	cwtl
    49b5: 01 00                        	addl	%eax, (%rax)
    49b7: 00 7b 2a                     	addb	%bh, 42(%rbx)
    49ba: 10 f0                        	adcb	%dh, %al
    49bc: 00 00                        	addb	%al, (%rax)
    49be: 00 00                        	addb	%al, (%rax)
    49c0: b7 02                        	movb	$2, %bh
    49c2: 00 00                        	addb	%al, (%rax)
    49c4: a6                           	cmpsb	%es:(%rdi), (%rsi)
    49c5: 00 00                        	addb	%al, (%rax)
    49c7: 00 7b 2a                     	addb	%bh, 42(%rbx)
    49ca: 00 f0                        	addb	%dh, %al
    49cc: 00 00                        	addb	%al, (%rax)
    49ce: 00 00                        	addb	%al, (%rax)
    49d0: bf a5 00 00 00               	movl	$165, %edi
    49d5: 00 00                        	addb	%al, (%rax)
    49d7: 00 18                        	addb	%bl, (%rax)
    49d9: 02 00                        	addb	(%rax), %al
    49db: 00 1f                        	addb	%bl, (%rdi)
    49dd: 90                           	nop
		...
    49e6: 00 00                        	addb	%al, (%rax)
    49e8: b7 03                        	movb	$3, %bh
    49ea: 00 00                        	addb	%al, (%rax)
    49ec: 23 00                        	andl	(%rax), %eax
    49ee: 00 00                        	addb	%al, (%rax)
    49f0: 18 04 00                     	sbbb	%al, (%rax,%rax)
    49f3: 00 65 90                     	addb	%ah, -112(%rbp)
		...
    49fe: 00 00                        	addb	%al, (%rax)
    4a00: 05 00 0d 00 00               	addl	$3328, %eax
    4a05: 00 00                        	addb	%al, (%rax)
    4a07: 00 18                        	addb	%bl, (%rax)
    4a09: 02 00                        	addb	(%rax), %al
    4a0b: 00 e5                        	addb	%ah, %ch
    4a0d: 8e 00                        	movw	(%rax), %es
		...
    4a17: 00 7b 2a                     	addb	%bh, 42(%rbx)
    4a1a: 08 f0                        	orb	%dh, %al
    4a1c: 00 00                        	addb	%al, (%rax)
    4a1e: 00 00                        	addb	%al, (%rax)
    4a20: b7 02                        	movb	$2, %bh
    4a22: 00 00                        	addb	%al, (%rax)
    4a24: 3a 01                        	cmpb	(%rcx), %al
    4a26: 00 00                        	addb	%al, (%rax)
    4a28: 7b 2a                        	jnp	0x4a54 <entrypoint+0x44b4>
    4a2a: 10 f0                        	adcb	%dh, %al
    4a2c: 00 00                        	addb	%al, (%rax)
    4a2e: 00 00                        	addb	%al, (%rax)
    4a30: b7 02                        	movb	$2, %bh
    4a32: 00 00                        	addb	%al, (%rax)
    4a34: 25 01 00 00 7b               	andl	$2063597569, %eax
    4a39: 2a 00                        	subb	(%rax), %al
    4a3b: f0                           	lock
    4a3c: 00 00                        	addb	%al, (%rax)
    4a3e: 00 00                        	addb	%al, (%rax)
    4a40: bf a5 00 00 00               	movl	$165, %edi
    4a45: 00 00                        	addb	%al, (%rax)
    4a47: 00 18                        	addb	%bl, (%rax)
    4a49: 02 00                        	addb	(%rax), %al
    4a4b: 00 6e 8d                     	addb	%ch, -115(%rsi)
		...
    4a56: 00 00                        	addb	%al, (%rax)
    4a58: b7 03                        	movb	$3, %bh
    4a5a: 00 00                        	addb	%al, (%rax)
    4a5c: 29 00                        	subl	%eax, (%rax)
    4a5e: 00 00                        	addb	%al, (%rax)
    4a60: 18 04 00                     	sbbb	%al, (%rax,%rax)
    4a63: 00 c0                        	addb	%al, %al
    4a65: 8d 00                        	leal	(%rax), %eax
		...
    4a6f: 00 85 10 00 00 5c            	addb	%al, 1543503888(%rbp)
    4a75: ff ff                        	<unknown>
    4a77: ff 95 00 00 00 00            	callq	*(%rbp)
    4a7d: 00 00                        	addb	%al, (%rax)
    4a7f: 00 b7 00 00 00 00            	addb	%dh, (%rdi)
    4a85: 00 00                        	addb	%al, (%rax)
    4a87: 00 bf 12 00 00 00            	addb	%bh, 18(%rdi)
    4a8d: 00 00                        	addb	%al, (%rax)
    4a8f: 00 07                        	addb	%al, (%rdi)
    4a91: 02 00                        	addb	(%rax), %al
    4a93: 00 e2                        	addb	%ah, %dl
    4a95: 05 fd ff 67 02               	addl	$40370173, %eax
    4a9a: 00 00                        	addb	%al, (%rax)
    4a9c: 20 00                        	andb	%al, (%rax)
    4a9e: 00 00                        	addb	%al, (%rax)
    4aa0: 77 02                        	ja	0x4aa4 <entrypoint+0x4504>
    4aa2: 00 00                        	addb	%al, (%rax)
    4aa4: 20 00                        	andb	%al, (%rax)
    4aa6: 00 00                        	addb	%al, (%rax)
    4aa8: b7 03                        	movb	$3, %bh
    4aaa: 00 00                        	addb	%al, (%rax)
    4aac: e2 06                        	loop	0x4ab4 <entrypoint+0x4514>
    4aae: 0b 00                        	orl	(%rax), %eax
    4ab0: 2d 23 f8 ff 00               	subl	$16775203, %eax
    4ab5: 00 00                        	addb	%al, (%rax)
    4ab7: 00 bf 12 00 00 00            	addb	%bh, 18(%rdi)
    4abd: 00 00                        	addb	%al, (%rax)
    4abf: 00 07                        	addb	%al, (%rdi)
    4ac1: 02 00                        	addb	(%rax), %al
    4ac3: 00 1f                        	addb	%bl, (%rdi)
    4ac5: 14 fd                        	adcb	$-3, %al
    4ac7: ff 67 02                     	jmpq	*2(%rdi)
    4aca: 00 00                        	addb	%al, (%rax)
    4acc: 20 00                        	andb	%al, (%rax)
    4ace: 00 00                        	addb	%al, (%rax)
    4ad0: 77 02                        	ja	0x4ad4 <entrypoint+0x4534>
    4ad2: 00 00                        	addb	%al, (%rax)
    4ad4: 20 00                        	andb	%al, (%rax)
    4ad6: 00 00                        	addb	%al, (%rax)
    4ad8: b7 03                        	movb	$3, %bh
    4ada: 00 00                        	addb	%al, (%rax)
    4adc: 1f                           	<unknown>
    4add: 0c 00                        	orb	$0, %al
    4adf: 00 2d 23 f2 ff 00            	addb	%ch, 16773667(%rip)  # 1003d08
    4ae5: 00 00                        	addb	%al, (%rax)
    4ae7: 00 bf 12 00 00 00            	addb	%bh, 18(%rdi)
    4aed: 00 00                        	addb	%al, (%rax)
    4aef: 00 07                        	addb	%al, (%rdi)
    4af1: 02 00                        	addb	(%rax), %al
    4af3: 00 5e 31                     	addb	%bl, 49(%rsi)
    4af6: fd                           	std
    4af7: ff 67 02                     	jmpq	*2(%rdi)
    4afa: 00 00                        	addb	%al, (%rax)
    4afc: 20 00                        	andb	%al, (%rax)
    4afe: 00 00                        	addb	%al, (%rax)
    4b00: 77 02                        	ja	0x4b04 <entrypoint+0x4564>
    4b02: 00 00                        	addb	%al, (%rax)
    4b04: 20 00                        	andb	%al, (%rax)
    4b06: 00 00                        	addb	%al, (%rax)
    4b08: b7 03                        	movb	$3, %bh
    4b0a: 00 00                        	addb	%al, (%rax)
    4b0c: 0e                           	<unknown>
    4b0d: 00 00                        	addb	%al, (%rax)
    4b0f: 00 2d 23 ec ff 00            	addb	%ch, 16772131(%rip)  # 1003738
    4b15: 00 00                        	addb	%al, (%rax)
    4b17: 00 bf 12 00 00 00            	addb	%bh, 18(%rdi)
    4b1d: 00 00                        	addb	%al, (%rax)
    4b1f: 00 57 02                     	addb	%dl, 2(%rdi)
    4b22: 00 00                        	addb	%al, (%rax)
    4b24: fe ff                        	<unknown>
    4b26: 1f                           	<unknown>
    4b27: 00 15 02 e9 ff 1e            	addb	%dl, 520087810(%rip)  # 1f00342f
    4b2d: b8 02 00 bf 12               	movl	$314507266, %eax
    4b32: 00 00                        	addb	%al, (%rax)
    4b34: 00 00                        	addb	%al, (%rax)
    4b36: 00 00                        	addb	%al, (%rax)
    4b38: 07                           	<unknown>
    4b39: 02 00                        	addb	(%rax), %al
    4b3b: 00 29                        	addb	%ch, (%rcx)
    4b3d: 59                           	popq	%rcx
    4b3e: fd                           	std
    4b3f: ff 67 02                     	jmpq	*2(%rdi)
    4b42: 00 00                        	addb	%al, (%rax)
    4b44: 20 00                        	andb	%al, (%rax)
    4b46: 00 00                        	addb	%al, (%rax)
    4b48: 77 02                        	ja	0x4b4c <entrypoint+0x45ac>
    4b4a: 00 00                        	addb	%al, (%rax)
    4b4c: 20 00                        	andb	%al, (%rax)
    4b4e: 00 00                        	addb	%al, (%rax)
    4b50: b7 03                        	movb	$3, %bh
    4b52: 00 00                        	addb	%al, (%rax)
    4b54: 29 00                        	subl	%eax, (%rax)
    4b56: 00 00                        	addb	%al, (%rax)
    4b58: 2d 23 e3 ff 00               	subl	$16769827, %eax
    4b5d: 00 00                        	addb	%al, (%rax)
    4b5f: 00 bf 12 00 00 00            	addb	%bh, 18(%rdi)
    4b65: 00 00                        	addb	%al, (%rax)
    4b67: 00 07                        	addb	%al, (%rdi)
    4b69: 02 00                        	addb	(%rax), %al
    4b6b: 00 cb                        	addb	%cl, %bl
    4b6d: 48 fd                        	std
    4b6f: ff 67 02                     	jmpq	*2(%rdi)
    4b72: 00 00                        	addb	%al, (%rax)
    4b74: 20 00                        	andb	%al, (%rax)
    4b76: 00 00                        	addb	%al, (%rax)
    4b78: 77 02                        	ja	0x4b7c <entrypoint+0x45dc>
    4b7a: 00 00                        	addb	%al, (%rax)
    4b7c: 20 00                        	andb	%al, (%rax)
    4b7e: 00 00                        	addb	%al, (%rax)
    4b80: b7 03                        	movb	$3, %bh
    4b82: 00 00                        	addb	%al, (%rax)
    4b84: 0b 00                        	orl	(%rax), %eax
    4b86: 00 00                        	addb	%al, (%rax)
    4b88: 2d 23 dd ff 00               	subl	$16768291, %eax
    4b8d: 00 00                        	addb	%al, (%rax)
    4b8f: 00 07                        	addb	%al, (%rdi)
    4b91: 01 00                        	addl	%eax, (%rax)
    4b93: 00 10                        	addb	%dl, (%rax)
    4b95: fe f1                        	<unknown>
    4b97: ff 67 01                     	jmpq	*1(%rdi)
    4b9a: 00 00                        	addb	%al, (%rax)
    4b9c: 20 00                        	andb	%al, (%rax)
    4b9e: 00 00                        	addb	%al, (%rax)
    4ba0: 77 01                        	ja	0x4ba3 <entrypoint+0x4603>
    4ba2: 00 00                        	addb	%al, (%rax)
    4ba4: 20 00                        	andb	%al, (%rax)
    4ba6: 00 00                        	addb	%al, (%rax)
    4ba8: b7 00                        	movb	$0, %bh
    4baa: 00 00                        	addb	%al, (%rax)
    4bac: 01 00                        	addl	%eax, (%rax)
    4bae: 00 00                        	addb	%al, (%rax)
    4bb0: 25 01 01 00 0f               	andl	$251658497, %eax
    4bb5: fe 02                        	incb	(%rdx)
    4bb7: 00 b7 00 00 00 00            	addb	%dh, (%rdi)
    4bbd: 00 00                        	addb	%al, (%rax)
    4bbf: 00 95 00 00 00 00            	addb	%dl, (%rbp)
    4bc5: 00 00                        	addb	%al, (%rax)
    4bc7: 00 bf 12 00 00 00            	addb	%bh, 18(%rdi)
    4bcd: 00 00                        	addb	%al, (%rax)
    4bcf: 00 18                        	addb	%bl, (%rax)
    4bd1: 01 00                        	addl	%eax, (%rax)
    4bd3: 00 90 9e 00 00 00            	addb	%dl, 158(%rax)
    4bd9: 00 00                        	addb	%al, (%rax)
    4bdb: 00 00                        	addb	%al, (%rax)
    4bdd: 00 00                        	addb	%al, (%rax)
    4bdf: 00 85 10 00 00 d6            	addb	%al, -704643056(%rbp)
    4be5: fe ff                        	<unknown>
    4be7: ff 95 00 00 00 00            	callq	*(%rbp)
    4bed: 00 00                        	addb	%al, (%rax)
    4bef: 00 95 00 00 00 00            	addb	%dl, (%rbp)
    4bf5: 00 00                        	addb	%al, (%rax)
    4bf7: 00 7b 31                     	addb	%bh, 49(%rbx)
    4bfa: 08 00                        	orb	%al, (%rax)
    4bfc: 00 00                        	addb	%al, (%rax)
    4bfe: 00 00                        	addb	%al, (%rax)
    4c00: 7b 21                        	jnp	0x4c23 <entrypoint+0x4683>
    4c02: 00 00                        	addb	%al, (%rax)
    4c04: 00 00                        	addb	%al, (%rax)
    4c06: 00 00                        	addb	%al, (%rax)
    4c08: 95                           	xchgl	%ebp, %eax
    4c09: 00 00                        	addb	%al, (%rax)
    4c0b: 00 00                        	addb	%al, (%rax)
    4c0d: 00 00                        	addb	%al, (%rax)
    4c0f: 00 bf 16 00 00 00            	addb	%bh, 22(%rdi)
    4c15: 00 00                        	addb	%al, (%rax)
    4c17: 00 b7 03 00 00 00            	addb	%dh, 3(%rdi)
    4c1d: 00 00                        	addb	%al, (%rax)
    4c1f: 00 79 21                     	addb	%bh, 33(%rcx)
    4c22: 00 00                        	addb	%al, (%rax)
    4c24: 00 00                        	addb	%al, (%rax)
    4c26: 00 00                        	addb	%al, (%rax)
    4c28: 79 24                        	jns	0x4c4e <entrypoint+0x46ae>
    4c2a: 08 00                        	orb	%al, (%rax)
    4c2c: 00 00                        	addb	%al, (%rax)
    4c2e: 00 00                        	addb	%al, (%rax)
    4c30: 1d 41 04 00 00               	sbbl	$1089, %eax
    4c35: 00 00                        	addb	%al, (%rax)
    4c37: 00 bf 13 00 00 00            	addb	%bh, 19(%rdi)
    4c3d: 00 00                        	addb	%al, (%rax)
    4c3f: 00 07                        	addb	%al, (%rdi)
    4c41: 03 00                        	addl	(%rax), %eax
    4c43: 00 01                        	addb	%al, (%rcx)
    4c45: 00 00                        	addb	%al, (%rax)
    4c47: 00 7b 32                     	addb	%bh, 50(%rbx)
    4c4a: 00 00                        	addb	%al, (%rax)
    4c4c: 00 00                        	addb	%al, (%rax)
    4c4e: 00 00                        	addb	%al, (%rax)
    4c50: bf 13 00 00 00               	movl	$19, %edi
    4c55: 00 00                        	addb	%al, (%rax)
    4c57: 00 bf a1 00 00 00            	addb	%bh, 161(%rdi)
    4c5d: 00 00                        	addb	%al, (%rax)
    4c5f: 00 07                        	addb	%al, (%rdi)
    4c61: 01 00                        	addl	%eax, (%rax)
    4c63: 00 f8                        	addb	%bh, %al
    4c65: ff ff                        	<unknown>
    4c67: ff bf 32 00 00 00            	<unknown>
    4c6d: 00 00                        	addb	%al, (%rax)
    4c6f: 00 85 10 00 00 a8            	addb	%al, -1476394992(%rbp)
    4c75: 06                           	<unknown>
    4c76: 00 00                        	addb	%al, (%rax)
    4c78: 71 a1                        	jno	0x4c1b <entrypoint+0x467b>
    4c7a: f8                           	clc
    4c7b: ff 00                        	incl	(%rax)
    4c7d: 00 00                        	addb	%al, (%rax)
    4c7f: 00 71 a2                     	addb	%dh, -94(%rcx)
    4c82: f9                           	stc
    4c83: ff 00                        	incl	(%rax)
    4c85: 00 00                        	addb	%al, (%rax)
    4c87: 00 73 26                     	addb	%dh, 38(%rbx)
    4c8a: 01 00                        	addl	%eax, (%rax)
    4c8c: 00 00                        	addb	%al, (%rax)
    4c8e: 00 00                        	addb	%al, (%rax)
    4c90: 57                           	pushq	%rdi
    4c91: 01 00                        	addl	%eax, (%rax)
    4c93: 00 01                        	addb	%al, (%rcx)
    4c95: 00 00                        	addb	%al, (%rax)
    4c97: 00 73 16                     	addb	%dh, 22(%rbx)
    4c9a: 00 00                        	addb	%al, (%rax)
    4c9c: 00 00                        	addb	%al, (%rax)
    4c9e: 00 00                        	addb	%al, (%rax)
    4ca0: 95                           	xchgl	%ebp, %eax
    4ca1: 00 00                        	addb	%al, (%rax)
    4ca3: 00 00                        	addb	%al, (%rax)
    4ca5: 00 00                        	addb	%al, (%rax)
    4ca7: 00 79 24                     	addb	%bh, 36(%rcx)
    4caa: 00 00                        	addb	%al, (%rax)
    4cac: 00 00                        	addb	%al, (%rax)
    4cae: 00 00                        	addb	%al, (%rax)
    4cb0: 79 12                        	jns	0x4cc4 <entrypoint+0x4724>
    4cb2: 08 00                        	orb	%al, (%rax)
    4cb4: 00 00                        	addb	%al, (%rax)
    4cb6: 00 00                        	addb	%al, (%rax)
    4cb8: 79 11                        	jns	0x4ccb <entrypoint+0x472b>
    4cba: 00 00                        	addb	%al, (%rax)
    4cbc: 00 00                        	addb	%al, (%rax)
    4cbe: 00 00                        	addb	%al, (%rax)
    4cc0: b7 03                        	movb	$3, %bh
    4cc2: 00 00                        	addb	%al, (%rax)
    4cc4: 00 00                        	addb	%al, (%rax)
    4cc6: 00 00                        	addb	%al, (%rax)
    4cc8: 85 10                        	testl	%edx, (%rax)
    4cca: 00 00                        	addb	%al, (%rax)
    4ccc: 74 fc                        	je	0x4cca <entrypoint+0x472a>
    4cce: ff ff                        	<unknown>
    4cd0: 85 10                        	testl	%edx, (%rax)
    4cd2: 00 00                        	addb	%al, (%rax)
    4cd4: ff ff                        	<unknown>
    4cd6: ff ff                        	<unknown>
    4cd8: 79 12                        	jns	0x4cec <entrypoint+0x474c>
    4cda: 10 00                        	adcb	%al, (%rax)
    4cdc: 00 00                        	addb	%al, (%rax)
    4cde: 00 00                        	addb	%al, (%rax)
    4ce0: 79 24                        	jns	0x4d06 <entrypoint+0x4766>
    4ce2: 00 00                        	addb	%al, (%rax)
    4ce4: 00 00                        	addb	%al, (%rax)
    4ce6: 00 00                        	addb	%al, (%rax)
    4ce8: 79 12                        	jns	0x4cfc <entrypoint+0x475c>
    4cea: 08 00                        	orb	%al, (%rax)
    4cec: 00 00                        	addb	%al, (%rax)
    4cee: 00 00                        	addb	%al, (%rax)
    4cf0: 79 23                        	jns	0x4d15 <entrypoint+0x4775>
    4cf2: 00 00                        	addb	%al, (%rax)
    4cf4: 00 00                        	addb	%al, (%rax)
    4cf6: 00 00                        	addb	%al, (%rax)
    4cf8: 79 11                        	jns	0x4d0b <entrypoint+0x476b>
    4cfa: 00 00                        	addb	%al, (%rax)
    4cfc: 00 00                        	addb	%al, (%rax)
    4cfe: 00 00                        	addb	%al, (%rax)
    4d00: 79 12                        	jns	0x4d14 <entrypoint+0x4774>
    4d02: 08 00                        	orb	%al, (%rax)
    4d04: 00 00                        	addb	%al, (%rax)
    4d06: 00 00                        	addb	%al, (%rax)
    4d08: 79 11                        	jns	0x4d1b <entrypoint+0x477b>
    4d0a: 00 00                        	addb	%al, (%rax)
    4d0c: 00 00                        	addb	%al, (%rax)
    4d0e: 00 00                        	addb	%al, (%rax)
    4d10: 85 10                        	testl	%edx, (%rax)
    4d12: 00 00                        	addb	%al, (%rax)
    4d14: 6b fc ff                     	imull	$-1, %esp, %edi
    4d17: ff 85 10 00 00 ff            	incl	-16777200(%rbp)
    4d1d: ff ff                        	<unknown>
    4d1f: ff bf 39 00 00 00            	<unknown>
    4d25: 00 00                        	addb	%al, (%rax)
    4d27: 00 bf 27 00 00 00            	addb	%bh, 39(%rdi)
    4d2d: 00 00                        	addb	%al, (%rax)
    4d2f: 00 bf 18 00 00 00            	addb	%bh, 24(%rdi)
    4d35: 00 00                        	addb	%al, (%rax)
    4d37: 00 b7 00 00 00 00            	addb	%dh, (%rdi)
    4d3d: 00 00                        	addb	%al, (%rax)
    4d3f: 00 15 09 9a 00 00            	addb	%dl, 39433(%rip)  # e74e
    4d45: 00 00                        	addb	%al, (%rax)
    4d47: 00 bf a1 00 00 00            	addb	%bh, 161(%rdi)
    4d4d: 00 00                        	addb	%al, (%rax)
    4d4f: 00 07                        	addb	%al, (%rdi)
    4d51: 01 00                        	addl	%eax, (%rax)
    4d53: 00 fc                        	addb	%bh, %ah
    4d55: ff ff                        	<unknown>
    4d57: ff 7b 1a                     	<unknown>
    4d5a: 88 ff                        	movb	%bh, %bh
    4d5c: 00 00                        	addb	%al, (%rax)
    4d5e: 00 00                        	addb	%al, (%rax)
    4d60: 7b 8a                        	jnp	0x4cec <entrypoint+0x474c>
    4d62: 80 ff 00                     	cmpb	$0, %bh
    4d65: 00 00                        	addb	%al, (%rax)
    4d67: 00 05 00 1f 00 00            	addb	%al, 7936(%rip)  # 6c6d <entrypoint+0x66cd>
    4d6d: 00 00                        	addb	%al, (%rax)
    4d6f: 00 7b 7a                     	addb	%bh, 122(%rbx)
    4d72: b0 ff                        	movb	$-1, %al
    4d74: 00 00                        	addb	%al, (%rax)
    4d76: 00 00                        	addb	%al, (%rax)
    4d78: 7b 9a                        	jnp	0x4d14 <entrypoint+0x4774>
    4d7a: b8 ff 00 00 00               	movl	$255, %eax
    4d7f: 00 7b 6a                     	addb	%bh, 106(%rbx)
    4d82: c0 ff 00                     	sarb	$0, %bh
    4d85: 00 00                        	addb	%al, (%rax)
    4d87: 00 7b 9a                     	addb	%bh, -102(%rbx)
    4d8a: c8 ff 00 00                  	enter	$255, $0
    4d8e: 00 00                        	addb	%al, (%rax)
    4d90: 57                           	pushq	%rdi
    4d91: 08 00                        	orb	%al, (%rax)
    4d93: 00 01                        	addb	%al, (%rcx)
    4d95: 00 00                        	addb	%al, (%rax)
    4d97: 00 55 08                     	addb	%dl, 8(%rbp)
    4d9a: 14 00                        	adcb	$0, %al
    4d9c: 00 00                        	addb	%al, (%rax)
    4d9e: 00 00                        	addb	%al, (%rax)
    4da0: 3d 96 06 00 00               	cmpl	$1686, %eax
    4da5: 00 00                        	addb	%al, (%rax)
    4da7: 00 bf 71 00 00 00            	addb	%bh, 113(%rdi)
    4dad: 00 00                        	addb	%al, (%rax)
    4daf: 00 0f                        	addb	%cl, (%rdi)
    4db1: 61                           	<unknown>
    4db2: 00 00                        	addb	%al, (%rax)
    4db4: 00 00                        	addb	%al, (%rax)
    4db6: 00 00                        	addb	%al, (%rax)
    4db8: 71 11                        	jno	0x4dcb <entrypoint+0x482b>
    4dba: 00 00                        	addb	%al, (%rax)
    4dbc: 00 00                        	addb	%al, (%rax)
    4dbe: 00 00                        	addb	%al, (%rax)
    4dc0: 67 01 00                     	addl	%eax, (%eax)
    4dc3: 00 38                        	addb	%bh, (%rax)
    4dc5: 00 00                        	addb	%al, (%rax)
    4dc7: 00 c7                        	addb	%al, %bh
    4dc9: 01 00                        	addl	%eax, (%rax)
    4dcb: 00 38                        	addb	%bh, (%rax)
    4dcd: 00 00                        	addb	%al, (%rax)
    4dcf: 00 65 01                     	addb	%ah, 1(%rbp)
    4dd2: 0d 00 bf ff ff               	orl	$4294950656, %eax
    4dd7: ff bf a1 00 00 00            	<unknown>
    4ddd: 00 00                        	addb	%al, (%rax)
    4ddf: 00 07                        	addb	%al, (%rdi)
    4de1: 01 00                        	addl	%eax, (%rax)
    4de3: 00 c8                        	addb	%cl, %al
    4de5: ff ff                        	<unknown>
    4de7: ff 7b 1a                     	<unknown>
    4dea: e0 ff                        	loopne	0x4deb <entrypoint+0x484b>
    4dec: 00 00                        	addb	%al, (%rax)
    4dee: 00 00                        	addb	%al, (%rax)
    4df0: bf a1 00 00 00               	movl	$161, %edi
    4df5: 00 00                        	addb	%al, (%rax)
    4df7: 00 07                        	addb	%al, (%rdi)
    4df9: 01 00                        	addl	%eax, (%rax)
    4dfb: 00 c0                        	addb	%al, %al
    4dfd: ff ff                        	<unknown>
    4dff: ff 7b 1a                     	<unknown>
    4e02: d8 ff                        	fdivr	%st(7), %st
    4e04: 00 00                        	addb	%al, (%rax)
    4e06: 00 00                        	addb	%al, (%rax)
    4e08: bf a1 00 00 00               	movl	$161, %edi
    4e0d: 00 00                        	addb	%al, (%rax)
    4e0f: 00 07                        	addb	%al, (%rdi)
    4e11: 01 00                        	addl	%eax, (%rax)
    4e13: 00 b0 ff ff ff 7b            	addb	%dh, 2080374783(%rax)
    4e19: 1a d0                        	sbbb	%al, %dl
    4e1b: ff 00                        	incl	(%rax)
    4e1d: 00 00                        	addb	%al, (%rax)
    4e1f: 00 bf a1 00 00 00            	addb	%bh, 161(%rdi)
    4e25: 00 00                        	addb	%al, (%rax)
    4e27: 00 07                        	addb	%al, (%rdi)
    4e29: 01 00                        	addl	%eax, (%rax)
    4e2b: 00 d0                        	addb	%dl, %al
    4e2d: ff ff                        	<unknown>
    4e2f: ff 85 10 00 00 d4            	incl	-738197488(%rbp)
    4e35: ff ff                        	<unknown>
    4e37: ff 85 10 00 00 ff            	incl	-16777200(%rbp)
    4e3d: ff ff                        	<unknown>
    4e3f: ff 0f                        	decl	(%rdi)
    4e41: 67 00 00                     	addb	%al, (%eax)
    4e44: 00 00                        	addb	%al, (%rax)
    4e46: 00 00                        	addb	%al, (%rax)
    4e48: 1f                           	<unknown>
    4e49: 69 00 00 00 00 00            	imull	$0, (%rax), %eax
    4e4f: 00 b7 00 00 00 00            	addb	%dh, (%rdi)
    4e55: 00 00                        	addb	%al, (%rax)
    4e57: 00 79 a8                     	addb	%bh, -88(%rcx)
    4e5a: 80 ff 00                     	cmpb	$0, %bh
    4e5d: 00 00                        	addb	%al, (%rax)
    4e5f: 00 15 09 76 00 00            	addb	%dl, 30217(%rip)  # c46e
    4e65: 00 00                        	addb	%al, (%rax)
    4e67: 00 79 81                     	addb	%bh, -127(%rcx)
    4e6a: 10 00                        	adcb	%al, (%rax)
    4e6c: 00 00                        	addb	%al, (%rax)
    4e6e: 00 00                        	addb	%al, (%rax)
    4e70: 71 11                        	jno	0x4e83 <entrypoint+0x48e3>
    4e72: 00 00                        	addb	%al, (%rax)
    4e74: 00 00                        	addb	%al, (%rax)
    4e76: 00 00                        	addb	%al, (%rax)
    4e78: 15 01 0b 00 00               	adcl	$2817, %eax
    4e7d: 00 00                        	addb	%al, (%rax)
    4e7f: 00 79 81                     	addb	%bh, -127(%rcx)
    4e82: 00 00                        	addb	%al, (%rax)
    4e84: 00 00                        	addb	%al, (%rax)
    4e86: 00 00                        	addb	%al, (%rax)
    4e88: 79 82                        	jns	0x4e0c <entrypoint+0x486c>
    4e8a: 08 00                        	orb	%al, (%rax)
    4e8c: 00 00                        	addb	%al, (%rax)
    4e8e: 00 00                        	addb	%al, (%rax)
    4e90: 79 24                        	jns	0x4eb6 <entrypoint+0x4916>
    4e92: 18 00                        	sbbb	%al, (%rax)
    4e94: 00 00                        	addb	%al, (%rax)
    4e96: 00 00                        	addb	%al, (%rax)
    4e98: 18 02                        	sbbb	%al, (%rdx)
    4e9a: 00 00                        	addb	%al, (%rax)
    4e9c: 48 87 00                     	xchgq	%rax, (%rax)
		...
    4ea7: 00 b7 03 00 00 04            	addb	%dh, 67108867(%rdi)
    4ead: 00 00                        	addb	%al, (%rax)
    4eaf: 00 8d 00 00 00 04            	addb	%cl, 67108864(%rbp)
    4eb5: 00 00                        	addb	%al, (%rax)
    4eb7: 00 15 00 03 00 00            	addb	%dl, 768(%rip)  # 51bd <entrypoint+0x4c1d>
    4ebd: 00 00                        	addb	%al, (%rax)
    4ebf: 00 85 10 00 00 9f            	addb	%al, -1627389936(%rbp)
    4ec5: 01 00                        	addl	%eax, (%rax)
    4ec7: 00 b7 00 00 00 01            	addb	%dh, 16777216(%rdi)
    4ecd: 00 00                        	addb	%al, (%rax)
    4ecf: 00 05 00 68 00 00            	addb	%al, 26624(%rip)  # b6d5
    4ed5: 00 00                        	addb	%al, (%rax)
    4ed7: 00 b7 01 00 00 00            	addb	%dh, 1(%rdi)
    4edd: 00 00                        	addb	%al, (%rax)
    4edf: 00 7b 1a                     	addb	%bh, 26(%rbx)
    4ee2: e0 ff                        	loopne	0x4ee3 <entrypoint+0x4943>
    4ee4: 00 00                        	addb	%al, (%rax)
    4ee6: 00 00                        	addb	%al, (%rax)
    4ee8: 18 01                        	sbbb	%al, (%rcx)
    4eea: 00 00                        	addb	%al, (%rax)
    4eec: 0a 00                        	orb	(%rax), %al
    4eee: 00 00                        	addb	%al, (%rax)
    4ef0: 00 00                        	addb	%al, (%rax)
    4ef2: 00 00                        	addb	%al, (%rax)
    4ef4: 0a 00                        	orb	(%rax), %al
    4ef6: 00 00                        	addb	%al, (%rax)
    4ef8: 7b 1a                        	jnp	0x4f14 <entrypoint+0x4974>
    4efa: f8                           	clc
    4efb: ff 00                        	incl	(%rax)
    4efd: 00 00                        	addb	%al, (%rax)
    4eff: 00 b7 01 00 00 01            	addb	%dh, 16777217(%rdi)
    4f05: 00 00                        	addb	%al, (%rax)
    4f07: 00 7b 1a                     	addb	%bh, 26(%rbx)
    4f0a: f0                           	lock
    4f0b: ff 00                        	incl	(%rax)
    4f0d: 00 00                        	addb	%al, (%rax)
    4f0f: 00 7b 9a                     	addb	%bh, -102(%rbx)
    4f12: e8 ff 00 00 00               	callq	0x5016 <entrypoint+0x4a76>
    4f17: 00 7b 9a                     	addb	%bh, -102(%rbx)
    4f1a: d8 ff                        	fdivr	%st(7), %st
    4f1c: 00 00                        	addb	%al, (%rax)
    4f1e: 00 00                        	addb	%al, (%rax)
    4f20: 7b 7a                        	jnp	0x4f9c <entrypoint+0x49fc>
    4f22: d0 ff                        	sarb	%bh
    4f24: 00 00                        	addb	%al, (%rax)
    4f26: 00 00                        	addb	%al, (%rax)
    4f28: bf a1 00 00 00               	movl	$161, %edi
    4f2d: 00 00                        	addb	%al, (%rax)
    4f2f: 00 07                        	addb	%al, (%rdi)
    4f31: 01 00                        	addl	%eax, (%rax)
    4f33: 00 a0 ff ff ff b7            	addb	%ah, -1207959553(%rax)
    4f39: 02 00                        	addb	(%rax), %al
    4f3b: 00 0a                        	addb	%cl, (%rdx)
    4f3d: 00 00                        	addb	%al, (%rax)
    4f3f: 00 bf 73 00 00 00            	addb	%bh, 115(%rdi)
    4f45: 00 00                        	addb	%al, (%rax)
    4f47: 00 bf 94 00 00 00            	addb	%bh, 148(%rdi)
    4f4d: 00 00                        	addb	%al, (%rax)
    4f4f: 00 85 10 00 00 05            	addb	%al, 83886096(%rbp)
    4f55: fb                           	sti
    4f56: ff ff                        	<unknown>
    4f58: 79 a1                        	jns	0x4efb <entrypoint+0x495b>
    4f5a: a0 ff 00 00 00 00 55 01 29   	movabsb	2954736289020117247, %al
    4f63: 00 01                        	addb	%al, (%rcx)
    4f65: 00 00                        	addb	%al, (%rax)
    4f67: 00 79 a6                     	addb	%bh, -90(%rcx)
    4f6a: a8 ff                        	testb	$-1, %al
    4f6c: 00 00                        	addb	%al, (%rax)
    4f6e: 00 00                        	addb	%al, (%rax)
    4f70: 79 a1                        	jns	0x4f13 <entrypoint+0x4973>
    4f72: e0 ff                        	loopne	0x4f73 <entrypoint+0x49d3>
    4f74: 00 00                        	addb	%al, (%rax)
    4f76: 00 00                        	addb	%al, (%rax)
    4f78: 0f 16 00                     	movhps	(%rax), %xmm0
    4f7b: 00 00                        	addb	%al, (%rax)
    4f7d: 00 00                        	addb	%al, (%rax)
    4f7f: 00 07                        	addb	%al, (%rdi)
    4f81: 06                           	<unknown>
    4f82: 00 00                        	addb	%al, (%rax)
    4f84: 01 00                        	addl	%eax, (%rax)
    4f86: 00 00                        	addb	%al, (%rax)
    4f88: 7b 6a                        	jnp	0x4ff4 <entrypoint+0x4a54>
    4f8a: e0 ff                        	loopne	0x4f8b <entrypoint+0x49eb>
    4f8c: 00 00                        	addb	%al, (%rax)
    4f8e: 00 00                        	addb	%al, (%rax)
    4f90: 79 a2                        	jns	0x4f34 <entrypoint+0x4994>
    4f92: f0                           	lock
    4f93: ff 00                        	incl	(%rax)
    4f95: 00 00                        	addb	%al, (%rax)
    4f97: 00 2d 62 10 00 00            	addb	%ch, 4194(%rip)  # 5fff <entrypoint+0x5a5f>
    4f9d: 00 00                        	addb	%al, (%rax)
    4f9f: 00 79 a1                     	addb	%bh, -95(%rcx)
    4fa2: d8 ff                        	fdivr	%st(7), %st
    4fa4: 00 00                        	addb	%al, (%rax)
    4fa6: 00 00                        	addb	%al, (%rax)
    4fa8: 2d 16 0e 00 00               	subl	$3606, %eax
    4fad: 00 00                        	addb	%al, (%rax)
    4faf: 00 b7 01 00 00 05            	addb	%dh, 83886081(%rdi)
    4fb5: 00 00                        	addb	%al, (%rax)
    4fb7: 00 2d 21 04 00 00            	addb	%ch, 1057(%rip)  # 53de <entrypoint+0x4e3e>
    4fbd: 00 00                        	addb	%al, (%rax)
    4fbf: 00 bf 21 00 00 00            	addb	%bh, 33(%rdi)
    4fc5: 00 00                        	addb	%al, (%rax)
    4fc7: 00 b7 02 00 00 04            	addb	%dh, 67108866(%rdi)
    4fcd: 00 00                        	addb	%al, (%rax)
    4fcf: 00 85 10 00 00 aa            	addb	%al, -1442840560(%rbp)
    4fd5: fd                           	std
    4fd6: ff ff                        	<unknown>
    4fd8: 85 10                        	testl	%edx, (%rax)
    4fda: 00 00                        	addb	%al, (%rax)
    4fdc: ff ff                        	<unknown>
    4fde: ff ff                        	<unknown>
    4fe0: 1f                           	<unknown>
    4fe1: 26 00 00                     	addb	%al, %es:(%rax)
    4fe4: 00 00                        	addb	%al, (%rax)
    4fe6: 00 00                        	addb	%al, (%rax)
    4fe8: 79 a1                        	jns	0x4f8b <entrypoint+0x49eb>
    4fea: d0 ff                        	sarb	%bh
    4fec: 00 00                        	addb	%al, (%rax)
    4fee: 00 00                        	addb	%al, (%rax)
    4ff0: 0f 61 00                     	punpcklwd	(%rax), %mm0
    4ff3: 00 00                        	addb	%al, (%rax)
    4ff5: 00 00                        	addb	%al, (%rax)
    4ff7: 00 79 a3                     	addb	%bh, -93(%rcx)
    4ffa: 88 ff                        	movb	%bh, %bh
    4ffc: 00 00                        	addb	%al, (%rax)
    4ffe: 00 00                        	addb	%al, (%rax)
    5000: bf 24 00 00 00               	movl	$36, %edi
    5005: 00 00                        	addb	%al, (%rax)
    5007: 00 85 10 00 00 04            	addb	%al, 67108880(%rbp)
    500d: fe ff                        	<unknown>
    500f: ff 55 00                     	callq	*(%rbp)
    5012: 3b 00                        	cmpl	(%rax), %eax
    5014: 00 00                        	addb	%al, (%rax)
    5016: 00 00                        	addb	%al, (%rax)
    5018: 79 a6                        	jns	0x4fc0 <entrypoint+0x4a20>
    501a: e0 ff                        	loopne	0x501b <entrypoint+0x4a7b>
    501c: 00 00                        	addb	%al, (%rax)
    501e: 00 00                        	addb	%al, (%rax)
    5020: 79 a4                        	jns	0x4fc6 <entrypoint+0x4a26>
    5022: e8 ff 00 00 00               	callq	0x5126 <entrypoint+0x4b86>
    5027: 00 2d 46 12 00 00            	addb	%ch, 4678(%rip)  # 6273 <entrypoint+0x5cd3>
    502d: 00 00                        	addb	%al, (%rax)
    502f: 00 79 a1                     	addb	%bh, -95(%rcx)
    5032: d8 ff                        	fdivr	%st(7), %st
    5034: 00 00                        	addb	%al, (%rax)
    5036: 00 00                        	addb	%al, (%rax)
    5038: 2d 14 10 00 00               	subl	$4116, %eax
    503d: 00 00                        	addb	%al, (%rax)
    503f: 00 79 a3                     	addb	%bh, -93(%rcx)
    5042: d0 ff                        	sarb	%bh
    5044: 00 00                        	addb	%al, (%rax)
    5046: 00 00                        	addb	%al, (%rax)
    5048: 0f 63 00                     	packsswb	(%rax), %mm0
    504b: 00 00                        	addb	%al, (%rax)
    504d: 00 00                        	addb	%al, (%rax)
    504f: 00 1f                        	addb	%bl, (%rdi)
    5051: 64 00 00                     	addb	%al, %fs:(%rax)
    5054: 00 00                        	addb	%al, (%rax)
    5056: 00 00                        	addb	%al, (%rax)
    5058: bf a1 00 00 00               	movl	$161, %edi
    505d: 00 00                        	addb	%al, (%rax)
    505f: 00 07                        	addb	%al, (%rdi)
    5061: 01 00                        	addl	%eax, (%rax)
    5063: 00 d0                        	addb	%dl, %al
    5065: ff ff                        	<unknown>
    5067: ff 79 a2                     	<unknown>
    506a: f0                           	lock
    506b: ff 00                        	incl	(%rax)
    506d: 00 00                        	addb	%al, (%rax)
    506f: 00 0f                        	addb	%cl, (%rdi)
    5071: 12 00                        	adcb	(%rax), %al
    5073: 00 00                        	addb	%al, (%rax)
    5075: 00 00                        	addb	%al, (%rax)
    5077: 00 71 22                     	addb	%dh, 34(%rcx)
    507a: 2b 00                        	subl	(%rax), %eax
    507c: 00 00                        	addb	%al, (%rax)
    507e: 00 00                        	addb	%al, (%rax)
    5080: bf a1 00 00 00               	movl	$161, %edi
    5085: 00 00                        	addb	%al, (%rax)
    5087: 00 07                        	addb	%al, (%rdi)
    5089: 01 00                        	addl	%eax, (%rax)
    508b: 00 90 ff ff ff 85            	addb	%dl, -2046820353(%rax)
    5091: 10 00                        	adcb	%al, (%rax)
    5093: 00 dd                        	addb	%bl, %ch
    5095: fa                           	cli
    5096: ff ff                        	<unknown>
    5098: 79 a6                        	jns	0x5040 <entrypoint+0x4aa0>
    509a: 98                           	cwtl
    509b: ff 00                        	incl	(%rax)
    509d: 00 00                        	addb	%al, (%rax)
    509f: 00 79 a1                     	addb	%bh, -95(%rcx)
    50a2: 90                           	nop
    50a3: ff 00                        	incl	(%rax)
    50a5: 00 00                        	addb	%al, (%rax)
    50a7: 00 15 01 d8 ff 01            	addb	%dl, 33544193(%rip)  # 20028ae
    50ad: 00 00                        	addb	%al, (%rax)
    50af: 00 79 a1                     	addb	%bh, -95(%rcx)
    50b2: e8 ff 00 00 00               	callq	0x51b6 <entrypoint+0x4c16>
    50b7: 00 7b 1a                     	addb	%bh, 26(%rbx)
    50ba: e0 ff                        	loopne	0x50bb <entrypoint+0x4b1b>
    50bc: 00 00                        	addb	%al, (%rax)
    50be: 00 00                        	addb	%al, (%rax)
    50c0: 79 81                        	jns	0x5043 <entrypoint+0x4aa3>
    50c2: 10 00                        	adcb	%al, (%rax)
    50c4: 00 00                        	addb	%al, (%rax)
    50c6: 00 00                        	addb	%al, (%rax)
    50c8: b7 02                        	movb	$2, %bh
    50ca: 00 00                        	addb	%al, (%rax)
    50cc: 00 00                        	addb	%al, (%rax)
    50ce: 00 00                        	addb	%al, (%rax)
    50d0: 73 21                        	jae	0x50f3 <entrypoint+0x4b53>
    50d2: 00 00                        	addb	%al, (%rax)
    50d4: 00 00                        	addb	%al, (%rax)
    50d6: 00 00                        	addb	%al, (%rax)
    50d8: bf 96 00 00 00               	movl	$150, %edi
    50dd: 00 00                        	addb	%al, (%rax)
    50df: 00 79 82                     	addb	%bh, -126(%rcx)
    50e2: 08 00                        	orb	%al, (%rax)
    50e4: 00 00                        	addb	%al, (%rax)
    50e6: 00 00                        	addb	%al, (%rax)
    50e8: 79 81                        	jns	0x506b <entrypoint+0x4acb>
    50ea: 00 00                        	addb	%al, (%rax)
    50ec: 00 00                        	addb	%al, (%rax)
    50ee: 00 00                        	addb	%al, (%rax)
    50f0: 7b 7a                        	jnp	0x516c <entrypoint+0x4bcc>
    50f2: d0 ff                        	sarb	%bh
    50f4: 00 00                        	addb	%al, (%rax)
    50f6: 00 00                        	addb	%al, (%rax)
    50f8: 7b 9a                        	jnp	0x5094 <entrypoint+0x4af4>
    50fa: d8 ff                        	fdivr	%st(7), %st
    50fc: 00 00                        	addb	%al, (%rax)
    50fe: 00 00                        	addb	%al, (%rax)
    5100: b7 08                        	movb	$8, %bh
    5102: 00 00                        	addb	%al, (%rax)
    5104: 01 00                        	addl	%eax, (%rax)
    5106: 00 00                        	addb	%al, (%rax)
    5108: b7 03                        	movb	$3, %bh
    510a: 00 00                        	addb	%al, (%rax)
    510c: 01 00                        	addl	%eax, (%rax)
    510e: 00 00                        	addb	%al, (%rax)
    5110: 1d 69 01 00 00               	sbbl	$361, %eax
    5115: 00 00                        	addb	%al, (%rax)
    5117: 00 b7 03 00 00 00            	addb	%dh, 3(%rdi)
    511d: 00 00                        	addb	%al, (%rax)
    511f: 00 15 06 01 00 00            	addb	%dl, 262(%rip)  # 522b <entrypoint+0x4c8b>
    5125: 00 00                        	addb	%al, (%rax)
    5127: 00 b7 08 00 00 00            	addb	%dh, 8(%rdi)
    512d: 00 00                        	addb	%al, (%rax)
    512f: 00 7b 6a                     	addb	%bh, 106(%rbx)
    5132: b0 ff                        	movb	$-1, %al
    5134: 00 00                        	addb	%al, (%rax)
    5136: 00 00                        	addb	%al, (%rax)
    5138: 4f 38 00                     	cmpb	%r8b, (%r8)
    513b: 00 00                        	addb	%al, (%rax)
    513d: 00 00                        	addb	%al, (%rax)
    513f: 00 bf 83 00 00 00            	addb	%bh, 131(%rdi)
    5145: 00 00                        	addb	%al, (%rax)
    5147: 00 57 03                     	addb	%dl, 3(%rdi)
    514a: 00 00                        	addb	%al, (%rax)
    514c: 01 00                        	addl	%eax, (%rax)
    514e: 00 00                        	addb	%al, (%rax)
    5150: 55                           	pushq	%rbp
    5151: 03 0d 00 00 00 00            	addl	(%rip), %ecx  # 5157 <entrypoint+0x4bb7>
    5157: 00 3d 96 06 00 00            	addb	%bh, 1686(%rip)  # 57f3 <entrypoint+0x5253>
    515d: 00 00                        	addb	%al, (%rax)
    515f: 00 bf 73 00 00 00            	addb	%bh, 115(%rdi)
    5165: 00 00                        	addb	%al, (%rax)
    5167: 00 0f                        	addb	%cl, (%rdi)
    5169: 63 00                        	movslq	(%rax), %eax
    516b: 00 00                        	addb	%al, (%rax)
    516d: 00 00                        	addb	%al, (%rax)
    516f: 00 71 33                     	addb	%dh, 51(%rcx)
    5172: 00 00                        	addb	%al, (%rax)
    5174: 00 00                        	addb	%al, (%rax)
    5176: 00 00                        	addb	%al, (%rax)
    5178: 67 03 00                     	addl	(%eax), %eax
    517b: 00 38                        	addb	%bh, (%rax)
    517d: 00 00                        	addb	%al, (%rax)
    517f: 00 c7                        	addb	%al, %bh
    5181: 03 00                        	addl	(%rax), %eax
    5183: 00 38                        	addb	%bh, (%rax)
    5185: 00 00                        	addb	%al, (%rax)
    5187: 00 65 03                     	addb	%ah, 3(%rbp)
    518a: 06                           	<unknown>
    518b: 00 bf ff ff ff bf            	addb	%bh, -1073741825(%rdi)
    5191: a1 00 00 00 00 00 00 07 01   	movabsl	74027918874902528, %eax
    519a: 00 00                        	addb	%al, (%rax)
    519c: d0 ff                        	sarb	%bh
    519e: ff ff                        	<unknown>
    51a0: bf a2 00 00 00               	movl	$162, %edi
    51a5: 00 00                        	addb	%al, (%rax)
    51a7: 00 07                        	addb	%al, (%rdi)
    51a9: 02 00                        	addb	(%rax), %al
    51ab: 00 b0 ff ff ff 85            	addb	%dh, -2046820353(%rax)
    51b1: 10 00                        	adcb	%al, (%rax)
    51b3: 00 5e ff                     	addb	%bl, -1(%rsi)
    51b6: ff ff                        	<unknown>
    51b8: 85 10                        	testl	%edx, (%rax)
    51ba: 00 00                        	addb	%al, (%rax)
    51bc: ff ff                        	<unknown>
    51be: ff ff                        	<unknown>
    51c0: 79 24                        	jns	0x51e6 <entrypoint+0x4c46>
    51c2: 18 00                        	sbbb	%al, (%rax)
    51c4: 00 00                        	addb	%al, (%rax)
    51c6: 00 00                        	addb	%al, (%rax)
    51c8: bf 72 00 00 00               	movl	$114, %edi
    51cd: 00 00                        	addb	%al, (%rax)
    51cf: 00 bf 63 00 00 00            	addb	%bh, 99(%rdi)
    51d5: 00 00                        	addb	%al, (%rax)
    51d7: 00 8d 00 00 00 04            	addb	%cl, 67108864(%rbp)
    51dd: 00 00                        	addb	%al, (%rax)
    51df: 00 15 00 71 ff 00            	addb	%dl, 16740608(%rip)  # ffc2e5
    51e5: 00 00                        	addb	%al, (%rax)
    51e7: 00 05 00 9a ff 00            	addb	%al, 16751104(%rip)  # ffebed
    51ed: 00 00                        	addb	%al, (%rax)
    51ef: 00 79 81                     	addb	%bh, -127(%rcx)
    51f2: 10 00                        	adcb	%al, (%rax)
    51f4: 00 00                        	addb	%al, (%rax)
    51f6: 00 00                        	addb	%al, (%rax)
    51f8: b7 02                        	movb	$2, %bh
    51fa: 00 00                        	addb	%al, (%rax)
    51fc: 01 00                        	addl	%eax, (%rax)
    51fe: 00 00                        	addb	%al, (%rax)
    5200: 73 21                        	jae	0x5223 <entrypoint+0x4c83>
    5202: 00 00                        	addb	%al, (%rax)
    5204: 00 00                        	addb	%al, (%rax)
    5206: 00 00                        	addb	%al, (%rax)
    5208: 07                           	<unknown>
    5209: 06                           	<unknown>
    520a: 00 00                        	addb	%al, (%rax)
    520c: 01 00                        	addl	%eax, (%rax)
    520e: 00 00                        	addb	%al, (%rax)
    5210: 05 00 d9 ff 00               	addl	$16767232, %eax
    5215: 00 00                        	addb	%al, (%rax)
    5217: 00 95 00 00 00 00            	addb	%dl, (%rbp)
    521d: 00 00                        	addb	%al, (%rax)
    521f: 00 bf 47 00 00 00            	addb	%bh, 71(%rdi)
    5225: 00 00                        	addb	%al, (%rax)
    5227: 00 bf 28 00 00 00            	addb	%bh, 40(%rdi)
    522d: 00 00                        	addb	%al, (%rax)
    522f: 00 bf 16 00 00 00            	addb	%bh, 22(%rdi)
    5235: 00 00                        	addb	%al, (%rax)
    5237: 00 bf 81 00 00 00            	addb	%bh, 129(%rdi)
    523d: 00 00                        	addb	%al, (%rax)
    523f: 00 bf 32 00 00 00            	addb	%bh, 50(%rdi)
    5245: 00 00                        	addb	%al, (%rax)
    5247: 00 bf 73 00 00 00            	addb	%bh, 115(%rdi)
    524d: 00 00                        	addb	%al, (%rax)
    524f: 00 85 10 00 00 ca            	addb	%al, -905969648(%rbp)
    5255: 04 00                        	addb	$0, %al
    5257: 00 73 06                     	addb	%dh, 6(%rbx)
    525a: 10 00                        	adcb	%al, (%rax)
    525c: 00 00                        	addb	%al, (%rax)
    525e: 00 00                        	addb	%al, (%rax)
    5260: 7b 86                        	jnp	0x51e8 <entrypoint+0x4c48>
    5262: 00 00                        	addb	%al, (%rax)
    5264: 00 00                        	addb	%al, (%rax)
    5266: 00 00                        	addb	%al, (%rax)
    5268: b7 01                        	movb	$1, %bh
    526a: 00 00                        	addb	%al, (%rax)
    526c: 00 00                        	addb	%al, (%rax)
    526e: 00 00                        	addb	%al, (%rax)
    5270: b7 02                        	movb	$2, %bh
    5272: 00 00                        	addb	%al, (%rax)
    5274: 01 00                        	addl	%eax, (%rax)
    5276: 00 00                        	addb	%al, (%rax)
    5278: 15 07 01 00 00               	adcl	$263, %eax
    527d: 00 00                        	addb	%al, (%rax)
    527f: 00 b7 02 00 00 00            	addb	%dh, 2(%rdi)
    5285: 00 00                        	addb	%al, (%rax)
    5287: 00 73 26                     	addb	%dh, 38(%rbx)
    528a: 11 00                        	adcl	%eax, (%rax)
    528c: 00 00                        	addb	%al, (%rax)
    528e: 00 00                        	addb	%al, (%rax)
    5290: 7b 16                        	jnp	0x52a8 <entrypoint+0x4d08>
    5292: 08 00                        	orb	%al, (%rax)
    5294: 00 00                        	addb	%al, (%rax)
    5296: 00 00                        	addb	%al, (%rax)
    5298: 95                           	xchgl	%ebp, %eax
    5299: 00 00                        	addb	%al, (%rax)
    529b: 00 00                        	addb	%al, (%rax)
    529d: 00 00                        	addb	%al, (%rax)
    529f: 00 bf 38 00 00 00            	addb	%bh, 56(%rdi)
    52a5: 00 00                        	addb	%al, (%rax)
    52a7: 00 bf 27 00 00 00            	addb	%bh, 39(%rdi)
    52ad: 00 00                        	addb	%al, (%rax)
    52af: 00 bf 16 00 00 00            	addb	%bh, 22(%rdi)
    52b5: 00 00                        	addb	%al, (%rax)
    52b7: 00 b7 09 00 00 01            	addb	%dh, 16777225(%rdi)
    52bd: 00 00                        	addb	%al, (%rax)
    52bf: 00 71 61                     	addb	%dh, 97(%rcx)
    52c2: 10 00                        	adcb	%al, (%rax)
    52c4: 00 00                        	addb	%al, (%rax)
    52c6: 00 00                        	addb	%al, (%rax)
    52c8: 55                           	pushq	%rbp
    52c9: 01 3c 00                     	addl	%edi, (%rax,%rax)
    52cc: 00 00                        	addb	%al, (%rax)
    52ce: 00 00                        	addb	%al, (%rax)
    52d0: 79 61                        	jns	0x5333 <entrypoint+0x4d93>
    52d2: 00 00                        	addb	%al, (%rax)
    52d4: 00 00                        	addb	%al, (%rax)
    52d6: 00 00                        	addb	%al, (%rax)
    52d8: 85 10                        	testl	%edx, (%rax)
    52da: 00 00                        	addb	%al, (%rax)
    52dc: d2 04 00                     	rolb	%cl, (%rax,%rax)
    52df: 00 79 61                     	addb	%bh, 97(%rcx)
    52e2: 08 00                        	orb	%al, (%rax)
    52e4: 00 00                        	addb	%al, (%rax)
    52e6: 00 00                        	addb	%al, (%rax)
    52e8: 55                           	pushq	%rbp
    52e9: 00 14 00                     	addb	%dl, (%rax,%rax)
    52ec: 00 00                        	addb	%al, (%rax)
    52ee: 00 00                        	addb	%al, (%rax)
    52f0: 18 02                        	sbbb	%al, (%rdx)
    52f2: 00 00                        	addb	%al, (%rax)
    52f4: ce                           	<unknown>
    52f5: 98                           	cwtl
		...
    52fe: 00 00                        	addb	%al, (%rax)
    5300: 15 01 02 00 00               	adcl	$513, %eax
    5305: 00 00                        	addb	%al, (%rax)
    5307: 00 18                        	addb	%bl, (%rax)
    5309: 02 00                        	addb	(%rax), %al
    530b: 00 ca                        	addb	%cl, %dl
    530d: 98                           	cwtl
		...
    5316: 00 00                        	addb	%al, (%rax)
    5318: b7 03                        	movb	$3, %bh
    531a: 00 00                        	addb	%al, (%rax)
    531c: 01 00                        	addl	%eax, (%rax)
    531e: 00 00                        	addb	%al, (%rax)
    5320: 15 01 01 00 00               	adcl	$257, %eax
    5325: 00 00                        	addb	%al, (%rax)
    5327: 00 b7 03 00 00 02            	addb	%dh, 33554435(%rdi)
    532d: 00 00                        	addb	%al, (%rax)
    532f: 00 79 61                     	addb	%bh, 97(%rcx)
    5332: 00 00                        	addb	%al, (%rax)
    5334: 00 00                        	addb	%al, (%rax)
    5336: 00 00                        	addb	%al, (%rax)
    5338: 85 10                        	testl	%edx, (%rax)
    533a: 00 00                        	addb	%al, (%rax)
    533c: ad                           	lodsl	(%rsi), %eax
    533d: 04 00                        	addb	$0, %al
    533f: 00 55 00                     	addb	%dl, (%rbp)
    5342: 01 00                        	addl	%eax, (%rax)
    5344: 00 00                        	addb	%al, (%rax)
    5346: 00 00                        	addb	%al, (%rax)
    5348: 05 00 03 00 00               	addl	$768, %eax
    534d: 00 00                        	addb	%al, (%rax)
    534f: 00 85 10 00 00 0d            	addb	%al, 218103824(%rbp)
    5355: 01 00                        	addl	%eax, (%rax)
    5357: 00 b7 09 00 00 01            	addb	%dh, 16777225(%rdi)
    535d: 00 00                        	addb	%al, (%rax)
    535f: 00 05 00 29 00 00            	addb	%al, 10496(%rip)  # 7c65 <entrypoint+0x76c5>
    5365: 00 00                        	addb	%al, (%rax)
    5367: 00 79 83                     	addb	%bh, -125(%rcx)
    536a: 18 00                        	sbbb	%al, (%rax)
    536c: 00 00                        	addb	%al, (%rax)
    536e: 00 00                        	addb	%al, (%rax)
    5370: 79 62                        	jns	0x53d4 <entrypoint+0x4e34>
    5372: 00 00                        	addb	%al, (%rax)
    5374: 00 00                        	addb	%al, (%rax)
    5376: 00 00                        	addb	%al, (%rax)
    5378: bf 71 00 00 00               	movl	$113, %edi
    537d: 00 00                        	addb	%al, (%rax)
    537f: 00 8d 00 00 00 03            	addb	%cl, 50331648(%rbp)
    5385: 00 00                        	addb	%al, (%rax)
    5387: 00 05 00 23 00 00            	addb	%al, 8960(%rip)  # 768d <entrypoint+0x70ed>
    538d: 00 00                        	addb	%al, (%rax)
    538f: 00 55 01                     	addb	%dl, 1(%rbp)
    5392: 08 00                        	orb	%al, (%rax)
    5394: 00 00                        	addb	%al, (%rax)
    5396: 00 00                        	addb	%al, (%rax)
    5398: 79 61                        	jns	0x53fb <entrypoint+0x4e5b>
    539a: 00 00                        	addb	%al, (%rax)
    539c: 00 00                        	addb	%al, (%rax)
    539e: 00 00                        	addb	%al, (%rax)
    53a0: 18 02                        	sbbb	%al, (%rdx)
    53a2: 00 00                        	addb	%al, (%rax)
    53a4: cc                           	int3
    53a5: 98                           	cwtl
		...
    53ae: 00 00                        	addb	%al, (%rax)
    53b0: b7 03                        	movb	$3, %bh
    53b2: 00 00                        	addb	%al, (%rax)
    53b4: 02 00                        	addb	(%rax), %al
    53b6: 00 00                        	addb	%al, (%rax)
    53b8: 85 10                        	testl	%edx, (%rax)
    53ba: 00 00                        	addb	%al, (%rax)
    53bc: 9d                           	popfq
    53bd: 04 00                        	addb	$0, %al
    53bf: 00 15 00 02 00 00            	addb	%dl, 512(%rip)  # 55c5 <entrypoint+0x5025>
    53c5: 00 00                        	addb	%al, (%rax)
    53c7: 00 85 10 00 00 fe            	addb	%al, -33554416(%rbp)
    53cd: 00 00                        	addb	%al, (%rax)
    53cf: 00 05 00 1b 00 00            	addb	%al, 6912(%rip)  # 6ed5 <entrypoint+0x6935>
    53d5: 00 00                        	addb	%al, (%rax)
    53d7: 00 b7 01 00 00 00            	addb	%dh, 1(%rdi)
    53dd: 00 00                        	addb	%al, (%rax)
    53df: 00 7b 1a                     	addb	%bh, 26(%rbx)
    53e2: 80 ff 00                     	cmpb	$0, %bh
    53e5: 00 00                        	addb	%al, (%rax)
    53e7: 00 b7 09 00 00 01            	addb	%dh, 16777225(%rdi)
    53ed: 00 00                        	addb	%al, (%rax)
    53ef: 00 73 9a                     	addb	%dh, -102(%rbx)
    53f2: 9f                           	lahf
    53f3: ff 00                        	incl	(%rax)
    53f5: 00 00                        	addb	%al, (%rax)
    53f7: 00 79 62                     	addb	%bh, 98(%rcx)
    53fa: 00 00                        	addb	%al, (%rax)
    53fc: 00 00                        	addb	%al, (%rax)
    53fe: 00 00                        	addb	%al, (%rax)
    5400: 7b 7a                        	jnp	0x547c <entrypoint+0x4edc>
    5402: 78 ff                        	js	0x5403 <entrypoint+0x4e63>
    5404: 00 00                        	addb	%al, (%rax)
    5406: 00 00                        	addb	%al, (%rax)
    5408: bf a7 00 00 00               	movl	$167, %edi
    540d: 00 00                        	addb	%al, (%rax)
    540f: 00 07                        	addb	%al, (%rdi)
    5411: 07                           	<unknown>
    5412: 00 00                        	addb	%al, (%rax)
    5414: a0 ff ff ff bf a3 00 00 00   	movabsb	703300894719, %al
    541d: 00 00                        	addb	%al, (%rax)
    541f: 00 07                        	addb	%al, (%rdi)
    5421: 03 00                        	addl	(%rax), %eax
    5423: 00 9f ff ff ff bf            	addb	%bl, -1073741825(%rdi)
    5429: a4                           	movsb	(%rsi), %es:(%rdi)
    542a: 00 00                        	addb	%al, (%rax)
    542c: 00 00                        	addb	%al, (%rax)
    542e: 00 00                        	addb	%al, (%rax)
    5430: 07                           	<unknown>
    5431: 04 00                        	addb	$0, %al
    5433: 00 80 ff ff ff bf            	addb	%al, -1073741825(%rax)
    5439: 71 00                        	jno	0x543b <entrypoint+0x4e9b>
    543b: 00 00                        	addb	%al, (%rax)
    543d: 00 00                        	addb	%al, (%rax)
    543f: 00 85 10 00 00 56            	addb	%al, 1442840592(%rbp)
    5445: 02 00                        	addb	(%rax), %al
    5447: 00 79 83                     	addb	%bh, -125(%rcx)
    544a: 18 00                        	sbbb	%al, (%rax)
    544c: 00 00                        	addb	%al, (%rax)
    544e: 00 00                        	addb	%al, (%rax)
    5450: 79 a1                        	jns	0x53f3 <entrypoint+0x4e53>
    5452: 78 ff                        	js	0x5453 <entrypoint+0x4eb3>
    5454: 00 00                        	addb	%al, (%rax)
    5456: 00 00                        	addb	%al, (%rax)
    5458: bf 72 00 00 00               	movl	$114, %edi
    545d: 00 00                        	addb	%al, (%rax)
    545f: 00 8d 00 00 00 03            	addb	%cl, 50331648(%rbp)
    5465: 00 00                        	addb	%al, (%rax)
    5467: 00 15 00 01 00 00            	addb	%dl, 256(%rip)  # 556d <entrypoint+0x4fcd>
    546d: 00 00                        	addb	%al, (%rax)
    546f: 00 05 00 ea ff 00            	addb	%al, 16771584(%rip)  # 1003e75
    5475: 00 00                        	addb	%al, (%rax)
    5477: 00 bf a1 00 00 00            	addb	%bh, 161(%rdi)
    547d: 00 00                        	addb	%al, (%rax)
    547f: 00 07                        	addb	%al, (%rdi)
    5481: 01 00                        	addl	%eax, (%rax)
    5483: 00 a0 ff ff ff 18            	addb	%ah, 419430399(%rax)
    5489: 02 00                        	addb	(%rax), %al
    548b: 00 c8                        	addb	%cl, %al
    548d: 98                           	cwtl
		...
    5496: 00 00                        	addb	%al, (%rax)
    5498: b7 03                        	movb	$3, %bh
    549a: 00 00                        	addb	%al, (%rax)
    549c: 02 00                        	addb	(%rax), %al
    549e: 00 00                        	addb	%al, (%rax)
    54a0: 85 10                        	testl	%edx, (%rax)
    54a2: 00 00                        	addb	%al, (%rax)
    54a4: 80 04 00 00                  	addb	$0, (%rax,%rax)
    54a8: bf 09 00 00 00               	movl	$9, %edi
    54ad: 00 00                        	addb	%al, (%rax)
    54af: 00 73 96                     	addb	%dh, -106(%rbx)
    54b2: 10 00                        	adcb	%al, (%rax)
    54b4: 00 00                        	addb	%al, (%rax)
    54b6: 00 00                        	addb	%al, (%rax)
    54b8: 79 61                        	jns	0x551b <entrypoint+0x4f7b>
    54ba: 08 00                        	orb	%al, (%rax)
    54bc: 00 00                        	addb	%al, (%rax)
    54be: 00 00                        	addb	%al, (%rax)
    54c0: 07                           	<unknown>
    54c1: 01 00                        	addl	%eax, (%rax)
    54c3: 00 01                        	addb	%al, (%rcx)
    54c5: 00 00                        	addb	%al, (%rax)
    54c7: 00 7b 16                     	addb	%bh, 22(%rbx)
    54ca: 08 00                        	orb	%al, (%rax)
    54cc: 00 00                        	addb	%al, (%rax)
    54ce: 00 00                        	addb	%al, (%rax)
    54d0: bf 60 00 00 00               	movl	$96, %edi
    54d5: 00 00                        	addb	%al, (%rax)
    54d7: 00 95 00 00 00 00            	addb	%dl, (%rbp)
    54dd: 00 00                        	addb	%al, (%rax)
    54df: 00 bf 16 00 00 00            	addb	%bh, 22(%rdi)
    54e5: 00 00                        	addb	%al, (%rax)
    54e7: 00 71 62                     	addb	%dh, 98(%rcx)
    54ea: 10 00                        	adcb	%al, (%rax)
    54ec: 00 00                        	addb	%al, (%rax)
    54ee: 00 00                        	addb	%al, (%rax)
    54f0: 79 61                        	jns	0x5553 <entrypoint+0x4fb3>
    54f2: 08 00                        	orb	%al, (%rax)
    54f4: 00 00                        	addb	%al, (%rax)
    54f6: 00 00                        	addb	%al, (%rax)
    54f8: bf 27 00 00 00               	movl	$39, %edi
    54fd: 00 00                        	addb	%al, (%rax)
    54ff: 00 15 01 19 00 00            	addb	%dl, 6401(%rip)  # 6e06 <entrypoint+0x6866>
    5505: 00 00                        	addb	%al, (%rax)
    5507: 00 b7 07 00 00 01            	addb	%dh, 16777223(%rdi)
    550d: 00 00                        	addb	%al, (%rax)
    550f: 00 55 02                     	addb	%dl, 2(%rbp)
    5512: 16                           	<unknown>
    5513: 00 00                        	addb	%al, (%rax)
    5515: 00 00                        	addb	%al, (%rax)
    5517: 00 15 01 01 00 01            	addb	%dl, 16777473(%rip)  # 100561e
    551d: 00 00                        	addb	%al, (%rax)
    551f: 00 05 00 0e 00 00            	addb	%al, 3584(%rip)  # 6325 <entrypoint+0x5d85>
    5525: 00 00                        	addb	%al, (%rax)
    5527: 00 71 61                     	addb	%dh, 97(%rcx)
    552a: 11 00                        	adcl	%eax, (%rax)
    552c: 00 00                        	addb	%al, (%rax)
    552e: 00 00                        	addb	%al, (%rax)
    5530: 15 01 0c 00 00               	adcl	$3073, %eax
    5535: 00 00                        	addb	%al, (%rax)
    5537: 00 79 61                     	addb	%bh, 97(%rcx)
    553a: 00 00                        	addb	%al, (%rax)
    553c: 00 00                        	addb	%al, (%rax)
    553e: 00 00                        	addb	%al, (%rax)
    5540: 85 10                        	testl	%edx, (%rax)
    5542: 00 00                        	addb	%al, (%rax)
    5544: 85 04 00                     	testl	%eax, (%rax,%rax)
    5547: 00 55 00                     	addb	%dl, (%rbp)
    554a: 09 00                        	orl	%eax, (%rax)
    554c: 00 00                        	addb	%al, (%rax)
    554e: 00 00                        	addb	%al, (%rax)
    5550: 79 61                        	jns	0x55b3 <entrypoint+0x5013>
    5552: 00 00                        	addb	%al, (%rax)
    5554: 00 00                        	addb	%al, (%rax)
    5556: 00 00                        	addb	%al, (%rax)
    5558: b7 07                        	movb	$7, %bh
    555a: 00 00                        	addb	%al, (%rax)
    555c: 01 00                        	addl	%eax, (%rax)
    555e: 00 00                        	addb	%al, (%rax)
    5560: 18 02                        	sbbb	%al, (%rdx)
    5562: 00 00                        	addb	%al, (%rax)
    5564: cf                           	iretl
    5565: 98                           	cwtl
		...
    556e: 00 00                        	addb	%al, (%rax)
    5570: b7 03                        	movb	$3, %bh
    5572: 00 00                        	addb	%al, (%rax)
    5574: 01 00                        	addl	%eax, (%rax)
    5576: 00 00                        	addb	%al, (%rax)
    5578: 85 10                        	testl	%edx, (%rax)
    557a: 00 00                        	addb	%al, (%rax)
    557c: 65 04 00                     	addb	$0, %al
    557f: 00 15 00 02 00 00            	addb	%dl, 512(%rip)  # 5785 <entrypoint+0x51e5>
    5585: 00 00                        	addb	%al, (%rax)
    5587: 00 85 10 00 00 c6            	addb	%al, -973078512(%rbp)
    558d: 00 00                        	addb	%al, (%rax)
    558f: 00 05 00 06 00 00            	addb	%al, 1536(%rip)  # 5b95 <entrypoint+0x55f5>
    5595: 00 00                        	addb	%al, (%rax)
    5597: 00 79 61                     	addb	%bh, 97(%rcx)
    559a: 00 00                        	addb	%al, (%rax)
    559c: 00 00                        	addb	%al, (%rax)
    559e: 00 00                        	addb	%al, (%rax)
    55a0: 18 02                        	sbbb	%al, (%rdx)
    55a2: 00 00                        	addb	%al, (%rax)
    55a4: d0 98 00 00 00 00            	rcrb	(%rax)
    55aa: 00 00                        	addb	%al, (%rax)
    55ac: 00 00                        	addb	%al, (%rax)
    55ae: 00 00                        	addb	%al, (%rax)
    55b0: b7 03                        	movb	$3, %bh
    55b2: 00 00                        	addb	%al, (%rax)
    55b4: 01 00                        	addl	%eax, (%rax)
    55b6: 00 00                        	addb	%al, (%rax)
    55b8: 85 10                        	testl	%edx, (%rax)
    55ba: 00 00                        	addb	%al, (%rax)
    55bc: 5d                           	popq	%rbp
    55bd: 04 00                        	addb	$0, %al
    55bf: 00 bf 07 00 00 00            	addb	%bh, 7(%rdi)
    55c5: 00 00                        	addb	%al, (%rax)
    55c7: 00 73 76                     	addb	%dh, 118(%rbx)
    55ca: 10 00                        	adcb	%al, (%rax)
    55cc: 00 00                        	addb	%al, (%rax)
    55ce: 00 00                        	addb	%al, (%rax)
    55d0: 57                           	pushq	%rdi
    55d1: 07                           	<unknown>
    55d2: 00 00                        	addb	%al, (%rax)
    55d4: ff 00                        	incl	(%rax)
    55d6: 00 00                        	addb	%al, (%rax)
    55d8: b7 00                        	movb	$0, %bh
    55da: 00 00                        	addb	%al, (%rax)
    55dc: 01 00                        	addl	%eax, (%rax)
    55de: 00 00                        	addb	%al, (%rax)
    55e0: 55                           	pushq	%rbp
    55e1: 07                           	<unknown>
    55e2: 01 00                        	addl	%eax, (%rax)
    55e4: 00 00                        	addb	%al, (%rax)
    55e6: 00 00                        	addb	%al, (%rax)
    55e8: b7 00                        	movb	$0, %bh
    55ea: 00 00                        	addb	%al, (%rax)
    55ec: 00 00                        	addb	%al, (%rax)
    55ee: 00 00                        	addb	%al, (%rax)
    55f0: 95                           	xchgl	%ebp, %eax
    55f1: 00 00                        	addb	%al, (%rax)
    55f3: 00 00                        	addb	%al, (%rax)
    55f5: 00 00                        	addb	%al, (%rax)
    55f7: 00 b7 03 00 00 00            	addb	%dh, 3(%rdi)
    55fd: 00 00                        	addb	%al, (%rax)
    55ff: 00 63 3a                     	addb	%ah, 58(%rbx)
    5602: fc                           	cld
    5603: ff 00                        	incl	(%rax)
    5605: 00 00                        	addb	%al, (%rax)
    5607: 00 bf 23 00 00 00            	addb	%bh, 35(%rdi)
    560d: 00 00                        	addb	%al, (%rax)
    560f: 00 67 03                     	addb	%ah, 3(%rdi)
    5612: 00 00                        	addb	%al, (%rax)
    5614: 20 00                        	andb	%al, (%rax)
    5616: 00 00                        	addb	%al, (%rax)
    5618: 77 03                        	ja	0x561d <entrypoint+0x507d>
    561a: 00 00                        	addb	%al, (%rax)
    561c: 20 00                        	andb	%al, (%rax)
    561e: 00 00                        	addb	%al, (%rax)
    5620: b7 04                        	movb	$4, %bh
    5622: 00 00                        	addb	%al, (%rax)
    5624: 80 00 00                     	addb	$0, (%rax)
    5627: 00 2d 34 0d 00 00            	addb	%ch, 3380(%rip)  # 6361 <entrypoint+0x5dc1>
    562d: 00 00                        	addb	%al, (%rax)
    562f: 00 b7 04 00 00 00            	addb	%dh, 4(%rdi)
    5635: 08 00                        	orb	%al, (%rax)
    5637: 00 2d 34 01 00 00            	addb	%ch, 308(%rip)  # 5771 <entrypoint+0x51d1>
    563d: 00 00                        	addb	%al, (%rax)
    563f: 00 05 00 0d 00 00            	addb	%al, 3328(%rip)  # 6345 <entrypoint+0x5da5>
    5645: 00 00                        	addb	%al, (%rax)
    5647: 00 bf 23 00 00 00            	addb	%bh, 35(%rdi)
    564d: 00 00                        	addb	%al, (%rax)
    564f: 00 57 03                     	addb	%dl, 3(%rdi)
    5652: 00 00                        	addb	%al, (%rax)
    5654: 3f                           	<unknown>
    5655: 00 00                        	addb	%al, (%rax)
    5657: 00 47 03                     	addb	%al, 3(%rdi)
    565a: 00 00                        	addb	%al, (%rax)
    565c: 80 00 00                     	addb	$0, (%rax)
    565f: 00 73 3a                     	addb	%dh, 58(%rbx)
    5662: fd                           	std
    5663: ff 00                        	incl	(%rax)
    5665: 00 00                        	addb	%al, (%rax)
    5667: 00 77 02                     	addb	%dh, 2(%rdi)
    566a: 00 00                        	addb	%al, (%rax)
    566c: 06                           	<unknown>
    566d: 00 00                        	addb	%al, (%rax)
    566f: 00 57 02                     	addb	%dl, 2(%rdi)
    5672: 00 00                        	addb	%al, (%rax)
    5674: 1f                           	<unknown>
    5675: 00 00                        	addb	%al, (%rax)
    5677: 00 47 02                     	addb	%al, 2(%rdi)
    567a: 00 00                        	addb	%al, (%rax)
    567c: c0 00 00                     	rolb	$0, (%rax)
    567f: 00 73 2a                     	addb	%dh, 42(%rbx)
    5682: fc                           	cld
    5683: ff 00                        	incl	(%rax)
    5685: 00 00                        	addb	%al, (%rax)
    5687: 00 b7 03 00 00 02            	addb	%dh, 33554435(%rdi)
    568d: 00 00                        	addb	%al, (%rax)
    568f: 00 05 00 28 00 00            	addb	%al, 10240(%rip)  # 7e95 <entrypoint+0x78f5>
    5695: 00 00                        	addb	%al, (%rax)
    5697: 00 73 2a                     	addb	%dh, 42(%rbx)
    569a: fc                           	cld
    569b: ff 00                        	incl	(%rax)
    569d: 00 00                        	addb	%al, (%rax)
    569f: 00 b7 03 00 00 01            	addb	%dh, 16777219(%rdi)
    56a5: 00 00                        	addb	%al, (%rax)
    56a7: 00 05 00 25 00 00            	addb	%al, 9472(%rip)  # 7bad <entrypoint+0x760d>
    56ad: 00 00                        	addb	%al, (%rax)
    56af: 00 bf 23 00 00 00            	addb	%bh, 35(%rdi)
    56b5: 00 00                        	addb	%al, (%rax)
    56b7: 00 67 03                     	addb	%ah, 3(%rdi)
    56ba: 00 00                        	addb	%al, (%rax)
    56bc: 20 00                        	andb	%al, (%rax)
    56be: 00 00                        	addb	%al, (%rax)
    56c0: 77 03                        	ja	0x56c5 <entrypoint+0x5125>
    56c2: 00 00                        	addb	%al, (%rax)
    56c4: 20 00                        	andb	%al, (%rax)
    56c6: 00 00                        	addb	%al, (%rax)
    56c8: b7 04                        	movb	$4, %bh
    56ca: 00 00                        	addb	%al, (%rax)
    56cc: 00 00                        	addb	%al, (%rax)
    56ce: 01 00                        	addl	%eax, (%rax)
    56d0: 2d 34 01 00 00               	subl	$308, %eax
    56d5: 00 00                        	addb	%al, (%rax)
    56d7: 00 05 00 0e 00 00            	addb	%al, 3584(%rip)  # 64dd <entrypoint+0x5f3d>
    56dd: 00 00                        	addb	%al, (%rax)
    56df: 00 57 02                     	addb	%dl, 2(%rdi)
    56e2: 00 00                        	addb	%al, (%rax)
    56e4: 3f                           	<unknown>
    56e5: 00 00                        	addb	%al, (%rax)
    56e7: 00 47 02                     	addb	%al, 2(%rdi)
    56ea: 00 00                        	addb	%al, (%rax)
    56ec: 80 00 00                     	addb	$0, (%rax)
    56ef: 00 73 2a                     	addb	%dh, 42(%rbx)
    56f2: fe ff                        	<unknown>
    56f4: 00 00                        	addb	%al, (%rax)
    56f6: 00 00                        	addb	%al, (%rax)
    56f8: bf 32 00 00 00               	movl	$50, %edi
    56fd: 00 00                        	addb	%al, (%rax)
    56ff: 00 77 02                     	addb	%dh, 2(%rdi)
    5702: 00 00                        	addb	%al, (%rax)
    5704: 06                           	<unknown>
    5705: 00 00                        	addb	%al, (%rax)
    5707: 00 57 02                     	addb	%dl, 2(%rdi)
    570a: 00 00                        	addb	%al, (%rax)
    570c: 3f                           	<unknown>
    570d: 00 00                        	addb	%al, (%rax)
    570f: 00 47 02                     	addb	%al, 2(%rdi)
    5712: 00 00                        	addb	%al, (%rax)
    5714: 80 00 00                     	addb	$0, (%rax)
    5717: 00 73 2a                     	addb	%dh, 42(%rbx)
    571a: fd                           	std
    571b: ff 00                        	incl	(%rax)
    571d: 00 00                        	addb	%al, (%rax)
    571f: 00 77 03                     	addb	%dh, 3(%rdi)
    5722: 00 00                        	addb	%al, (%rax)
    5724: 0c 00                        	orb	$0, %al
    5726: 00 00                        	addb	%al, (%rax)
    5728: 57                           	pushq	%rdi
    5729: 03 00                        	addl	(%rax), %eax
    572b: 00 0f                        	addb	%cl, (%rdi)
    572d: 00 00                        	addb	%al, (%rax)
    572f: 00 47 03                     	addb	%al, 3(%rdi)
    5732: 00 00                        	addb	%al, (%rax)
    5734: e0 00                        	loopne	0x5736 <entrypoint+0x5196>
    5736: 00 00                        	addb	%al, (%rax)
    5738: 73 3a                        	jae	0x5774 <entrypoint+0x51d4>
    573a: fc                           	cld
    573b: ff 00                        	incl	(%rax)
    573d: 00 00                        	addb	%al, (%rax)
    573f: 00 b7 03 00 00 03            	addb	%dh, 50331651(%rdi)
    5745: 00 00                        	addb	%al, (%rax)
    5747: 00 05 00 11 00 00            	addb	%al, 4352(%rip)  # 684d <entrypoint+0x62ad>
    574d: 00 00                        	addb	%al, (%rax)
    574f: 00 57 02                     	addb	%dl, 2(%rdi)
    5752: 00 00                        	addb	%al, (%rax)
    5754: 3f                           	<unknown>
    5755: 00 00                        	addb	%al, (%rax)
    5757: 00 47 02                     	addb	%al, 2(%rdi)
    575a: 00 00                        	addb	%al, (%rax)
    575c: 80 00 00                     	addb	$0, (%rax)
    575f: 00 73 2a                     	addb	%dh, 42(%rbx)
    5762: ff ff                        	<unknown>
    5764: 00 00                        	addb	%al, (%rax)
    5766: 00 00                        	addb	%al, (%rax)
    5768: bf 32 00 00 00               	movl	$50, %edi
    576d: 00 00                        	addb	%al, (%rax)
    576f: 00 77 02                     	addb	%dh, 2(%rdi)
    5772: 00 00                        	addb	%al, (%rax)
    5774: 12 00                        	adcb	(%rax), %al
    5776: 00 00                        	addb	%al, (%rax)
    5778: 47 02 00                     	addb	(%r8), %r8b
    577b: 00 f0                        	addb	%dh, %al
    577d: 00 00                        	addb	%al, (%rax)
    577f: 00 73 2a                     	addb	%dh, 42(%rbx)
    5782: fc                           	cld
    5783: ff 00                        	incl	(%rax)
    5785: 00 00                        	addb	%al, (%rax)
    5787: 00 bf 32 00 00 00            	addb	%bh, 50(%rdi)
    578d: 00 00                        	addb	%al, (%rax)
    578f: 00 77 02                     	addb	%dh, 2(%rdi)
    5792: 00 00                        	addb	%al, (%rax)
    5794: 06                           	<unknown>
    5795: 00 00                        	addb	%al, (%rax)
    5797: 00 57 02                     	addb	%dl, 2(%rdi)
    579a: 00 00                        	addb	%al, (%rax)
    579c: 3f                           	<unknown>
    579d: 00 00                        	addb	%al, (%rax)
    579f: 00 47 02                     	addb	%al, 2(%rdi)
    57a2: 00 00                        	addb	%al, (%rax)
    57a4: 80 00 00                     	addb	$0, (%rax)
    57a7: 00 73 2a                     	addb	%dh, 42(%rbx)
    57aa: fe ff                        	<unknown>
    57ac: 00 00                        	addb	%al, (%rax)
    57ae: 00 00                        	addb	%al, (%rax)
    57b0: 77 03                        	ja	0x57b5 <entrypoint+0x5215>
    57b2: 00 00                        	addb	%al, (%rax)
    57b4: 0c 00                        	orb	$0, %al
    57b6: 00 00                        	addb	%al, (%rax)
    57b8: 57                           	pushq	%rdi
    57b9: 03 00                        	addl	(%rax), %eax
    57bb: 00 3f                        	addb	%bh, (%rdi)
    57bd: 00 00                        	addb	%al, (%rax)
    57bf: 00 47 03                     	addb	%al, 3(%rdi)
    57c2: 00 00                        	addb	%al, (%rax)
    57c4: 80 00 00                     	addb	$0, (%rax)
    57c7: 00 73 3a                     	addb	%dh, 58(%rbx)
    57ca: fd                           	std
    57cb: ff 00                        	incl	(%rax)
    57cd: 00 00                        	addb	%al, (%rax)
    57cf: 00 b7 03 00 00 04            	addb	%dh, 67108867(%rdi)
    57d5: 00 00                        	addb	%al, (%rax)
    57d7: 00 bf a2 00 00 00            	addb	%bh, 162(%rdi)
    57dd: 00 00                        	addb	%al, (%rax)
    57df: 00 07                        	addb	%al, (%rdi)
    57e1: 02 00                        	addb	(%rax), %al
    57e3: 00 fc                        	addb	%bh, %ah
    57e5: ff ff                        	<unknown>
    57e7: ff 85 10 00 00 a6            	incl	-1509949424(%rbp)
    57ed: fe ff                        	<unknown>
    57ef: ff 95 00 00 00 00            	callq	*(%rbp)
    57f5: 00 00                        	addb	%al, (%rax)
    57f7: 00 7b 1a                     	addb	%bh, 26(%rbx)
    57fa: c8 ff 00 00                  	enter	$255, $0
    57fe: 00 00                        	addb	%al, (%rax)
    5800: 79 21                        	jns	0x5823 <entrypoint+0x5283>
    5802: 28 00                        	subb	%al, (%rax)
    5804: 00 00                        	addb	%al, (%rax)
    5806: 00 00                        	addb	%al, (%rax)
    5808: 7b 1a                        	jnp	0x5824 <entrypoint+0x5284>
    580a: f8                           	clc
    580b: ff 00                        	incl	(%rax)
    580d: 00 00                        	addb	%al, (%rax)
    580f: 00 79 21                     	addb	%bh, 33(%rcx)
    5812: 20 00                        	andb	%al, (%rax)
    5814: 00 00                        	addb	%al, (%rax)
    5816: 00 00                        	addb	%al, (%rax)
    5818: 7b 1a                        	jnp	0x5834 <entrypoint+0x5294>
    581a: f0                           	lock
    581b: ff 00                        	incl	(%rax)
    581d: 00 00                        	addb	%al, (%rax)
    581f: 00 79 21                     	addb	%bh, 33(%rcx)
    5822: 18 00                        	sbbb	%al, (%rax)
    5824: 00 00                        	addb	%al, (%rax)
    5826: 00 00                        	addb	%al, (%rax)
    5828: 7b 1a                        	jnp	0x5844 <entrypoint+0x52a4>
    582a: e8 ff 00 00 00               	callq	0x592e <entrypoint+0x538e>
    582f: 00 79 21                     	addb	%bh, 33(%rcx)
    5832: 10 00                        	adcb	%al, (%rax)
    5834: 00 00                        	addb	%al, (%rax)
    5836: 00 00                        	addb	%al, (%rax)
    5838: 7b 1a                        	jnp	0x5854 <entrypoint+0x52b4>
    583a: e0 ff                        	loopne	0x583b <entrypoint+0x529b>
    583c: 00 00                        	addb	%al, (%rax)
    583e: 00 00                        	addb	%al, (%rax)
    5840: 79 21                        	jns	0x5863 <entrypoint+0x52c3>
    5842: 08 00                        	orb	%al, (%rax)
    5844: 00 00                        	addb	%al, (%rax)
    5846: 00 00                        	addb	%al, (%rax)
    5848: 7b 1a                        	jnp	0x5864 <entrypoint+0x52c4>
    584a: d8 ff                        	fdivr	%st(7), %st
    584c: 00 00                        	addb	%al, (%rax)
    584e: 00 00                        	addb	%al, (%rax)
    5850: 79 21                        	jns	0x5873 <entrypoint+0x52d3>
    5852: 00 00                        	addb	%al, (%rax)
    5854: 00 00                        	addb	%al, (%rax)
    5856: 00 00                        	addb	%al, (%rax)
    5858: 7b 1a                        	jnp	0x5874 <entrypoint+0x52d4>
    585a: d0 ff                        	sarb	%bh
    585c: 00 00                        	addb	%al, (%rax)
    585e: 00 00                        	addb	%al, (%rax)
    5860: bf a1 00 00 00               	movl	$161, %edi
    5865: 00 00                        	addb	%al, (%rax)
    5867: 00 07                        	addb	%al, (%rdi)
    5869: 01 00                        	addl	%eax, (%rax)
    586b: 00 c8                        	addb	%cl, %al
    586d: ff ff                        	<unknown>
    586f: ff bf a3 00 00 00            	<unknown>
    5875: 00 00                        	addb	%al, (%rax)
    5877: 00 07                        	addb	%al, (%rdi)
    5879: 03 00                        	addl	(%rax), %eax
    587b: 00 d0                        	addb	%dl, %al
    587d: ff ff                        	<unknown>
    587f: ff 18                        	lcalll	*(%rax)
    5881: 02 00                        	addb	(%rax), %al
    5883: 00 a0 a4 00 00 00            	addb	%ah, 164(%rax)
    5889: 00 00                        	addb	%al, (%rax)
    588b: 00 00                        	addb	%al, (%rax)
    588d: 00 00                        	addb	%al, (%rax)
    588f: 00 85 10 00 00 71            	addb	%al, 1895825424(%rbp)
    5895: 00 00                        	addb	%al, (%rax)
    5897: 00 95 00 00 00 00            	addb	%dl, (%rbp)
    589d: 00 00                        	addb	%al, (%rax)
    589f: 00 79 11                     	addb	%bh, 17(%rcx)
    58a2: 00 00                        	addb	%al, (%rax)
    58a4: 00 00                        	addb	%al, (%rax)
    58a6: 00 00                        	addb	%al, (%rax)
    58a8: 85 10                        	testl	%edx, (%rax)
    58aa: 00 00                        	addb	%al, (%rax)
    58ac: 8e fe                        	<unknown>
    58ae: ff ff                        	<unknown>
    58b0: 95                           	xchgl	%ebp, %eax
    58b1: 00 00                        	addb	%al, (%rax)
    58b3: 00 00                        	addb	%al, (%rax)
    58b5: 00 00                        	addb	%al, (%rax)
    58b7: 00 79 11                     	addb	%bh, 17(%rcx)
    58ba: 00 00                        	addb	%al, (%rax)
    58bc: 00 00                        	addb	%al, (%rax)
    58be: 00 00                        	addb	%al, (%rax)
    58c0: 85 10                        	testl	%edx, (%rax)
    58c2: 00 00                        	addb	%al, (%rax)
    58c4: a6                           	cmpsb	%es:(%rdi), (%rsi)
    58c5: ff ff                        	<unknown>
    58c7: ff 95 00 00 00 00            	callq	*(%rbp)
    58cd: 00 00                        	addb	%al, (%rax)
    58cf: 00 79 11                     	addb	%bh, 17(%rcx)
    58d2: 00 00                        	addb	%al, (%rax)
    58d4: 00 00                        	addb	%al, (%rax)
    58d6: 00 00                        	addb	%al, (%rax)
    58d8: 79 23                        	jns	0x58fd <entrypoint+0x535d>
    58da: 28 00                        	subb	%al, (%rax)
    58dc: 00 00                        	addb	%al, (%rax)
    58de: 00 00                        	addb	%al, (%rax)
    58e0: 7b 3a                        	jnp	0x591c <entrypoint+0x537c>
    58e2: c0 ff 00                     	sarb	$0, %bh
    58e5: 00 00                        	addb	%al, (%rax)
    58e7: 00 79 24                     	addb	%bh, 36(%rcx)
    58ea: 20 00                        	andb	%al, (%rax)
    58ec: 00 00                        	addb	%al, (%rax)
    58ee: 00 00                        	addb	%al, (%rax)
    58f0: 7b 4a                        	jnp	0x593c <entrypoint+0x539c>
    58f2: b8 ff 00 00 00               	movl	$255, %eax
    58f7: 00 79 25                     	addb	%bh, 37(%rcx)
    58fa: 18 00                        	sbbb	%al, (%rax)
    58fc: 00 00                        	addb	%al, (%rax)
    58fe: 00 00                        	addb	%al, (%rax)
    5900: 7b 5a                        	jnp	0x595c <entrypoint+0x53bc>
    5902: b0 ff                        	movb	$-1, %al
    5904: 00 00                        	addb	%al, (%rax)
    5906: 00 00                        	addb	%al, (%rax)
    5908: 79 20                        	jns	0x592a <entrypoint+0x538a>
    590a: 10 00                        	adcb	%al, (%rax)
    590c: 00 00                        	addb	%al, (%rax)
    590e: 00 00                        	addb	%al, (%rax)
    5910: 7b 0a                        	jnp	0x591c <entrypoint+0x537c>
    5912: a8 ff                        	testb	$-1, %al
    5914: 00 00                        	addb	%al, (%rax)
    5916: 00 00                        	addb	%al, (%rax)
    5918: 79 26                        	jns	0x5940 <entrypoint+0x53a0>
    591a: 08 00                        	orb	%al, (%rax)
    591c: 00 00                        	addb	%al, (%rax)
    591e: 00 00                        	addb	%al, (%rax)
    5920: 7b 6a                        	jnp	0x598c <entrypoint+0x53ec>
    5922: a0 ff 00 00 00 00 79 22 00   	movabsb	9703190115123455, %al
    592b: 00 00                        	addb	%al, (%rax)
    592d: 00 00                        	addb	%al, (%rax)
    592f: 00 7b 2a                     	addb	%bh, 42(%rbx)
    5932: 98                           	cwtl
    5933: ff 00                        	incl	(%rax)
    5935: 00 00                        	addb	%al, (%rax)
    5937: 00 7b 1a                     	addb	%bh, 26(%rbx)
    593a: c8 ff 00 00                  	enter	$255, $0
    593e: 00 00                        	addb	%al, (%rax)
    5940: 7b 3a                        	jnp	0x597c <entrypoint+0x53dc>
    5942: f8                           	clc
    5943: ff 00                        	incl	(%rax)
    5945: 00 00                        	addb	%al, (%rax)
    5947: 00 7b 4a                     	addb	%bh, 74(%rbx)
    594a: f0                           	lock
    594b: ff 00                        	incl	(%rax)
    594d: 00 00                        	addb	%al, (%rax)
    594f: 00 7b 5a                     	addb	%bh, 90(%rbx)
    5952: e8 ff 00 00 00               	callq	0x5a56 <entrypoint+0x54b6>
    5957: 00 7b 0a                     	addb	%bh, 10(%rbx)
    595a: e0 ff                        	loopne	0x595b <entrypoint+0x53bb>
    595c: 00 00                        	addb	%al, (%rax)
    595e: 00 00                        	addb	%al, (%rax)
    5960: 7b 6a                        	jnp	0x59cc <entrypoint+0x542c>
    5962: d8 ff                        	fdivr	%st(7), %st
    5964: 00 00                        	addb	%al, (%rax)
    5966: 00 00                        	addb	%al, (%rax)
    5968: 7b 2a                        	jnp	0x5994 <entrypoint+0x53f4>
    596a: d0 ff                        	sarb	%bh
    596c: 00 00                        	addb	%al, (%rax)
    596e: 00 00                        	addb	%al, (%rax)
    5970: bf a1 00 00 00               	movl	$161, %edi
    5975: 00 00                        	addb	%al, (%rax)
    5977: 00 07                        	addb	%al, (%rdi)
    5979: 01 00                        	addl	%eax, (%rax)
    597b: 00 c8                        	addb	%cl, %al
    597d: ff ff                        	<unknown>
    597f: ff bf a3 00 00 00            	<unknown>
    5985: 00 00                        	addb	%al, (%rax)
    5987: 00 07                        	addb	%al, (%rdi)
    5989: 03 00                        	addl	(%rax), %eax
    598b: 00 d0                        	addb	%dl, %al
    598d: ff ff                        	<unknown>
    598f: ff 18                        	lcalll	*(%rax)
    5991: 02 00                        	addb	(%rax), %al
    5993: 00 a0 a4 00 00 00            	addb	%ah, 164(%rax)
    5999: 00 00                        	addb	%al, (%rax)
    599b: 00 00                        	addb	%al, (%rax)
    599d: 00 00                        	addb	%al, (%rax)
    599f: 00 85 10 00 00 4f            	addb	%al, 1325400080(%rbp)
    59a5: 00 00                        	addb	%al, (%rax)
    59a7: 00 95 00 00 00 00            	addb	%dl, (%rbp)
    59ad: 00 00                        	addb	%al, (%rax)
    59af: 00 b7 00 00 00 00            	addb	%dh, (%rdi)
    59b5: 00 11                        	addb	%dl, (%rcx)
    59b7: 00 61 12                     	addb	%ah, 18(%rcx)
    59ba: 00 00                        	addb	%al, (%rax)
    59bc: 00 00                        	addb	%al, (%rax)
    59be: 00 00                        	addb	%al, (%rax)
    59c0: 65 02 05 00 01 00 00         	addb	%gs:256(%rip), %al
    59c7: 00 15 02 1d 00 00            	addb	%dl, 7426(%rip)  # 76cf <entrypoint+0x712f>
    59cd: 00 00                        	addb	%al, (%rax)
    59cf: 00 b7 02 00 00 00            	addb	%dh, 2(%rdi)
    59d5: 00 00                        	addb	%al, (%rax)
    59d7: 00 63 21                     	addb	%ah, 33(%rbx)
    59da: 00 00                        	addb	%al, (%rax)
    59dc: 00 00                        	addb	%al, (%rax)
    59de: 00 00                        	addb	%al, (%rax)
    59e0: 61                           	<unknown>
    59e1: 10 04 00                     	adcb	%al, (%rax,%rax)
    59e4: 00 00                        	addb	%al, (%rax)
    59e6: 00 00                        	addb	%al, (%rax)
    59e8: 05 00 19 00 00               	addl	$6400, %eax
    59ed: 00 00                        	addb	%al, (%rax)
    59ef: 00 15 02 15 00 02            	addb	%dl, 33559810(%rip)  # 2006ef7
    59f5: 00 00                        	addb	%al, (%rax)
    59f7: 00 71 12                     	addb	%dh, 18(%rcx)
    59fa: 14 00                        	adcb	$0, %al
    59fc: 00 00                        	addb	%al, (%rax)
    59fe: 00 00                        	addb	%al, (%rax)
    5a00: 65 02 17                     	addb	%gs:(%rdi), %dl
    5a03: 00 02                        	addb	%al, (%rdx)
    5a05: 00 00                        	addb	%al, (%rax)
    5a07: 00 15 02 15 00 00            	addb	%dl, 5378(%rip)  # 6f0f <entrypoint+0x696f>
    5a0d: 00 00                        	addb	%al, (%rax)
    5a0f: 00 15 02 1a 00 01            	addb	%dl, 16783874(%rip)  # 1007417
    5a15: 00 00                        	addb	%al, (%rax)
    5a17: 00 61 13                     	addb	%ah, 19(%rcx)
    5a1a: 10 00                        	adcb	%al, (%rax)
    5a1c: 00 00                        	addb	%al, (%rax)
    5a1e: 00 00                        	addb	%al, (%rax)
    5a20: 79 12                        	jns	0x5a34 <entrypoint+0x5494>
    5a22: 08 00                        	orb	%al, (%rax)
    5a24: 00 00                        	addb	%al, (%rax)
    5a26: 00 00                        	addb	%al, (%rax)
    5a28: bf 24 00 00 00               	movl	$36, %edi
    5a2d: 00 00                        	addb	%al, (%rax)
    5a2f: 00 67 04                     	addb	%ah, 4(%rdi)
    5a32: 00 00                        	addb	%al, (%rax)
    5a34: 02 00                        	addb	(%rax), %al
    5a36: 00 00                        	addb	%al, (%rax)
    5a38: 57                           	pushq	%rdi
    5a39: 04 00                        	addb	$0, %al
    5a3b: 00 1c 00                     	addb	%bl, (%rax,%rax)
    5a3e: 00 00                        	addb	%al, (%rax)
    5a40: 7f 43                        	jg	0x5a85 <entrypoint+0x54e5>
    5a42: 00 00                        	addb	%al, (%rax)
    5a44: 00 00                        	addb	%al, (%rax)
    5a46: 00 00                        	addb	%al, (%rax)
    5a48: 57                           	pushq	%rdi
    5a49: 03 00                        	addl	(%rax), %eax
    5a4b: 00 0f                        	addb	%cl, (%rdi)
    5a4d: 00 00                        	addb	%al, (%rax)
    5a4f: 00 bf 30 00 00 00            	addb	%bh, 48(%rdi)
    5a55: 00 00                        	addb	%al, (%rax)
    5a57: 00 47 00                     	addb	%al, (%rdi)
    5a5a: 00 00                        	addb	%al, (%rax)
    5a5c: 30 00                        	xorb	%al, (%rax)
    5a5e: 00 00                        	addb	%al, (%rax)
    5a60: b7 04                        	movb	$4, %bh
    5a62: 00 00                        	addb	%al, (%rax)
    5a64: 0a 00                        	orb	(%rax), %al
    5a66: 00 00                        	addb	%al, (%rax)
    5a68: 2d 34 02 00 00               	subl	$564, %eax
    5a6d: 00 00                        	addb	%al, (%rax)
    5a6f: 00 07                        	addb	%al, (%rdi)
    5a71: 03 00                        	addl	(%rax), %eax
    5a73: 00 57 00                     	addb	%dl, (%rdi)
    5a76: 00 00                        	addb	%al, (%rax)
    5a78: bf 30 00 00 00               	movl	$48, %edi
    5a7d: 00 00                        	addb	%al, (%rax)
    5a7f: 00 15 02 18 00 00            	addb	%dl, 6146(%rip)  # 7287 <entrypoint+0x6ce7>
    5a85: 00 00                        	addb	%al, (%rax)
    5a87: 00 07                        	addb	%al, (%rdi)
    5a89: 02 00                        	addb	(%rax), %al
    5a8b: 00 ff                        	addb	%bh, %bh
    5a8d: ff ff                        	<unknown>
    5a8f: ff 7b 21                     	<unknown>
    5a92: 08 00                        	orb	%al, (%rax)
    5a94: 00 00                        	addb	%al, (%rax)
    5a96: 00 00                        	addb	%al, (%rax)
    5a98: 05 00 03 00 00               	addl	$768, %eax
    5a9d: 00 00                        	addb	%al, (%rax)
    5a9f: 00 b7 02 00 00 01            	addb	%dh, 16777218(%rdi)
    5aa5: 00 00                        	addb	%al, (%rax)
    5aa7: 00 63 21                     	addb	%ah, 33(%rbx)
    5aaa: 00 00                        	addb	%al, (%rax)
    5aac: 00 00                        	addb	%al, (%rax)
    5aae: 00 00                        	addb	%al, (%rax)
    5ab0: b7 00                        	movb	$0, %bh
    5ab2: 00 00                        	addb	%al, (%rax)
    5ab4: 5c                           	popq	%rsp
    5ab5: 00 00                        	addb	%al, (%rax)
    5ab7: 00 95 00 00 00 00            	addb	%dl, (%rbp)
    5abd: 00 00                        	addb	%al, (%rax)
    5abf: 00 15 02 08 00 03            	addb	%dl, 50333698(%rip)  # 30062c7
    5ac5: 00 00                        	addb	%al, (%rax)
    5ac7: 00 15 02 0b 00 04            	addb	%dl, 67111682(%rip)  # 40065cf
    5acd: 00 00                        	addb	%al, (%rax)
    5acf: 00 b7 02 00 00 04            	addb	%dh, 67108866(%rdi)
    5ad5: 00 00                        	addb	%al, (%rax)
    5ad7: 00 73 21                     	addb	%dh, 33(%rbx)
    5ada: 14 00                        	adcb	$0, %al
    5adc: 00 00                        	addb	%al, (%rax)
    5ade: 00 00                        	addb	%al, (%rax)
    5ae0: 05 00 f9 ff 00               	addl	$16775424, %eax
    5ae5: 00 00                        	addb	%al, (%rax)
    5ae7: 00 b7 02 00 00 00            	addb	%dh, 2(%rdi)
    5aed: 00 00                        	addb	%al, (%rax)
    5aef: 00 73 21                     	addb	%dh, 33(%rbx)
    5af2: 14 00                        	adcb	$0, %al
    5af4: 00 00                        	addb	%al, (%rax)
    5af6: 00 00                        	addb	%al, (%rax)
    5af8: b7 00                        	movb	$0, %bh
    5afa: 00 00                        	addb	%al, (%rax)
    5afc: 7d 00                        	jge	0x5afe <entrypoint+0x555e>
    5afe: 00 00                        	addb	%al, (%rax)
    5b00: 05 00 f6 ff 00               	addl	$16774656, %eax
    5b05: 00 00                        	addb	%al, (%rax)
    5b07: 00 b7 02 00 00 02            	addb	%dh, 33554434(%rdi)
    5b0d: 00 00                        	addb	%al, (%rax)
    5b0f: 00 73 21                     	addb	%dh, 33(%rbx)
    5b12: 14 00                        	adcb	$0, %al
    5b14: 00 00                        	addb	%al, (%rax)
    5b16: 00 00                        	addb	%al, (%rax)
    5b18: b7 00                        	movb	$0, %bh
    5b1a: 00 00                        	addb	%al, (%rax)
    5b1c: 7b 00                        	jnp	0x5b1e <entrypoint+0x557e>
    5b1e: 00 00                        	addb	%al, (%rax)
    5b20: 05 00 f2 ff 00               	addl	$16773632, %eax
    5b25: 00 00                        	addb	%al, (%rax)
    5b27: 00 b7 02 00 00 03            	addb	%dh, 50331650(%rdi)
    5b2d: 00 00                        	addb	%al, (%rax)
    5b2f: 00 73 21                     	addb	%dh, 33(%rbx)
    5b32: 14 00                        	adcb	$0, %al
    5b34: 00 00                        	addb	%al, (%rax)
    5b36: 00 00                        	addb	%al, (%rax)
    5b38: b7 00                        	movb	$0, %bh
    5b3a: 00 00                        	addb	%al, (%rax)
    5b3c: 75 00                        	jne	0x5b3e <entrypoint+0x559e>
    5b3e: 00 00                        	addb	%al, (%rax)
    5b40: 05 00 ee ff 00               	addl	$16772608, %eax
    5b45: 00 00                        	addb	%al, (%rax)
    5b47: 00 b7 02 00 00 01            	addb	%dh, 16777218(%rdi)
    5b4d: 00 00                        	addb	%al, (%rax)
    5b4f: 00 73 21                     	addb	%dh, 33(%rbx)
    5b52: 14 00                        	adcb	$0, %al
    5b54: 00 00                        	addb	%al, (%rax)
    5b56: 00 00                        	addb	%al, (%rax)
    5b58: 05 00 eb ff 00               	addl	$16771840, %eax
    5b5d: 00 00                        	addb	%al, (%rax)
    5b5f: 00 85 10 00 00 c9            	addb	%al, -922746864(%rbp)
    5b65: ff ff                        	<unknown>
    5b67: ff 67 00                     	jmpq	*(%rdi)
    5b6a: 00 00                        	addb	%al, (%rax)
    5b6c: 20 00                        	andb	%al, (%rax)
    5b6e: 00 00                        	addb	%al, (%rax)
    5b70: 77 00                        	ja	0x5b72 <entrypoint+0x55d2>
    5b72: 00 00                        	addb	%al, (%rax)
    5b74: 20 00                        	andb	%al, (%rax)
    5b76: 00 00                        	addb	%al, (%rax)
    5b78: 95                           	xchgl	%ebp, %eax
    5b79: 00 00                        	addb	%al, (%rax)
    5b7b: 00 00                        	addb	%al, (%rax)
    5b7d: 00 00                        	addb	%al, (%rax)
    5b7f: 00 79 23                     	addb	%bh, 35(%rcx)
    5b82: 10 00                        	adcb	%al, (%rax)
    5b84: 00 00                        	addb	%al, (%rax)
    5b86: 00 00                        	addb	%al, (%rax)
    5b88: 7b 31                        	jnp	0x5bbb <entrypoint+0x561b>
    5b8a: 10 00                        	adcb	%al, (%rax)
    5b8c: 00 00                        	addb	%al, (%rax)
    5b8e: 00 00                        	addb	%al, (%rax)
    5b90: 79 23                        	jns	0x5bb5 <entrypoint+0x5615>
    5b92: 08 00                        	orb	%al, (%rax)
    5b94: 00 00                        	addb	%al, (%rax)
    5b96: 00 00                        	addb	%al, (%rax)
    5b98: 7b 31                        	jnp	0x5bcb <entrypoint+0x562b>
    5b9a: 08 00                        	orb	%al, (%rax)
    5b9c: 00 00                        	addb	%al, (%rax)
    5b9e: 00 00                        	addb	%al, (%rax)
    5ba0: 79 22                        	jns	0x5bc4 <entrypoint+0x5624>
    5ba2: 00 00                        	addb	%al, (%rax)
    5ba4: 00 00                        	addb	%al, (%rax)
    5ba6: 00 00                        	addb	%al, (%rax)
    5ba8: 7b 21                        	jnp	0x5bcb <entrypoint+0x562b>
    5baa: 00 00                        	addb	%al, (%rax)
    5bac: 00 00                        	addb	%al, (%rax)
    5bae: 00 00                        	addb	%al, (%rax)
    5bb0: 95                           	xchgl	%ebp, %eax
    5bb1: 00 00                        	addb	%al, (%rax)
    5bb3: 00 00                        	addb	%al, (%rax)
    5bb5: 00 00                        	addb	%al, (%rax)
    5bb7: 00 95 00 00 00 00            	addb	%dl, (%rbp)
    5bbd: 00 00                        	addb	%al, (%rax)
    5bbf: 00 95 00 00 00 00            	addb	%dl, (%rbp)
    5bc5: 00 00                        	addb	%al, (%rax)
    5bc7: 00 85 10 00 00 1f            	addb	%al, 520093712(%rbp)
    5bcd: 05 00 00 95 00               	addl	$9764864, %eax
    5bd2: 00 00                        	addb	%al, (%rax)
    5bd4: 00 00                        	addb	%al, (%rax)
    5bd6: 00 00                        	addb	%al, (%rax)
    5bd8: 7b 31                        	jnp	0x5c0b <entrypoint+0x566b>
    5bda: 08 00                        	orb	%al, (%rax)
    5bdc: 00 00                        	addb	%al, (%rax)
    5bde: 00 00                        	addb	%al, (%rax)
    5be0: 7b 21                        	jnp	0x5c03 <entrypoint+0x5663>
    5be2: 00 00                        	addb	%al, (%rax)
    5be4: 00 00                        	addb	%al, (%rax)
    5be6: 00 00                        	addb	%al, (%rax)
    5be8: 95                           	xchgl	%ebp, %eax
    5be9: 00 00                        	addb	%al, (%rax)
    5beb: 00 00                        	addb	%al, (%rax)
    5bed: 00 00                        	addb	%al, (%rax)
    5bef: 00 7b 31                     	addb	%bh, 49(%rbx)
    5bf2: 08 00                        	orb	%al, (%rax)
    5bf4: 00 00                        	addb	%al, (%rax)
    5bf6: 00 00                        	addb	%al, (%rax)
    5bf8: 7b 21                        	jnp	0x5c1b <entrypoint+0x567b>
    5bfa: 00 00                        	addb	%al, (%rax)
    5bfc: 00 00                        	addb	%al, (%rax)
    5bfe: 00 00                        	addb	%al, (%rax)
    5c00: 95                           	xchgl	%ebp, %eax
    5c01: 00 00                        	addb	%al, (%rax)
    5c03: 00 00                        	addb	%al, (%rax)
    5c05: 00 00                        	addb	%al, (%rax)
    5c07: 00 7b 31                     	addb	%bh, 49(%rbx)
    5c0a: 08 00                        	orb	%al, (%rax)
    5c0c: 00 00                        	addb	%al, (%rax)
    5c0e: 00 00                        	addb	%al, (%rax)
    5c10: 7b 21                        	jnp	0x5c33 <entrypoint+0x5693>
    5c12: 00 00                        	addb	%al, (%rax)
    5c14: 00 00                        	addb	%al, (%rax)
    5c16: 00 00                        	addb	%al, (%rax)
    5c18: 95                           	xchgl	%ebp, %eax
    5c19: 00 00                        	addb	%al, (%rax)
    5c1b: 00 00                        	addb	%al, (%rax)
    5c1d: 00 00                        	addb	%al, (%rax)
    5c1f: 00 79 37                     	addb	%bh, 55(%rcx)
    5c22: 20 00                        	andb	%al, (%rax)
    5c24: 00 00                        	addb	%al, (%rax)
    5c26: 00 00                        	addb	%al, (%rax)
    5c28: 79 34                        	jns	0x5c5e <entrypoint+0x56be>
    5c2a: 28 00                        	subb	%al, (%rax)
    5c2c: 00 00                        	addb	%al, (%rax)
    5c2e: 00 00                        	addb	%al, (%rax)
    5c30: b7 05                        	movb	$5, %bh
    5c32: 00 00                        	addb	%al, (%rax)
    5c34: 03 00                        	addl	(%rax), %eax
    5c36: 00 00                        	addb	%al, (%rax)
    5c38: 73 5a                        	jae	0x5c94 <entrypoint+0x56f4>
    5c3a: 98                           	cwtl
    5c3b: ff 00                        	incl	(%rax)
    5c3d: 00 00                        	addb	%al, (%rax)
    5c3f: 00 18                        	addb	%bl, (%rax)
    5c41: 05 00 00 00 00               	addl	$0, %eax
    5c46: 00 00                        	addb	%al, (%rax)
    5c48: 00 00                        	addb	%al, (%rax)
    5c4a: 00 00                        	addb	%al, (%rax)
    5c4c: 20 00                        	andb	%al, (%rax)
    5c4e: 00 00                        	addb	%al, (%rax)
    5c50: 7b 5a                        	jnp	0x5cac <entrypoint+0x570c>
    5c52: 90                           	nop
    5c53: ff 00                        	incl	(%rax)
    5c55: 00 00                        	addb	%al, (%rax)
    5c57: 00 7b 2a                     	addb	%bh, 42(%rbx)
    5c5a: 68 ff 00 00 00               	pushq	$255
    5c5f: 00 7b 1a                     	addb	%bh, 26(%rbx)
    5c62: 60                           	<unknown>
    5c63: ff 00                        	incl	(%rax)
    5c65: 00 00                        	addb	%al, (%rax)
    5c67: 00 b7 06 00 00 00            	addb	%dh, 6(%rdi)
    5c6d: 00 00                        	addb	%al, (%rax)
    5c6f: 00 7b 6a                     	addb	%bh, 106(%rbx)
    5c72: 50                           	pushq	%rax
    5c73: ff 00                        	incl	(%rax)
    5c75: 00 00                        	addb	%al, (%rax)
    5c77: 00 7b 6a                     	addb	%bh, 106(%rbx)
    5c7a: 40 ff 00                     	incl	(%rax)
    5c7d: 00 00                        	addb	%al, (%rax)
    5c7f: 00 7b 4a                     	addb	%bh, 74(%rbx)
    5c82: 88 ff                        	movb	%bh, %bh
    5c84: 00 00                        	addb	%al, (%rax)
    5c86: 00 00                        	addb	%al, (%rax)
    5c88: 7b 7a                        	jnp	0x5d04 <entrypoint+0x5764>
    5c8a: 80 ff 00                     	cmpb	$0, %bh
    5c8d: 00 00                        	addb	%al, (%rax)
    5c8f: 00 7b 7a                     	addb	%bh, 122(%rbx)
    5c92: 70 ff                        	jo	0x5c93 <entrypoint+0x56f3>
    5c94: 00 00                        	addb	%al, (%rax)
    5c96: 00 00                        	addb	%al, (%rax)
    5c98: 67 04 00                     	addb	$0, %al
    5c9b: 00 04 00                     	addb	%al, (%rax,%rax)
    5c9e: 00 00                        	addb	%al, (%rax)
    5ca0: bf 79 00 00 00               	movl	$121, %edi
    5ca5: 00 00                        	addb	%al, (%rax)
    5ca7: 00 0f                        	addb	%cl, (%rdi)
    5ca9: 49 00 00                     	addb	%al, (%r8)
    5cac: 00 00                        	addb	%al, (%rax)
    5cae: 00 00                        	addb	%al, (%rax)
    5cb0: 7b 9a                        	jnp	0x5c4c <entrypoint+0x56ac>
    5cb2: 78 ff                        	js	0x5cb3 <entrypoint+0x5713>
    5cb4: 00 00                        	addb	%al, (%rax)
    5cb6: 00 00                        	addb	%al, (%rax)
    5cb8: 79 38                        	jns	0x5cf2 <entrypoint+0x5752>
    5cba: 10 00                        	adcb	%al, (%rax)
    5cbc: 00 00                        	addb	%al, (%rax)
    5cbe: 00 00                        	addb	%al, (%rax)
    5cc0: 55                           	pushq	%rbp
    5cc1: 08 4c 00 00                  	orb	%cl, (%rax,%rax)
    5cc5: 00 00                        	addb	%al, (%rax)
    5cc7: 00 79 32                     	addb	%bh, 50(%rcx)
    5cca: 00 00                        	addb	%al, (%rax)
    5ccc: 00 00                        	addb	%al, (%rax)
    5cce: 00 00                        	addb	%al, (%rax)
    5cd0: 79 31                        	jns	0x5d03 <entrypoint+0x5763>
    5cd2: 08 00                        	orb	%al, (%rax)
    5cd4: 00 00                        	addb	%al, (%rax)
    5cd6: 00 00                        	addb	%al, (%rax)
    5cd8: 7b 1a                        	jnp	0x5cf4 <entrypoint+0x5754>
    5cda: 18 ff                        	sbbb	%bh, %bh
    5cdc: 00 00                        	addb	%al, (%rax)
    5cde: 00 00                        	addb	%al, (%rax)
    5ce0: 67 01 00                     	addl	%eax, (%eax)
    5ce3: 00 04 00                     	addb	%al, (%rax,%rax)
    5ce6: 00 00                        	addb	%al, (%rax)
    5ce8: bf 23 00 00 00               	movl	$35, %edi
    5ced: 00 00                        	addb	%al, (%rax)
    5cef: 00 0f                        	addb	%cl, (%rdi)
    5cf1: 13 00                        	adcl	(%rax), %eax
    5cf3: 00 00                        	addb	%al, (%rax)
    5cf5: 00 00                        	addb	%al, (%rax)
    5cf7: 00 bf a1 00 00 00            	addb	%bh, 161(%rdi)
    5cfd: 00 00                        	addb	%al, (%rax)
    5cff: 00 07                        	addb	%al, (%rdi)
    5d01: 01 00                        	addl	%eax, (%rax)
    5d03: 00 20                        	addb	%ah, (%rax)
    5d05: ff ff                        	<unknown>
    5d07: ff 7b 2a                     	<unknown>
    5d0a: 10 ff                        	adcb	%bh, %bh
    5d0c: 00 00                        	addb	%al, (%rax)
    5d0e: 00 00                        	addb	%al, (%rax)
    5d10: 85 10                        	testl	%edx, (%rax)
    5d12: 00 00                        	addb	%al, (%rax)
    5d14: d4                           	<unknown>
    5d15: fb                           	sti
    5d16: ff ff                        	<unknown>
    5d18: 79 a5                        	jns	0x5cbf <entrypoint+0x571f>
    5d1a: 28 ff                        	subb	%bh, %bh
    5d1c: 00 00                        	addb	%al, (%rax)
    5d1e: 00 00                        	addb	%al, (%rax)
    5d20: 79 a4                        	jns	0x5cc6 <entrypoint+0x5726>
    5d22: 20 ff                        	andb	%bh, %bh
    5d24: 00 00                        	addb	%al, (%rax)
    5d26: 00 00                        	addb	%al, (%rax)
    5d28: bf a8 00 00 00               	movl	$168, %edi
    5d2d: 00 00                        	addb	%al, (%rax)
    5d2f: 00 07                        	addb	%al, (%rdi)
    5d31: 08 00                        	orb	%al, (%rax)
    5d33: 00 d0                        	addb	%dl, %al
    5d35: ff ff                        	<unknown>
    5d37: ff bf 81 00 00 00            	<unknown>
    5d3d: 00 00                        	addb	%al, (%rax)
    5d3f: 00 bf 72 00 00 00            	addb	%bh, 114(%rdi)
    5d45: 00 00                        	addb	%al, (%rax)
    5d47: 00 bf 93 00 00 00            	addb	%bh, 147(%rdi)
    5d4d: 00 00                        	addb	%al, (%rax)
    5d4f: 00 85 10 00 00 29            	addb	%al, 687865872(%rbp)
    5d55: f9                           	stc
    5d56: ff ff                        	<unknown>
    5d58: bf a1 00 00 00               	movl	$161, %edi
    5d5d: 00 00                        	addb	%al, (%rax)
    5d5f: 00 07                        	addb	%al, (%rdi)
    5d61: 01 00                        	addl	%eax, (%rax)
    5d63: 00 a0 ff ff ff bf            	addb	%ah, -1073741825(%rax)
    5d69: 82                           	<unknown>
    5d6a: 00 00                        	addb	%al, (%rax)
    5d6c: 00 00                        	addb	%al, (%rax)
    5d6e: 00 00                        	addb	%al, (%rax)
    5d70: 85 10                        	testl	%edx, (%rax)
    5d72: 00 00                        	addb	%al, (%rax)
    5d74: 15 f9 ff ff 79               	adcl	$2046820345, %eax
    5d79: a1 b8 ff 00 00 00 00 7b 1a   	movabsl	1908118867121602488, %eax
    5d82: e8 ff 00 00 00               	callq	0x5e86 <entrypoint+0x58e6>
    5d87: 00 79 a1                     	addb	%bh, -95(%rcx)
    5d8a: b0 ff                        	movb	$-1, %al
    5d8c: 00 00                        	addb	%al, (%rax)
    5d8e: 00 00                        	addb	%al, (%rax)
    5d90: 7b 1a                        	jnp	0x5dac <entrypoint+0x580c>
    5d92: e0 ff                        	loopne	0x5d93 <entrypoint+0x57f3>
    5d94: 00 00                        	addb	%al, (%rax)
    5d96: 00 00                        	addb	%al, (%rax)
    5d98: 79 a1                        	jns	0x5d3b <entrypoint+0x579b>
    5d9a: a8 ff                        	testb	$-1, %al
    5d9c: 00 00                        	addb	%al, (%rax)
    5d9e: 00 00                        	addb	%al, (%rax)
    5da0: 7b 1a                        	jnp	0x5dbc <entrypoint+0x581c>
    5da2: d8 ff                        	fdivr	%st(7), %st
    5da4: 00 00                        	addb	%al, (%rax)
    5da6: 00 00                        	addb	%al, (%rax)
    5da8: 79 a1                        	jns	0x5d4b <entrypoint+0x57ab>
    5daa: a0 ff 00 00 00 00 7b 1a d0   	movabsb	-3451310924495847169, %al
    5db3: ff 00                        	incl	(%rax)
    5db5: 00 00                        	addb	%al, (%rax)
    5db7: 00 b7 06 00 00 00            	addb	%dh, 6(%rdi)
    5dbd: 00 00                        	addb	%al, (%rax)
    5dbf: 00 79 a1                     	addb	%bh, -95(%rcx)
    5dc2: c8 ff 00 00                  	enter	$255, $0
    5dc6: 00 00                        	addb	%al, (%rax)
    5dc8: 7b 1a                        	jnp	0x5de4 <entrypoint+0x5844>
    5dca: f8                           	clc
    5dcb: ff 00                        	incl	(%rax)
    5dcd: 00 00                        	addb	%al, (%rax)
    5dcf: 00 79 a8                     	addb	%bh, -88(%rcx)
    5dd2: c0 ff 00                     	sarb	$0, %bh
    5dd5: 00 00                        	addb	%al, (%rax)
    5dd7: 00 7b 8a                     	addb	%bh, -118(%rbx)
    5dda: f0                           	lock
    5ddb: ff 00                        	incl	(%rax)
    5ddd: 00 00                        	addb	%al, (%rax)
    5ddf: 00 3d 18 f2 00 00            	addb	%bh, 61976(%rip)  # 14ffd
    5de5: 00 00                        	addb	%al, (%rax)
    5de7: 00 b7 06 00 00 00            	addb	%dh, 6(%rdi)
    5ded: 00 00                        	addb	%al, (%rax)
    5def: 00 bf a7 00 00 00            	addb	%bh, 167(%rdi)
    5df5: 00 00                        	addb	%al, (%rax)
    5df7: 00 07                        	addb	%al, (%rdi)
    5df9: 07                           	<unknown>
    5dfa: 00 00                        	addb	%al, (%rax)
    5dfc: e0 ff                        	loopne	0x5dfd <entrypoint+0x585d>
    5dfe: ff ff                        	<unknown>
    5e00: 05 00 0f 00 00               	addl	$3840, %eax
    5e05: 00 00                        	addb	%al, (%rax)
    5e07: 00 79 91                     	addb	%bh, -111(%rcx)
    5e0a: 00 00                        	addb	%al, (%rax)
    5e0c: 00 00                        	addb	%al, (%rax)
    5e0e: 00 00                        	addb	%al, (%rax)
    5e10: 79 93                        	jns	0x5da5 <entrypoint+0x5805>
    5e12: 08 00                        	orb	%al, (%rax)
    5e14: 00 00                        	addb	%al, (%rax)
    5e16: 00 00                        	addb	%al, (%rax)
    5e18: bf a2 00 00 00               	movl	$162, %edi
    5e1d: 00 00                        	addb	%al, (%rax)
    5e1f: 00 07                        	addb	%al, (%rdi)
    5e21: 02 00                        	addb	(%rax), %al
    5e23: 00 40 ff                     	addb	%al, -1(%rax)
    5e26: ff ff                        	<unknown>
    5e28: 8d 00                        	leal	(%rax), %eax
    5e2a: 00 00                        	addb	%al, (%rax)
    5e2c: 03 00                        	addl	(%rax), %eax
    5e2e: 00 00                        	addb	%al, (%rax)
    5e30: bf a1 00 00 00               	movl	$161, %edi
    5e35: 00 00                        	addb	%al, (%rax)
    5e37: 00 07                        	addb	%al, (%rdi)
    5e39: 01 00                        	addl	%eax, (%rax)
    5e3b: 00 a0 ff ff ff bf            	addb	%ah, -1073741825(%rax)
    5e41: a1 00 00 00 00 00 00 07 01   	movabsl	74027918874902528, %eax
    5e4a: 00 00                        	addb	%al, (%rax)
    5e4c: d0 ff                        	sarb	%bh
    5e4e: ff ff                        	<unknown>
    5e50: 55                           	pushq	%rbp
    5e51: 00 e2                        	addb	%ah, %dl
    5e53: 00 00                        	addb	%al, (%rax)
    5e55: 00 00                        	addb	%al, (%rax)
    5e57: 00 07                        	addb	%al, (%rdi)
    5e59: 06                           	<unknown>
    5e5a: 00 00                        	addb	%al, (%rax)
    5e5c: 01 00                        	addl	%eax, (%rax)
    5e5e: 00 00                        	addb	%al, (%rax)
    5e60: 79 a8                        	jns	0x5e0a <entrypoint+0x586a>
    5e62: f0                           	lock
    5e63: ff 00                        	incl	(%rax)
    5e65: 00 00                        	addb	%al, (%rax)
    5e67: 00 79 a1                     	addb	%bh, -95(%rcx)
    5e6a: f8                           	clc
    5e6b: ff 00                        	incl	(%rax)
    5e6d: 00 00                        	addb	%al, (%rax)
    5e6f: 00 2d 81 01 00 00            	addb	%ch, 385(%rip)  # 5ff6 <entrypoint+0x5a56>
    5e75: 00 00                        	addb	%al, (%rax)
    5e77: 00 05 00 df 00 00            	addb	%al, 57088(%rip)  # 13d7d
    5e7d: 00 00                        	addb	%al, (%rax)
    5e7f: 00 bf 81 00 00 00            	addb	%bh, 129(%rdi)
    5e85: 00 00                        	addb	%al, (%rax)
    5e87: 00 07                        	addb	%al, (%rdi)
    5e89: 01 00                        	addl	%eax, (%rax)
    5e8b: 00 01                        	addb	%al, (%rcx)
    5e8d: 00 00                        	addb	%al, (%rax)
    5e8f: 00 7b 1a                     	addb	%bh, 26(%rbx)
    5e92: f0                           	lock
    5e93: ff 00                        	incl	(%rax)
    5e95: 00 00                        	addb	%al, (%rax)
    5e97: 00 bf a1 00 00 00            	addb	%bh, 161(%rdi)
    5e9d: 00 00                        	addb	%al, (%rax)
    5e9f: 00 07                        	addb	%al, (%rdi)
    5ea1: 01 00                        	addl	%eax, (%rax)
    5ea3: 00 d0                        	addb	%dl, %al
    5ea5: ff ff                        	<unknown>
    5ea7: ff bf 82 00 00 00            	<unknown>
    5ead: 00 00                        	addb	%al, (%rax)
    5eaf: 00 85 10 00 00 3d            	addb	%al, 1023410192(%rbp)
    5eb5: fc                           	cld
    5eb6: ff ff                        	<unknown>
    5eb8: bf 09 00 00 00               	movl	$9, %edi
    5ebd: 00 00                        	addb	%al, (%rax)
    5ebf: 00 bf 71 00 00 00            	addb	%bh, 113(%rdi)
    5ec5: 00 00                        	addb	%al, (%rax)
    5ec7: 00 bf 82 00 00 00            	addb	%bh, 130(%rdi)
    5ecd: 00 00                        	addb	%al, (%rax)
    5ecf: 00 85 10 00 00 39            	addb	%al, 956301328(%rbp)
    5ed5: fc                           	cld
    5ed6: ff ff                        	<unknown>
    5ed8: 79 02                        	jns	0x5edc <entrypoint+0x593c>
    5eda: 00 00                        	addb	%al, (%rax)
    5edc: 00 00                        	addb	%al, (%rax)
    5ede: 00 00                        	addb	%al, (%rax)
    5ee0: 79 03                        	jns	0x5ee5 <entrypoint+0x5945>
    5ee2: 08 00                        	orb	%al, (%rax)
    5ee4: 00 00                        	addb	%al, (%rax)
    5ee6: 00 00                        	addb	%al, (%rax)
    5ee8: 79 a1                        	jns	0x5e8b <entrypoint+0x58eb>
    5eea: 68 ff 00 00 00               	pushq	$255
    5eef: 00 79 14                     	addb	%bh, 20(%rcx)
    5ef2: 18 00                        	sbbb	%al, (%rax)
    5ef4: 00 00                        	addb	%al, (%rax)
    5ef6: 00 00                        	addb	%al, (%rax)
    5ef8: 79 a1                        	jns	0x5e9b <entrypoint+0x58fb>
    5efa: 60                           	<unknown>
    5efb: ff 00                        	incl	(%rax)
    5efd: 00 00                        	addb	%al, (%rax)
    5eff: 00 8d 00 00 00 04            	addb	%cl, 67108864(%rbp)
    5f05: 00 00                        	addb	%al, (%rax)
    5f07: 00 bf a1 00 00 00            	addb	%bh, 161(%rdi)
    5f0d: 00 00                        	addb	%al, (%rax)
    5f0f: 00 07                        	addb	%al, (%rdi)
    5f11: 01 00                        	addl	%eax, (%rax)
    5f13: 00 a0 ff ff ff 55            	addb	%ah, 1442840575(%rax)
    5f19: 00 c9                        	addb	%cl, %cl
    5f1b: 00 00                        	addb	%al, (%rax)
    5f1d: 00 00                        	addb	%al, (%rax)
    5f1f: 00 05 00 dc ff 00            	addb	%al, 16768000(%rip)  # 1003b25
    5f25: 00 00                        	addb	%al, (%rax)
    5f27: 00 79 37                     	addb	%bh, 55(%rcx)
    5f2a: 18 00                        	sbbb	%al, (%rax)
    5f2c: 00 00                        	addb	%al, (%rax)
    5f2e: 00 00                        	addb	%al, (%rax)
    5f30: 79 32                        	jns	0x5f64 <entrypoint+0x59c4>
    5f32: 00 00                        	addb	%al, (%rax)
    5f34: 00 00                        	addb	%al, (%rax)
    5f36: 00 00                        	addb	%al, (%rax)
    5f38: 79 31                        	jns	0x5f6b <entrypoint+0x59cb>
    5f3a: 08 00                        	orb	%al, (%rax)
    5f3c: 00 00                        	addb	%al, (%rax)
    5f3e: 00 00                        	addb	%al, (%rax)
    5f40: 7b 1a                        	jnp	0x5f5c <entrypoint+0x59bc>
    5f42: 18 ff                        	sbbb	%bh, %bh
    5f44: 00 00                        	addb	%al, (%rax)
    5f46: 00 00                        	addb	%al, (%rax)
    5f48: 67 01 00                     	addl	%eax, (%eax)
    5f4b: 00 04 00                     	addb	%al, (%rax,%rax)
    5f4e: 00 00                        	addb	%al, (%rax)
    5f50: bf 23 00 00 00               	movl	$35, %edi
    5f55: 00 00                        	addb	%al, (%rax)
    5f57: 00 0f                        	addb	%cl, (%rdi)
    5f59: 13 00                        	adcl	(%rax), %eax
    5f5b: 00 00                        	addb	%al, (%rax)
    5f5d: 00 00                        	addb	%al, (%rax)
    5f5f: 00 bf a1 00 00 00            	addb	%bh, 161(%rdi)
    5f65: 00 00                        	addb	%al, (%rax)
    5f67: 00 07                        	addb	%al, (%rdi)
    5f69: 01 00                        	addl	%eax, (%rax)
    5f6b: 00 30                        	addb	%dh, (%rax)
    5f6d: ff ff                        	<unknown>
    5f6f: ff 7b 2a                     	<unknown>
    5f72: 10 ff                        	adcb	%bh, %bh
    5f74: 00 00                        	addb	%al, (%rax)
    5f76: 00 00                        	addb	%al, (%rax)
    5f78: 85 10                        	testl	%edx, (%rax)
    5f7a: 00 00                        	addb	%al, (%rax)
    5f7c: 87 fb                        	xchgl	%ebx, %edi
    5f7e: ff ff                        	<unknown>
    5f80: 67 07                        	<unknown>
    5f82: 00 00                        	addb	%al, (%rax)
    5f84: 06                           	<unknown>
    5f85: 00 00                        	addb	%al, (%rax)
    5f87: 00 bf 83 00 00 00            	addb	%bh, 131(%rdi)
    5f8d: 00 00                        	addb	%al, (%rax)
    5f8f: 00 0f                        	addb	%cl, (%rdi)
    5f91: 73 00                        	jae	0x5f93 <entrypoint+0x59f3>
    5f93: 00 00                        	addb	%al, (%rax)
    5f95: 00 00                        	addb	%al, (%rax)
    5f97: 00 79 a5                     	addb	%bh, -91(%rcx)
    5f9a: 38 ff                        	cmpb	%bh, %bh
    5f9c: 00 00                        	addb	%al, (%rax)
    5f9e: 00 00                        	addb	%al, (%rax)
    5fa0: 79 a4                        	jns	0x5f46 <entrypoint+0x59a6>
    5fa2: 30 ff                        	xorb	%bh, %bh
    5fa4: 00 00                        	addb	%al, (%rax)
    5fa6: 00 00                        	addb	%al, (%rax)
    5fa8: bf a7 00 00 00               	movl	$167, %edi
    5fad: 00 00                        	addb	%al, (%rax)
    5faf: 00 07                        	addb	%al, (%rdi)
    5fb1: 07                           	<unknown>
    5fb2: 00 00                        	addb	%al, (%rax)
    5fb4: d0 ff                        	sarb	%bh
    5fb6: ff ff                        	<unknown>
    5fb8: bf 71 00 00 00               	movl	$113, %edi
    5fbd: 00 00                        	addb	%al, (%rax)
    5fbf: 00 bf 82 00 00 00            	addb	%bh, 130(%rdi)
    5fc5: 00 00                        	addb	%al, (%rax)
    5fc7: 00 85 10 00 00 e8            	addb	%al, -402653168(%rbp)
    5fcd: f8                           	clc
    5fce: ff ff                        	<unknown>
    5fd0: bf a1 00 00 00               	movl	$161, %edi
    5fd5: 00 00                        	addb	%al, (%rax)
    5fd7: 00 07                        	addb	%al, (%rdi)
    5fd9: 01 00                        	addl	%eax, (%rax)
    5fdb: 00 a0 ff ff ff bf            	addb	%ah, -1073741825(%rax)
    5fe1: 72 00                        	jb	0x5fe3 <entrypoint+0x5a43>
    5fe3: 00 00                        	addb	%al, (%rax)
    5fe5: 00 00                        	addb	%al, (%rax)
    5fe7: 00 85 10 00 00 c6            	addb	%al, -973078512(%rbp)
    5fed: f8                           	clc
    5fee: ff ff                        	<unknown>
    5ff0: 79 a1                        	jns	0x5f93 <entrypoint+0x59f3>
    5ff2: b8 ff 00 00 00               	movl	$255, %eax
    5ff7: 00 7b 1a                     	addb	%bh, 26(%rbx)
    5ffa: e8 ff 00 00 00               	callq	0x60fe <entrypoint+0x5b5e>
    5fff: 00 79 a1                     	addb	%bh, -95(%rcx)
    6002: b0 ff                        	movb	$-1, %al
    6004: 00 00                        	addb	%al, (%rax)
    6006: 00 00                        	addb	%al, (%rax)
    6008: 7b 1a                        	jnp	0x6024 <entrypoint+0x5a84>
    600a: e0 ff                        	loopne	0x600b <entrypoint+0x5a6b>
    600c: 00 00                        	addb	%al, (%rax)
    600e: 00 00                        	addb	%al, (%rax)
    6010: 79 a1                        	jns	0x5fb3 <entrypoint+0x5a13>
    6012: a8 ff                        	testb	$-1, %al
    6014: 00 00                        	addb	%al, (%rax)
    6016: 00 00                        	addb	%al, (%rax)
    6018: 7b 1a                        	jnp	0x6034 <entrypoint+0x5a94>
    601a: d8 ff                        	fdivr	%st(7), %st
    601c: 00 00                        	addb	%al, (%rax)
    601e: 00 00                        	addb	%al, (%rax)
    6020: 79 a1                        	jns	0x5fc3 <entrypoint+0x5a23>
    6022: a0 ff 00 00 00 00 7b 1a d0   	movabsb	-3451310924495847169, %al
    602b: ff 00                        	incl	(%rax)
    602d: 00 00                        	addb	%al, (%rax)
    602f: 00 79 a1                     	addb	%bh, -95(%rcx)
    6032: c8 ff 00 00                  	enter	$255, $0
    6036: 00 00                        	addb	%al, (%rax)
    6038: 7b 1a                        	jnp	0x6054 <entrypoint+0x5ab4>
    603a: f8                           	clc
    603b: ff 00                        	incl	(%rax)
    603d: 00 00                        	addb	%al, (%rax)
    603f: 00 79 a9                     	addb	%bh, -87(%rcx)
    6042: c0 ff 00                     	sarb	$0, %bh
    6045: 00 00                        	addb	%al, (%rax)
    6047: 00 7b 9a                     	addb	%bh, -102(%rbx)
    604a: f0                           	lock
    604b: ff 00                        	incl	(%rax)
    604d: 00 00                        	addb	%al, (%rax)
    604f: 00 3d 19 8e 00 00            	addb	%bh, 36377(%rip)  # ee6e
    6055: 00 00                        	addb	%al, (%rax)
    6057: 00 b7 06 00 00 00            	addb	%dh, 6(%rdi)
    605d: 00 00                        	addb	%al, (%rax)
    605f: 00 bf a7 00 00 00            	addb	%bh, 167(%rdi)
    6065: 00 00                        	addb	%al, (%rax)
    6067: 00 07                        	addb	%al, (%rdi)
    6069: 07                           	<unknown>
    606a: 00 00                        	addb	%al, (%rax)
    606c: e0 ff                        	loopne	0x606d <entrypoint+0x5acd>
    606e: ff ff                        	<unknown>
    6070: bf 91 00 00 00               	movl	$145, %edi
    6075: 00 00                        	addb	%al, (%rax)
    6077: 00 07                        	addb	%al, (%rdi)
    6079: 01 00                        	addl	%eax, (%rax)
    607b: 00 01                        	addb	%al, (%rcx)
    607d: 00 00                        	addb	%al, (%rax)
    607f: 00 7b 1a                     	addb	%bh, 26(%rbx)
    6082: f0                           	lock
    6083: ff 00                        	incl	(%rax)
    6085: 00 00                        	addb	%al, (%rax)
    6087: 00 bf a1 00 00 00            	addb	%bh, 161(%rdi)
    608d: 00 00                        	addb	%al, (%rax)
    608f: 00 07                        	addb	%al, (%rdi)
    6091: 01 00                        	addl	%eax, (%rax)
    6093: 00 d0                        	addb	%dl, %al
    6095: ff ff                        	<unknown>
    6097: ff bf 92 00 00 00            	<unknown>
    609d: 00 00                        	addb	%al, (%rax)
    609f: 00 85 10 00 00 03            	addb	%al, 50331664(%rbp)
    60a5: fc                           	cld
    60a6: ff ff                        	<unknown>
    60a8: bf 08 00 00 00               	movl	$8, %edi
    60ad: 00 00                        	addb	%al, (%rax)
    60af: 00 bf 71 00 00 00            	addb	%bh, 113(%rdi)
    60b5: 00 00                        	addb	%al, (%rax)
    60b7: 00 bf 92 00 00 00            	addb	%bh, 146(%rdi)
    60bd: 00 00                        	addb	%al, (%rax)
    60bf: 00 85 10 00 00 fb            	addb	%al, -83886064(%rbp)
    60c5: fb                           	sti
    60c6: ff ff                        	<unknown>
    60c8: 79 02                        	jns	0x60cc <entrypoint+0x5b2c>
    60ca: 00 00                        	addb	%al, (%rax)
    60cc: 00 00                        	addb	%al, (%rax)
    60ce: 00 00                        	addb	%al, (%rax)
    60d0: 79 03                        	jns	0x60d5 <entrypoint+0x5b35>
    60d2: 08 00                        	orb	%al, (%rax)
    60d4: 00 00                        	addb	%al, (%rax)
    60d6: 00 00                        	addb	%al, (%rax)
    60d8: 79 a1                        	jns	0x607b <entrypoint+0x5adb>
    60da: 68 ff 00 00 00               	pushq	$255
    60df: 00 79 14                     	addb	%bh, 20(%rcx)
    60e2: 18 00                        	sbbb	%al, (%rax)
    60e4: 00 00                        	addb	%al, (%rax)
    60e6: 00 00                        	addb	%al, (%rax)
    60e8: 79 a1                        	jns	0x608b <entrypoint+0x5aeb>
    60ea: 60                           	<unknown>
    60eb: ff 00                        	incl	(%rax)
    60ed: 00 00                        	addb	%al, (%rax)
    60ef: 00 8d 00 00 00 04            	addb	%cl, 67108864(%rbp)
    60f5: 00 00                        	addb	%al, (%rax)
    60f7: 00 bf a1 00 00 00            	addb	%bh, 161(%rdi)
    60fd: 00 00                        	addb	%al, (%rax)
    60ff: 00 07                        	addb	%al, (%rdi)
    6101: 01 00                        	addl	%eax, (%rax)
    6103: 00 a0 ff ff ff 55            	addb	%ah, 1442840575(%rax)
    6109: 00 8b 00 00 00 00            	addb	%cl, (%rbx)
    610f: 00 61 81                     	addb	%ah, -127(%rcx)
    6112: 30 00                        	xorb	%al, (%rax)
    6114: 00 00                        	addb	%al, (%rax)
    6116: 00 00                        	addb	%al, (%rax)
    6118: 63 1a                        	movslq	(%rdx), %ebx
    611a: 94                           	xchgl	%esp, %eax
    611b: ff 00                        	incl	(%rax)
    611d: 00 00                        	addb	%al, (%rax)
    611f: 00 71 81                     	addb	%dh, -127(%rcx)
    6122: 38 00                        	cmpb	%al, (%rax)
    6124: 00 00                        	addb	%al, (%rax)
    6126: 00 00                        	addb	%al, (%rax)
    6128: 73 1a                        	jae	0x6144 <entrypoint+0x5ba4>
    612a: 98                           	cwtl
    612b: ff 00                        	incl	(%rax)
    612d: 00 00                        	addb	%al, (%rax)
    612f: 00 61 81                     	addb	%ah, -127(%rcx)
    6132: 34 00                        	xorb	$0, %al
    6134: 00 00                        	addb	%al, (%rax)
    6136: 00 00                        	addb	%al, (%rax)
    6138: 63 1a                        	movslq	(%rdx), %ebx
    613a: 90                           	nop
    613b: ff 00                        	incl	(%rax)
    613d: 00 00                        	addb	%al, (%rax)
    613f: 00 b7 09 00 00 00            	addb	%dh, 9(%rdi)
    6145: 00 00                        	addb	%al, (%rax)
    6147: 00 79 82                     	addb	%bh, -126(%rcx)
    614a: 20 00                        	andb	%al, (%rax)
    614c: 00 00                        	addb	%al, (%rax)
    614e: 00 00                        	addb	%al, (%rax)
    6150: 65 02 0f                     	addb	%gs:(%rdi), %cl
    6153: 00 01                        	addb	%al, (%rcx)
    6155: 00 00                        	addb	%al, (%rax)
    6157: 00 15 02 1d 00 00            	addb	%dl, 7426(%rip)  # 7e5f <entrypoint+0x78bf>
    615d: 00 00                        	addb	%al, (%rax)
    615f: 00 79 82                     	addb	%bh, -126(%rcx)
    6162: 28 00                        	subb	%al, (%rax)
    6164: 00 00                        	addb	%al, (%rax)
    6166: 00 00                        	addb	%al, (%rax)
    6168: 79 a3                        	jns	0x610d <entrypoint+0x5b6d>
    616a: 88 ff                        	movb	%bh, %bh
    616c: 00 00                        	addb	%al, (%rax)
    616e: 00 00                        	addb	%al, (%rax)
    6170: 3d 32 a8 00 00               	cmpl	$43058, %eax
    6175: 00 00                        	addb	%al, (%rax)
    6177: 00 67 02                     	addb	%ah, 2(%rdi)
    617a: 00 00                        	addb	%al, (%rax)
    617c: 04 00                        	addb	$0, %al
    617e: 00 00                        	addb	%al, (%rax)
    6180: 79 a3                        	jns	0x6125 <entrypoint+0x5b85>
    6182: 80 ff 00                     	cmpb	$0, %bh
    6185: 00 00                        	addb	%al, (%rax)
    6187: 00 0f                        	addb	%cl, (%rdi)
    6189: 23 00                        	andl	(%rax), %eax
    618b: 00 00                        	addb	%al, (%rax)
    618d: 00 00                        	addb	%al, (%rax)
    618f: 00 79 32                     	addb	%bh, 50(%rcx)
    6192: 08 00                        	orb	%al, (%rax)
    6194: 00 00                        	addb	%al, (%rax)
    6196: 00 00                        	addb	%al, (%rax)
    6198: 18 04 00                     	sbbb	%al, (%rax,%rax)
    619b: 00 c8                        	addb	%cl, %al
    619d: 5b                           	popq	%rbx
		...
    61a6: 00 00                        	addb	%al, (%rax)
    61a8: 5d                           	popq	%rbp
    61a9: 42 17                        	<unknown>
    61ab: 00 00                        	addb	%al, (%rax)
    61ad: 00 00                        	addb	%al, (%rax)
    61af: 00 b7 09 00 00 01            	addb	%dh, 16777225(%rdi)
    61b5: 00 00                        	addb	%al, (%rax)
    61b7: 00 79 31                     	addb	%bh, 49(%rcx)
    61ba: 00 00                        	addb	%al, (%rax)
    61bc: 00 00                        	addb	%al, (%rax)
    61be: 00 00                        	addb	%al, (%rax)
    61c0: 79 11                        	jns	0x61d3 <entrypoint+0x5c33>
    61c2: 00 00                        	addb	%al, (%rax)
    61c4: 00 00                        	addb	%al, (%rax)
    61c6: 00 00                        	addb	%al, (%rax)
    61c8: 05 00 13 00 00               	addl	$4864, %eax
    61cd: 00 00                        	addb	%al, (%rax)
    61cf: 00 15 02 12 00 03            	addb	%dl, 50336258(%rip)  # 30073d7
    61d5: 00 00                        	addb	%al, (%rax)
    61d7: 00 79 a2                     	addb	%bh, -94(%rcx)
    61da: 70 ff                        	jo	0x61db <entrypoint+0x5c3b>
    61dc: 00 00                        	addb	%al, (%rax)
    61de: 00 00                        	addb	%al, (%rax)
    61e0: 79 a1                        	jns	0x6183 <entrypoint+0x5be3>
    61e2: 78 ff                        	js	0x61e3 <entrypoint+0x5c43>
    61e4: 00 00                        	addb	%al, (%rax)
    61e6: 00 00                        	addb	%al, (%rax)
    61e8: 1d 12 0e 00 00               	sbbl	$3602, %eax
    61ed: 00 00                        	addb	%al, (%rax)
    61ef: 00 bf 21 00 00 00            	addb	%bh, 33(%rdi)
    61f5: 00 00                        	addb	%al, (%rax)
    61f7: 00 07                        	addb	%al, (%rdi)
    61f9: 01 00                        	addl	%eax, (%rax)
    61fb: 00 10                        	addb	%dl, (%rax)
    61fd: 00 00                        	addb	%al, (%rax)
    61ff: 00 7b 1a                     	addb	%bh, 26(%rbx)
    6202: 70 ff                        	jo	0x6203 <entrypoint+0x5c63>
    6204: 00 00                        	addb	%al, (%rax)
    6206: 00 00                        	addb	%al, (%rax)
    6208: 79 23                        	jns	0x622d <entrypoint+0x5c8d>
    620a: 08 00                        	orb	%al, (%rax)
    620c: 00 00                        	addb	%al, (%rax)
    620e: 00 00                        	addb	%al, (%rax)
    6210: 18 04 00                     	sbbb	%al, (%rax,%rax)
    6213: 00 c8                        	addb	%cl, %al
    6215: 5b                           	popq	%rbx
		...
    621e: 00 00                        	addb	%al, (%rax)
    6220: 5d                           	popq	%rbp
    6221: 43 08 00                     	orb	%al, (%r8)
    6224: 00 00                        	addb	%al, (%rax)
    6226: 00 00                        	addb	%al, (%rax)
    6228: b7 09                        	movb	$9, %bh
    622a: 00 00                        	addb	%al, (%rax)
    622c: 01 00                        	addl	%eax, (%rax)
    622e: 00 00                        	addb	%al, (%rax)
    6230: 79 21                        	jns	0x6253 <entrypoint+0x5cb3>
    6232: 00 00                        	addb	%al, (%rax)
    6234: 00 00                        	addb	%al, (%rax)
    6236: 00 00                        	addb	%al, (%rax)
    6238: 79 11                        	jns	0x624b <entrypoint+0x5cab>
    623a: 00 00                        	addb	%al, (%rax)
    623c: 00 00                        	addb	%al, (%rax)
    623e: 00 00                        	addb	%al, (%rax)
    6240: 05 00 04 00 00               	addl	$1024, %eax
    6245: 00 00                        	addb	%al, (%rax)
    6247: 00 b7 09 00 00 01            	addb	%dh, 16777225(%rdi)
    624d: 00 00                        	addb	%al, (%rax)
    624f: 00 79 81                     	addb	%bh, -127(%rcx)
    6252: 28 00                        	subb	%al, (%rax)
    6254: 00 00                        	addb	%al, (%rax)
    6256: 00 00                        	addb	%al, (%rax)
    6258: 05 00 01 00 00               	addl	$256, %eax
    625d: 00 00                        	addb	%al, (%rax)
    625f: 00 85 10 00 00 8e            	addb	%al, -1912602608(%rbp)
    6265: 03 00                        	addl	(%rax), %eax
    6267: 00 7b 1a                     	addb	%bh, 26(%rbx)
    626a: 48 ff 00                     	incq	(%rax)
    626d: 00 00                        	addb	%al, (%rax)
    626f: 00 7b 9a                     	addb	%bh, -102(%rbx)
    6272: 40 ff 00                     	incl	(%rax)
    6275: 00 00                        	addb	%al, (%rax)
    6277: 00 b7 09 00 00 00            	addb	%dh, 9(%rdi)
    627d: 00 00                        	addb	%al, (%rax)
    627f: 00 79 82                     	addb	%bh, -126(%rcx)
    6282: 10 00                        	adcb	%al, (%rax)
    6284: 00 00                        	addb	%al, (%rax)
    6286: 00 00                        	addb	%al, (%rax)
    6288: 65 02 0f                     	addb	%gs:(%rdi), %cl
    628b: 00 01                        	addb	%al, (%rcx)
    628d: 00 00                        	addb	%al, (%rax)
    628f: 00 15 02 1d 00 00            	addb	%dl, 7426(%rip)  # 7f97 <entrypoint+0x79f7>
    6295: 00 00                        	addb	%al, (%rax)
    6297: 00 79 82                     	addb	%bh, -126(%rcx)
    629a: 18 00                        	sbbb	%al, (%rax)
    629c: 00 00                        	addb	%al, (%rax)
    629e: 00 00                        	addb	%al, (%rax)
    62a0: 79 a3                        	jns	0x6245 <entrypoint+0x5ca5>
    62a2: 88 ff                        	movb	%bh, %bh
    62a4: 00 00                        	addb	%al, (%rax)
    62a6: 00 00                        	addb	%al, (%rax)
    62a8: 3d 32 81 00 00               	cmpl	$33074, %eax
    62ad: 00 00                        	addb	%al, (%rax)
    62af: 00 67 02                     	addb	%ah, 2(%rdi)
    62b2: 00 00                        	addb	%al, (%rax)
    62b4: 04 00                        	addb	$0, %al
    62b6: 00 00                        	addb	%al, (%rax)
    62b8: 79 a3                        	jns	0x625d <entrypoint+0x5cbd>
    62ba: 80 ff 00                     	cmpb	$0, %bh
    62bd: 00 00                        	addb	%al, (%rax)
    62bf: 00 0f                        	addb	%cl, (%rdi)
    62c1: 23 00                        	andl	(%rax), %eax
    62c3: 00 00                        	addb	%al, (%rax)
    62c5: 00 00                        	addb	%al, (%rax)
    62c7: 00 79 32                     	addb	%bh, 50(%rcx)
    62ca: 08 00                        	orb	%al, (%rax)
    62cc: 00 00                        	addb	%al, (%rax)
    62ce: 00 00                        	addb	%al, (%rax)
    62d0: 18 04 00                     	sbbb	%al, (%rax,%rax)
    62d3: 00 c8                        	addb	%cl, %al
    62d5: 5b                           	popq	%rbx
		...
    62de: 00 00                        	addb	%al, (%rax)
    62e0: 5d                           	popq	%rbp
    62e1: 42 17                        	<unknown>
    62e3: 00 00                        	addb	%al, (%rax)
    62e5: 00 00                        	addb	%al, (%rax)
    62e7: 00 b7 09 00 00 01            	addb	%dh, 16777225(%rdi)
    62ed: 00 00                        	addb	%al, (%rax)
    62ef: 00 79 31                     	addb	%bh, 49(%rcx)
    62f2: 00 00                        	addb	%al, (%rax)
    62f4: 00 00                        	addb	%al, (%rax)
    62f6: 00 00                        	addb	%al, (%rax)
    62f8: 79 11                        	jns	0x630b <entrypoint+0x5d6b>
    62fa: 00 00                        	addb	%al, (%rax)
    62fc: 00 00                        	addb	%al, (%rax)
    62fe: 00 00                        	addb	%al, (%rax)
    6300: 05 00 13 00 00               	addl	$4864, %eax
    6305: 00 00                        	addb	%al, (%rax)
    6307: 00 15 02 12 00 03            	addb	%dl, 50336258(%rip)  # 300750f
    630d: 00 00                        	addb	%al, (%rax)
    630f: 00 79 a2                     	addb	%bh, -94(%rcx)
    6312: 70 ff                        	jo	0x6313 <entrypoint+0x5d73>
    6314: 00 00                        	addb	%al, (%rax)
    6316: 00 00                        	addb	%al, (%rax)
    6318: 79 a1                        	jns	0x62bb <entrypoint+0x5d1b>
    631a: 78 ff                        	js	0x631b <entrypoint+0x5d7b>
    631c: 00 00                        	addb	%al, (%rax)
    631e: 00 00                        	addb	%al, (%rax)
    6320: 1d 12 0e 00 00               	sbbl	$3602, %eax
    6325: 00 00                        	addb	%al, (%rax)
    6327: 00 bf 21 00 00 00            	addb	%bh, 33(%rdi)
    632d: 00 00                        	addb	%al, (%rax)
    632f: 00 07                        	addb	%al, (%rdi)
    6331: 01 00                        	addl	%eax, (%rax)
    6333: 00 10                        	addb	%dl, (%rax)
    6335: 00 00                        	addb	%al, (%rax)
    6337: 00 7b 1a                     	addb	%bh, 26(%rbx)
    633a: 70 ff                        	jo	0x633b <entrypoint+0x5d9b>
    633c: 00 00                        	addb	%al, (%rax)
    633e: 00 00                        	addb	%al, (%rax)
    6340: 79 23                        	jns	0x6365 <entrypoint+0x5dc5>
    6342: 08 00                        	orb	%al, (%rax)
    6344: 00 00                        	addb	%al, (%rax)
    6346: 00 00                        	addb	%al, (%rax)
    6348: 18 04 00                     	sbbb	%al, (%rax,%rax)
    634b: 00 c8                        	addb	%cl, %al
    634d: 5b                           	popq	%rbx
		...
    6356: 00 00                        	addb	%al, (%rax)
    6358: 5d                           	popq	%rbp
    6359: 43 08 00                     	orb	%al, (%r8)
    635c: 00 00                        	addb	%al, (%rax)
    635e: 00 00                        	addb	%al, (%rax)
    6360: b7 09                        	movb	$9, %bh
    6362: 00 00                        	addb	%al, (%rax)
    6364: 01 00                        	addl	%eax, (%rax)
    6366: 00 00                        	addb	%al, (%rax)
    6368: 79 21                        	jns	0x638b <entrypoint+0x5deb>
    636a: 00 00                        	addb	%al, (%rax)
    636c: 00 00                        	addb	%al, (%rax)
    636e: 00 00                        	addb	%al, (%rax)
    6370: 79 11                        	jns	0x6383 <entrypoint+0x5de3>
    6372: 00 00                        	addb	%al, (%rax)
    6374: 00 00                        	addb	%al, (%rax)
    6376: 00 00                        	addb	%al, (%rax)
    6378: 05 00 04 00 00               	addl	$1024, %eax
    637d: 00 00                        	addb	%al, (%rax)
    637f: 00 b7 09 00 00 01            	addb	%dh, 16777225(%rdi)
    6385: 00 00                        	addb	%al, (%rax)
    6387: 00 79 81                     	addb	%bh, -127(%rcx)
    638a: 18 00                        	sbbb	%al, (%rax)
    638c: 00 00                        	addb	%al, (%rax)
    638e: 00 00                        	addb	%al, (%rax)
    6390: 05 00 01 00 00               	addl	$256, %eax
    6395: 00 00                        	addb	%al, (%rax)
    6397: 00 85 10 00 00 67            	addb	%al, 1728053264(%rbp)
    639d: 03 00                        	addl	(%rax), %eax
    639f: 00 7b 1a                     	addb	%bh, 26(%rbx)
    63a2: 58                           	popq	%rax
    63a3: ff 00                        	incl	(%rax)
    63a5: 00 00                        	addb	%al, (%rax)
    63a7: 00 7b 9a                     	addb	%bh, -102(%rbx)
    63aa: 50                           	pushq	%rax
    63ab: ff 00                        	incl	(%rax)
    63ad: 00 00                        	addb	%al, (%rax)
    63af: 00 79 81                     	addb	%bh, -127(%rcx)
    63b2: 00 00                        	addb	%al, (%rax)
    63b4: 00 00                        	addb	%al, (%rax)
    63b6: 00 00                        	addb	%al, (%rax)
    63b8: 15 01 07 00 01               	adcl	$16779009, %eax
    63bd: 00 00                        	addb	%al, (%rax)
    63bf: 00 79 a1                     	addb	%bh, -95(%rcx)
    63c2: 70 ff                        	jo	0x63c3 <entrypoint+0x5e23>
    63c4: 00 00                        	addb	%al, (%rax)
    63c6: 00 00                        	addb	%al, (%rax)
    63c8: 79 a2                        	jns	0x636c <entrypoint+0x5dcc>
    63ca: 78 ff                        	js	0x63cb <entrypoint+0x5e2b>
    63cc: 00 00                        	addb	%al, (%rax)
    63ce: 00 00                        	addb	%al, (%rax)
    63d0: 5d                           	popq	%rbp
    63d1: 21 0b                        	andl	%ecx, (%rbx)
    63d3: 00 00                        	addb	%al, (%rax)
    63d5: 00 00                        	addb	%al, (%rax)
    63d7: 00 18                        	addb	%bl, (%rax)
    63d9: 01 00                        	addl	%eax, (%rax)
    63db: 00 d0                        	addb	%dl, %al
    63dd: a4                           	movsb	(%rsi), %es:(%rdi)
		...
    63e6: 00 00                        	addb	%al, (%rax)
    63e8: 85 10                        	testl	%edx, (%rax)
    63ea: 00 00                        	addb	%al, (%rax)
    63ec: 5e                           	popq	%rsi
    63ed: 03 00                        	addl	(%rax), %eax
    63ef: 00 85 10 00 00 ff            	addb	%al, -16777200(%rbp)
    63f5: ff ff                        	<unknown>
    63f7: ff 79 82                     	<unknown>
    63fa: 08 00                        	orb	%al, (%rax)
    63fc: 00 00                        	addb	%al, (%rax)
    63fe: 00 00                        	addb	%al, (%rax)
    6400: 79 a3                        	jns	0x63a5 <entrypoint+0x5e05>
    6402: 88 ff                        	movb	%bh, %bh
    6404: 00 00                        	addb	%al, (%rax)
    6406: 00 00                        	addb	%al, (%rax)
    6408: 3d 32 59 00 00               	cmpl	$22834, %eax
    640d: 00 00                        	addb	%al, (%rax)
    640f: 00 67 02                     	addb	%ah, 2(%rdi)
    6412: 00 00                        	addb	%al, (%rax)
    6414: 04 00                        	addb	$0, %al
    6416: 00 00                        	addb	%al, (%rax)
    6418: 79 a1                        	jns	0x63bb <entrypoint+0x5e1b>
    641a: 80 ff 00                     	cmpb	$0, %bh
    641d: 00 00                        	addb	%al, (%rax)
    641f: 00 0f                        	addb	%cl, (%rdi)
    6421: 21 00                        	andl	%eax, (%rax)
    6423: 00 00                        	addb	%al, (%rax)
    6425: 00 00                        	addb	%al, (%rax)
    6427: 00 05 00 03 00 00            	addb	%al, 768(%rip)  # 672d <entrypoint+0x618d>
    642d: 00 00                        	addb	%al, (%rax)
    642f: 00 bf 12 00 00 00            	addb	%bh, 18(%rdi)
    6435: 00 00                        	addb	%al, (%rax)
    6437: 00 07                        	addb	%al, (%rdi)
    6439: 02 00                        	addb	(%rax), %al
    643b: 00 10                        	addb	%dl, (%rax)
    643d: 00 00                        	addb	%al, (%rax)
    643f: 00 7b 2a                     	addb	%bh, 42(%rbx)
    6442: 70 ff                        	jo	0x6443 <entrypoint+0x5ea3>
    6444: 00 00                        	addb	%al, (%rax)
    6446: 00 00                        	addb	%al, (%rax)
    6448: bf 12 00 00 00               	movl	$18, %edi
    644d: 00 00                        	addb	%al, (%rax)
    644f: 00 07                        	addb	%al, (%rdi)
    6451: 02 00                        	addb	(%rax), %al
    6453: 00 08                        	addb	%cl, (%rax)
    6455: 00 00                        	addb	%al, (%rax)
    6457: 00 79 11                     	addb	%bh, 17(%rcx)
    645a: 00 00                        	addb	%al, (%rax)
    645c: 00 00                        	addb	%al, (%rax)
    645e: 00 00                        	addb	%al, (%rax)
    6460: 79 23                        	jns	0x6485 <entrypoint+0x5ee5>
    6462: 00 00                        	addb	%al, (%rax)
    6464: 00 00                        	addb	%al, (%rax)
    6466: 00 00                        	addb	%al, (%rax)
    6468: bf a2 00 00 00               	movl	$162, %edi
    646d: 00 00                        	addb	%al, (%rax)
    646f: 00 07                        	addb	%al, (%rdi)
    6471: 02 00                        	addb	(%rax), %al
    6473: 00 40 ff                     	addb	%al, -1(%rax)
    6476: ff ff                        	<unknown>
    6478: 8d 00                        	leal	(%rax), %eax
    647a: 00 00                        	addb	%al, (%rax)
    647c: 03 00                        	addl	(%rax), %eax
    647e: 00 00                        	addb	%al, (%rax)
    6480: bf a1 00 00 00               	movl	$161, %edi
    6485: 00 00                        	addb	%al, (%rax)
    6487: 00 07                        	addb	%al, (%rdi)
    6489: 01 00                        	addl	%eax, (%rax)
    648b: 00 a0 ff ff ff bf            	addb	%ah, -1073741825(%rax)
    6491: a1 00 00 00 00 00 00 07 01   	movabsl	74027918874902528, %eax
    649a: 00 00                        	addb	%al, (%rax)
    649c: d0 ff                        	sarb	%bh
    649e: ff ff                        	<unknown>
    64a0: 55                           	pushq	%rbp
    64a1: 00 18                        	addb	%bl, (%rax)
    64a3: 00 00                        	addb	%al, (%rax)
    64a5: 00 00                        	addb	%al, (%rax)
    64a7: 00 07                        	addb	%al, (%rdi)
    64a9: 06                           	<unknown>
    64aa: 00 00                        	addb	%al, (%rax)
    64ac: 01 00                        	addl	%eax, (%rax)
    64ae: 00 00                        	addb	%al, (%rax)
    64b0: 79 a9                        	jns	0x645b <entrypoint+0x5ebb>
    64b2: f0                           	lock
    64b3: ff 00                        	incl	(%rax)
    64b5: 00 00                        	addb	%al, (%rax)
    64b7: 00 79 a1                     	addb	%bh, -95(%rcx)
    64ba: f8                           	clc
    64bb: ff 00                        	incl	(%rax)
    64bd: 00 00                        	addb	%al, (%rax)
    64bf: 00 2d 91 75 ff 00            	addb	%ch, 16741777(%rip)  # ffda56
    64c5: 00 00                        	addb	%al, (%rax)
    64c7: 00 bf a1 00 00 00            	addb	%bh, 161(%rdi)
    64cd: 00 00                        	addb	%al, (%rax)
    64cf: 00 07                        	addb	%al, (%rdi)
    64d1: 01 00                        	addl	%eax, (%rax)
    64d3: 00 a0 ff ff ff bf            	addb	%ah, -1073741825(%rax)
    64d9: a1 00 00 00 00 00 00 07 01   	movabsl	74027918874902528, %eax
    64e2: 00 00                        	addb	%al, (%rax)
    64e4: d0 ff                        	sarb	%bh
    64e6: ff ff                        	<unknown>
    64e8: 85 10                        	testl	%edx, (%rax)
    64ea: 00 00                        	addb	%al, (%rax)
    64ec: ce                           	<unknown>
    64ed: fa                           	cli
    64ee: ff ff                        	<unknown>
    64f0: 15 00 28 00 00               	adcl	$10240, %eax
    64f5: 00 00                        	addb	%al, (%rax)
    64f7: 00 79 a1                     	addb	%bh, -95(%rcx)
    64fa: d0 ff                        	sarb	%bh
    64fc: 00 00                        	addb	%al, (%rax)
    64fe: 00 00                        	addb	%al, (%rax)
    6500: 79 a3                        	jns	0x64a5 <entrypoint+0x5f05>
    6502: d8 ff                        	fdivr	%st(7), %st
    6504: 00 00                        	addb	%al, (%rax)
    6506: 00 00                        	addb	%al, (%rax)
    6508: 1f                           	<unknown>
    6509: 13 00                        	adcl	(%rax), %eax
    650b: 00 00                        	addb	%al, (%rax)
    650d: 00 00                        	addb	%al, (%rax)
    650f: 00 bf a1 00 00 00            	addb	%bh, 161(%rdi)
    6515: 00 00                        	addb	%al, (%rax)
    6517: 00 07                        	addb	%al, (%rdi)
    6519: 01 00                        	addl	%eax, (%rax)
    651b: 00 a0 ff ff ff bf            	addb	%ah, -1073741825(%rax)
    6521: a1 00 00 00 00 00 00 07 01   	movabsl	74027918874902528, %eax
    652a: 00 00                        	addb	%al, (%rax)
    652c: d0 ff                        	sarb	%bh
    652e: ff ff                        	<unknown>
    6530: 77 03                        	ja	0x6535 <entrypoint+0x5f95>
    6532: 00 00                        	addb	%al, (%rax)
    6534: 06                           	<unknown>
    6535: 00 00                        	addb	%al, (%rax)
    6537: 00 79 a2                     	addb	%bh, -94(%rcx)
    653a: f0                           	lock
    653b: ff 00                        	incl	(%rax)
    653d: 00 00                        	addb	%al, (%rax)
    653f: 00 3d 32 1e 00 00            	addb	%bh, 7730(%rip)  # 8377 <entrypoint+0x7dd7>
    6545: 00 00                        	addb	%al, (%rax)
    6547: 00 bf a1 00 00 00            	addb	%bh, 161(%rdi)
    654d: 00 00                        	addb	%al, (%rax)
    654f: 00 07                        	addb	%al, (%rdi)
    6551: 01 00                        	addl	%eax, (%rax)
    6553: 00 d0                        	addb	%dl, %al
    6555: ff ff                        	<unknown>
    6557: ff 85 10 00 00 6c            	incl	1811939344(%rbp)
    655d: fb                           	sti
    655e: ff ff                        	<unknown>
    6560: 05 00 15 00 00               	addl	$5376, %eax
    6565: 00 00                        	addb	%al, (%rax)
    6567: 00 b7 00 00 00 01            	addb	%dh, 16777216(%rdi)
    656d: 00 00                        	addb	%al, (%rax)
    656f: 00 05 00 27 00 00            	addb	%al, 9984(%rip)  # 8c75
    6575: 00 00                        	addb	%al, (%rax)
    6577: 00 bf a1 00 00 00            	addb	%bh, 161(%rdi)
    657d: 00 00                        	addb	%al, (%rax)
    657f: 00 07                        	addb	%al, (%rdi)
    6581: 01 00                        	addl	%eax, (%rax)
    6583: 00 a0 ff ff ff bf            	addb	%ah, -1073741825(%rax)
    6589: a1 00 00 00 00 00 00 07 01   	movabsl	74027918874902528, %eax
    6592: 00 00                        	addb	%al, (%rax)
    6594: d0 ff                        	sarb	%bh
    6596: ff ff                        	<unknown>
    6598: 85 10                        	testl	%edx, (%rax)
    659a: 00 00                        	addb	%al, (%rax)
    659c: b8 fa ff ff 15               	movl	$369098746, %eax
    65a1: 00 12                        	addb	%dl, (%rdx)
    65a3: 00 00                        	addb	%al, (%rax)
    65a5: 00 00                        	addb	%al, (%rax)
    65a7: 00 79 a1                     	addb	%bh, -95(%rcx)
    65aa: d0 ff                        	sarb	%bh
    65ac: 00 00                        	addb	%al, (%rax)
    65ae: 00 00                        	addb	%al, (%rax)
    65b0: 79 a3                        	jns	0x6555 <entrypoint+0x5fb5>
    65b2: d8 ff                        	fdivr	%st(7), %st
    65b4: 00 00                        	addb	%al, (%rax)
    65b6: 00 00                        	addb	%al, (%rax)
    65b8: 1f                           	<unknown>
    65b9: 13 00                        	adcl	(%rax), %eax
    65bb: 00 00                        	addb	%al, (%rax)
    65bd: 00 00                        	addb	%al, (%rax)
    65bf: 00 bf a1 00 00 00            	addb	%bh, 161(%rdi)
    65c5: 00 00                        	addb	%al, (%rax)
    65c7: 00 07                        	addb	%al, (%rdi)
    65c9: 01 00                        	addl	%eax, (%rax)
    65cb: 00 a0 ff ff ff bf            	addb	%ah, -1073741825(%rax)
    65d1: a1 00 00 00 00 00 00 07 01   	movabsl	74027918874902528, %eax
    65da: 00 00                        	addb	%al, (%rax)
    65dc: d0 ff                        	sarb	%bh
    65de: ff ff                        	<unknown>
    65e0: 77 03                        	ja	0x65e5 <entrypoint+0x6045>
    65e2: 00 00                        	addb	%al, (%rax)
    65e4: 04 00                        	addb	$0, %al
    65e6: 00 00                        	addb	%al, (%rax)
    65e8: 79 a2                        	jns	0x658c <entrypoint+0x5fec>
    65ea: f0                           	lock
    65eb: ff 00                        	incl	(%rax)
    65ed: 00 00                        	addb	%al, (%rax)
    65ef: 00 3d 32 08 00 00            	addb	%bh, 2098(%rip)  # 6e27 <entrypoint+0x6887>
    65f5: 00 00                        	addb	%al, (%rax)
    65f7: 00 bf a1 00 00 00            	addb	%bh, 161(%rdi)
    65fd: 00 00                        	addb	%al, (%rax)
    65ff: 00 07                        	addb	%al, (%rdi)
    6601: 01 00                        	addl	%eax, (%rax)
    6603: 00 d0                        	addb	%dl, %al
    6605: ff ff                        	<unknown>
    6607: ff 85 10 00 00 52            	incl	1375731728(%rbp)
    660d: fb                           	sti
    660e: ff ff                        	<unknown>
    6610: 79 a1                        	jns	0x65b3 <entrypoint+0x6013>
    6612: f0                           	lock
    6613: ff 00                        	incl	(%rax)
    6615: 00 00                        	addb	%al, (%rax)
    6617: 00 07                        	addb	%al, (%rdi)
    6619: 01 00                        	addl	%eax, (%rax)
    661b: 00 01                        	addb	%al, (%rcx)
    661d: 00 00                        	addb	%al, (%rax)
    661f: 00 7b 1a                     	addb	%bh, 26(%rbx)
    6622: f0                           	lock
    6623: ff 00                        	incl	(%rax)
    6625: 00 00                        	addb	%al, (%rax)
    6627: 00 bf a1 00 00 00            	addb	%bh, 161(%rdi)
    662d: 00 00                        	addb	%al, (%rax)
    662f: 00 07                        	addb	%al, (%rdi)
    6631: 01 00                        	addl	%eax, (%rax)
    6633: 00 a0 ff ff ff 79            	addb	%ah, 2046820351(%rax)
    6639: a1 18 ff 00 00 00 00 3d 16   	movabsl	1602437042413829912, %eax
    6642: 0c 00                        	orb	$0, %al
    6644: 00 00                        	addb	%al, (%rax)
    6646: 00 00                        	addb	%al, (%rax)
    6648: 67 06                        	<unknown>
    664a: 00 00                        	addb	%al, (%rax)
    664c: 04 00                        	addb	$0, %al
    664e: 00 00                        	addb	%al, (%rax)
    6650: 79 a1                        	jns	0x65f3 <entrypoint+0x6053>
    6652: 10 ff                        	adcb	%bh, %bh
    6654: 00 00                        	addb	%al, (%rax)
    6656: 00 00                        	addb	%al, (%rax)
    6658: 0f 61 00                     	punpcklwd	(%rax), %mm0
    665b: 00 00                        	addb	%al, (%rax)
    665d: 00 00                        	addb	%al, (%rax)
    665f: 00 79 13                     	addb	%bh, 19(%rcx)
    6662: 08 00                        	orb	%al, (%rax)
    6664: 00 00                        	addb	%al, (%rax)
    6666: 00 00                        	addb	%al, (%rax)
    6668: 79 12                        	jns	0x667c <entrypoint+0x60dc>
    666a: 00 00                        	addb	%al, (%rax)
    666c: 00 00                        	addb	%al, (%rax)
    666e: 00 00                        	addb	%al, (%rax)
    6670: 79 a1                        	jns	0x6613 <entrypoint+0x6073>
    6672: 68 ff 00 00 00               	pushq	$255
    6677: 00 79 14                     	addb	%bh, 20(%rcx)
    667a: 18 00                        	sbbb	%al, (%rax)
    667c: 00 00                        	addb	%al, (%rax)
    667e: 00 00                        	addb	%al, (%rax)
    6680: 79 a1                        	jns	0x6623 <entrypoint+0x6083>
    6682: 60                           	<unknown>
    6683: ff 00                        	incl	(%rax)
    6685: 00 00                        	addb	%al, (%rax)
    6687: 00 8d 00 00 00 04            	addb	%cl, 67108864(%rbp)
    668d: 00 00                        	addb	%al, (%rax)
    668f: 00 bf 01 00 00 00            	addb	%bh, 1(%rdi)
    6695: 00 00                        	addb	%al, (%rax)
    6697: 00 b7 00 00 00 01            	addb	%dh, 16777216(%rdi)
    669d: 00 00                        	addb	%al, (%rax)
    669f: 00 55 01                     	addb	%dl, 1(%rbp)
    66a2: 01 00                        	addl	%eax, (%rax)
    66a4: 00 00                        	addb	%al, (%rax)
    66a6: 00 00                        	addb	%al, (%rax)
    66a8: b7 00                        	movb	$0, %bh
    66aa: 00 00                        	addb	%al, (%rax)
    66ac: 00 00                        	addb	%al, (%rax)
    66ae: 00 00                        	addb	%al, (%rax)
    66b0: 95                           	xchgl	%ebp, %eax
    66b1: 00 00                        	addb	%al, (%rax)
    66b3: 00 00                        	addb	%al, (%rax)
    66b5: 00 00                        	addb	%al, (%rax)
    66b7: 00 18                        	addb	%bl, (%rax)
    66b9: 01 00                        	addl	%eax, (%rax)
    66bb: 00 40 a5                     	addb	%al, -91(%rax)
		...
    66c6: 00 00                        	addb	%al, (%rax)
    66c8: 85 10                        	testl	%edx, (%rax)
    66ca: 00 00                        	addb	%al, (%rax)
    66cc: 1c 03                        	sbbb	$3, %al
    66ce: 00 00                        	addb	%al, (%rax)
    66d0: 85 10                        	testl	%edx, (%rax)
    66d2: 00 00                        	addb	%al, (%rax)
    66d4: ff ff                        	<unknown>
    66d6: ff ff                        	<unknown>
    66d8: 18 01                        	sbbb	%al, (%rcx)
    66da: 00 00                        	addb	%al, (%rax)
    66dc: 28 a5 00 00 00 00            	subb	%ah, (%rbp)
    66e2: 00 00                        	addb	%al, (%rax)
    66e4: 00 00                        	addb	%al, (%rax)
    66e6: 00 00                        	addb	%al, (%rax)
    66e8: 85 10                        	testl	%edx, (%rax)
    66ea: 00 00                        	addb	%al, (%rax)
    66ec: 18 03                        	sbbb	%al, (%rbx)
    66ee: 00 00                        	addb	%al, (%rax)
    66f0: 85 10                        	testl	%edx, (%rax)
    66f2: 00 00                        	addb	%al, (%rax)
    66f4: ff ff                        	<unknown>
    66f6: ff ff                        	<unknown>
    66f8: bf 47 00 00 00               	movl	$71, %edi
    66fd: 00 00                        	addb	%al, (%rax)
    66ff: 00 bf 28 00 00 00            	addb	%bh, 40(%rdi)
    6705: 00 00                        	addb	%al, (%rax)
    6707: 00 bf 16 00 00 00            	addb	%bh, 22(%rdi)
    670d: 00 00                        	addb	%al, (%rax)
    670f: 00 79 81                     	addb	%bh, -127(%rcx)
    6712: 20 00                        	andb	%al, (%rax)
    6714: 00 00                        	addb	%al, (%rax)
    6716: 00 00                        	addb	%al, (%rax)
    6718: 79 82                        	jns	0x669c <entrypoint+0x60fc>
    671a: 28 00                        	subb	%al, (%rax)
    671c: 00 00                        	addb	%al, (%rax)
    671e: 00 00                        	addb	%al, (%rax)
    6720: 7b 37                        	jnp	0x6759 <entrypoint+0x61b9>
    6722: 10 00                        	adcb	%al, (%rax)
    6724: 00 00                        	addb	%al, (%rax)
    6726: 00 00                        	addb	%al, (%rax)
    6728: 7b 27                        	jnp	0x6751 <entrypoint+0x61b1>
    672a: 08 00                        	orb	%al, (%rax)
    672c: 00 00                        	addb	%al, (%rax)
    672e: 00 00                        	addb	%al, (%rax)
    6730: 7b 17                        	jnp	0x6749 <entrypoint+0x61a9>
    6732: 00 00                        	addb	%al, (%rax)
    6734: 00 00                        	addb	%al, (%rax)
    6736: 00 00                        	addb	%al, (%rax)
    6738: 79 81                        	jns	0x66bb <entrypoint+0x611b>
    673a: 00 00                        	addb	%al, (%rax)
    673c: 00 00                        	addb	%al, (%rax)
    673e: 00 00                        	addb	%al, (%rax)
    6740: 7b 1a                        	jnp	0x675c <entrypoint+0x61bc>
    6742: e8 ff 00 00 00               	callq	0x6846 <entrypoint+0x62a6>
    6747: 00 79 81                     	addb	%bh, -127(%rcx)
    674a: 08 00                        	orb	%al, (%rax)
    674c: 00 00                        	addb	%al, (%rax)
    674e: 00 00                        	addb	%al, (%rax)
    6750: 7b 1a                        	jnp	0x676c <entrypoint+0x61cc>
    6752: e0 ff                        	loopne	0x6753 <entrypoint+0x61b3>
    6754: 00 00                        	addb	%al, (%rax)
    6756: 00 00                        	addb	%al, (%rax)
    6758: 79 81                        	jns	0x66db <entrypoint+0x613b>
    675a: 10 00                        	adcb	%al, (%rax)
    675c: 00 00                        	addb	%al, (%rax)
    675e: 00 00                        	addb	%al, (%rax)
    6760: 7b 1a                        	jnp	0x677c <entrypoint+0x61dc>
    6762: d8 ff                        	fdivr	%st(7), %st
    6764: 00 00                        	addb	%al, (%rax)
    6766: 00 00                        	addb	%al, (%rax)
    6768: 79 81                        	jns	0x66eb <entrypoint+0x614b>
    676a: 18 00                        	sbbb	%al, (%rax)
    676c: 00 00                        	addb	%al, (%rax)
    676e: 00 00                        	addb	%al, (%rax)
    6770: 7b 1a                        	jnp	0x678c <entrypoint+0x61ec>
    6772: d0 ff                        	sarb	%bh
    6774: 00 00                        	addb	%al, (%rax)
    6776: 00 00                        	addb	%al, (%rax)
    6778: 79 81                        	jns	0x66fb <entrypoint+0x615b>
    677a: 50                           	pushq	%rax
    677b: 00 00                        	addb	%al, (%rax)
    677d: 00 00                        	addb	%al, (%rax)
    677f: 00 7b 1a                     	addb	%bh, 26(%rbx)
    6782: c8 ff 00 00                  	enter	$255, $0
    6786: 00 00                        	addb	%al, (%rax)
    6788: 71 89                        	jno	0x6713 <entrypoint+0x6173>
    678a: 58                           	popq	%rax
    678b: 00 00                        	addb	%al, (%rax)
    678d: 00 00                        	addb	%al, (%rax)
    678f: 00 bf 82 00 00 00            	addb	%bh, 130(%rdi)
    6795: 00 00                        	addb	%al, (%rax)
    6797: 00 07                        	addb	%al, (%rdi)
    6799: 02 00                        	addb	(%rax), %al
    679b: 00 30                        	addb	%dh, (%rax)
    679d: 00 00                        	addb	%al, (%rax)
    679f: 00 bf a1 00 00 00            	addb	%bh, 161(%rdi)
    67a5: 00 00                        	addb	%al, (%rax)
    67a7: 00 07                        	addb	%al, (%rdi)
    67a9: 01 00                        	addl	%eax, (%rax)
    67ab: 00 f0                        	addb	%dh, %al
    67ad: ff ff                        	<unknown>
    67af: ff 85 10 00 00 0a            	incl	167772176(%rbp)
    67b5: fb                           	sti
    67b6: ff ff                        	<unknown>
    67b8: 79 81                        	jns	0x673b <entrypoint+0x619b>
    67ba: 40 00 00                     	addb	%al, (%rax)
    67bd: 00 00                        	addb	%al, (%rax)
    67bf: 00 79 82                     	addb	%bh, -126(%rcx)
    67c2: 48 00 00                     	addb	%al, (%rax)
    67c5: 00 00                        	addb	%al, (%rax)
    67c7: 00 79 a3                     	addb	%bh, -93(%rcx)
    67ca: f0                           	lock
    67cb: ff 00                        	incl	(%rax)
    67cd: 00 00                        	addb	%al, (%rax)
    67cf: 00 79 a4                     	addb	%bh, -92(%rcx)
    67d2: f8                           	clc
    67d3: ff 00                        	incl	(%rax)
    67d5: 00 00                        	addb	%al, (%rax)
    67d7: 00 73 96                     	addb	%dh, -106(%rbx)
    67da: 58                           	popq	%rax
    67db: 00 00                        	addb	%al, (%rax)
    67dd: 00 00                        	addb	%al, (%rax)
    67df: 00 79 a5                     	addb	%bh, -91(%rcx)
    67e2: c8 ff 00 00                  	enter	$255, $0
    67e6: 00 00                        	addb	%al, (%rax)
    67e8: 7b 56                        	jnp	0x6840 <entrypoint+0x62a0>
    67ea: 50                           	pushq	%rax
    67eb: 00 00                        	addb	%al, (%rax)
    67ed: 00 00                        	addb	%al, (%rax)
    67ef: 00 7b 26                     	addb	%bh, 38(%rbx)
    67f2: 48 00 00                     	addb	%al, (%rax)
    67f5: 00 00                        	addb	%al, (%rax)
    67f7: 00 7b 16                     	addb	%bh, 22(%rbx)
    67fa: 40 00 00                     	addb	%al, (%rax)
    67fd: 00 00                        	addb	%al, (%rax)
    67ff: 00 7b 46                     	addb	%bh, 70(%rbx)
    6802: 38 00                        	cmpb	%al, (%rax)
    6804: 00 00                        	addb	%al, (%rax)
    6806: 00 00                        	addb	%al, (%rax)
    6808: 7b 36                        	jnp	0x6840 <entrypoint+0x62a0>
    680a: 30 00                        	xorb	%al, (%rax)
    680c: 00 00                        	addb	%al, (%rax)
    680e: 00 00                        	addb	%al, (%rax)
    6810: 18 01                        	sbbb	%al, (%rcx)
    6812: 00 00                        	addb	%al, (%rax)
    6814: f8                           	clc
    6815: a4                           	movsb	(%rsi), %es:(%rdi)
		...
    681e: 00 00                        	addb	%al, (%rax)
    6820: 7b 16                        	jnp	0x6838 <entrypoint+0x6298>
    6822: 28 00                        	subb	%al, (%rax)
    6824: 00 00                        	addb	%al, (%rax)
    6826: 00 00                        	addb	%al, (%rax)
    6828: 7b 76                        	jnp	0x68a0 <entrypoint+0x6300>
    682a: 20 00                        	andb	%al, (%rax)
    682c: 00 00                        	addb	%al, (%rax)
    682e: 00 00                        	addb	%al, (%rax)
    6830: 79 a1                        	jns	0x67d3 <entrypoint+0x6233>
    6832: d0 ff                        	sarb	%bh
    6834: 00 00                        	addb	%al, (%rax)
    6836: 00 00                        	addb	%al, (%rax)
    6838: 7b 16                        	jnp	0x6850 <entrypoint+0x62b0>
    683a: 18 00                        	sbbb	%al, (%rax)
    683c: 00 00                        	addb	%al, (%rax)
    683e: 00 00                        	addb	%al, (%rax)
    6840: 79 a1                        	jns	0x67e3 <entrypoint+0x6243>
    6842: d8 ff                        	fdivr	%st(7), %st
    6844: 00 00                        	addb	%al, (%rax)
    6846: 00 00                        	addb	%al, (%rax)
    6848: 7b 16                        	jnp	0x6860 <entrypoint+0x62c0>
    684a: 10 00                        	adcb	%al, (%rax)
    684c: 00 00                        	addb	%al, (%rax)
    684e: 00 00                        	addb	%al, (%rax)
    6850: 79 a1                        	jns	0x67f3 <entrypoint+0x6253>
    6852: e0 ff                        	loopne	0x6853 <entrypoint+0x62b3>
    6854: 00 00                        	addb	%al, (%rax)
    6856: 00 00                        	addb	%al, (%rax)
    6858: 7b 16                        	jnp	0x6870 <entrypoint+0x62d0>
    685a: 08 00                        	orb	%al, (%rax)
    685c: 00 00                        	addb	%al, (%rax)
    685e: 00 00                        	addb	%al, (%rax)
    6860: 79 a1                        	jns	0x6803 <entrypoint+0x6263>
    6862: e8 ff 00 00 00               	callq	0x6966 <entrypoint+0x63c6>
    6867: 00 7b 16                     	addb	%bh, 22(%rbx)
    686a: 00 00                        	addb	%al, (%rax)
    686c: 00 00                        	addb	%al, (%rax)
    686e: 00 00                        	addb	%al, (%rax)
    6870: 95                           	xchgl	%ebp, %eax
    6871: 00 00                        	addb	%al, (%rax)
    6873: 00 00                        	addb	%al, (%rax)
    6875: 00 00                        	addb	%al, (%rax)
    6877: 00 bf 37 00 00 00            	addb	%bh, 55(%rdi)
    687d: 00 00                        	addb	%al, (%rax)
    687f: 00 bf 16 00 00 00            	addb	%bh, 22(%rdi)
    6885: 00 00                        	addb	%al, (%rax)
    6887: 00 79 59                     	addb	%bh, 89(%rcx)
    688a: 08 f0                        	orb	%dh, %al
    688c: 00 00                        	addb	%al, (%rax)
    688e: 00 00                        	addb	%al, (%rax)
    6890: 79 51                        	jns	0x68e3 <entrypoint+0x6343>
    6892: 00 f0                        	addb	%dh, %al
    6894: 00 00                        	addb	%al, (%rax)
    6896: 00 00                        	addb	%al, (%rax)
    6898: 7b 1a                        	jnp	0x68b4 <entrypoint+0x6314>
    689a: a0 ff 00 00 00 00 15 02 08   	movabsb	577046792001028351, %al
    68a3: 00 00                        	addb	%al, (%rax)
    68a5: 00 00                        	addb	%al, (%rax)
    68a7: 00 61 61                     	addb	%ah, 97(%rcx)
    68aa: 50                           	pushq	%rax
    68ab: 00 00                        	addb	%al, (%rax)
    68ad: 00 00                        	addb	%al, (%rax)
    68af: 00 bf 18 00 00 00            	addb	%bh, 24(%rdi)
    68b5: 00 00                        	addb	%al, (%rax)
    68b7: 00 57 08                     	addb	%dl, 8(%rdi)
    68ba: 00 00                        	addb	%al, (%rax)
    68bc: 01 00                        	addl	%eax, (%rax)
    68be: 00 00                        	addb	%al, (%rax)
    68c0: b7 02                        	movb	$2, %bh
    68c2: 00 00                        	addb	%al, (%rax)
    68c4: 00 00                        	addb	%al, (%rax)
    68c6: 11 00                        	adcl	%eax, (%rax)
    68c8: 15 08 01 00 00               	adcl	$264, %eax
    68cd: 00 00                        	addb	%al, (%rax)
    68cf: 00 b7 02 00 00 2b            	addb	%dh, 721420290(%rdi)
    68d5: 00 00                        	addb	%al, (%rax)
    68d7: 00 0f                        	addb	%cl, (%rdi)
    68d9: 98                           	cwtl
    68da: 00 00                        	addb	%al, (%rax)
    68dc: 00 00                        	addb	%al, (%rax)
    68de: 00 00                        	addb	%al, (%rax)
    68e0: 05 00 04 00 00               	addl	$1024, %eax
    68e5: 00 00                        	addb	%al, (%rax)
    68e7: 00 b7 02 00 00 2d            	addb	%dh, 754974722(%rdi)
    68ed: 00 00                        	addb	%al, (%rax)
    68ef: 00 61 61                     	addb	%ah, 97(%rcx)
    68f2: 50                           	pushq	%rax
    68f3: 00 00                        	addb	%al, (%rax)
    68f5: 00 00                        	addb	%al, (%rax)
    68f7: 00 bf 98 00 00 00            	addb	%bh, 152(%rdi)
    68fd: 00 00                        	addb	%al, (%rax)
    68ff: 00 07                        	addb	%al, (%rdi)
    6901: 08 00                        	orb	%al, (%rax)
    6903: 00 01                        	addb	%al, (%rcx)
    6905: 00 00                        	addb	%al, (%rax)
    6907: 00 b7 03 00 00 00            	addb	%dh, 3(%rdi)
    690d: 00 00                        	addb	%al, (%rax)
    690f: 00 57 01                     	addb	%dl, 1(%rdi)
    6912: 00 00                        	addb	%al, (%rax)
    6914: 04 00                        	addb	$0, %al
    6916: 00 00                        	addb	%al, (%rax)
    6918: 15 01 1d 00 00               	adcl	$7425, %eax
    691d: 00 00                        	addb	%al, (%rax)
    691f: 00 7b 2a                     	addb	%bh, 42(%rbx)
    6922: 90                           	nop
    6923: ff 00                        	incl	(%rax)
    6925: 00 00                        	addb	%al, (%rax)
    6927: 00 bf 73 00 00 00            	addb	%bh, 115(%rdi)
    692d: 00 00                        	addb	%al, (%rax)
    692f: 00 7b 4a                     	addb	%bh, 74(%rbx)
    6932: 98                           	cwtl
    6933: ff 00                        	incl	(%rax)
    6935: 00 00                        	addb	%al, (%rax)
    6937: 00 0f                        	addb	%cl, (%rdi)
    6939: 43 00 00                     	addb	%al, (%r8)
    693c: 00 00                        	addb	%al, (%rax)
    693e: 00 00                        	addb	%al, (%rax)
    6940: bf a1 00 00 00               	movl	$161, %edi
    6945: 00 00                        	addb	%al, (%rax)
    6947: 00 07                        	addb	%al, (%rdi)
    6949: 01 00                        	addl	%eax, (%rax)
    694b: 00 f0                        	addb	%dh, %al
    694d: ff ff                        	<unknown>
    694f: ff bf 72 00 00 00            	<unknown>
    6955: 00 00                        	addb	%al, (%rax)
    6957: 00 85 10 00 00 4b            	addb	%al, 1258291216(%rbp)
    695d: fa                           	cli
    695e: ff ff                        	<unknown>
    6960: b7 01                        	movb	$1, %bh
    6962: 00 00                        	addb	%al, (%rax)
    6964: 00 00                        	addb	%al, (%rax)
    6966: 00 00                        	addb	%al, (%rax)
    6968: 79 a2                        	jns	0x690c <entrypoint+0x636c>
    696a: f8                           	clc
    696b: ff 00                        	incl	(%rax)
    696d: 00 00                        	addb	%al, (%rax)
    696f: 00 79 a3                     	addb	%bh, -93(%rcx)
    6972: f0                           	lock
    6973: ff 00                        	incl	(%rax)
    6975: 00 00                        	addb	%al, (%rax)
    6977: 00 1d 23 05 00 00            	addb	%bl, 1315(%rip)  # 6ea0 <entrypoint+0x6900>
    697d: 00 00                        	addb	%al, (%rax)
    697f: 00 b7 01 00 00 00            	addb	%dh, 1(%rdi)
    6985: 00 00                        	addb	%al, (%rax)
    6987: 00 05 00 09 00 00            	addb	%al, 2304(%rip)  # 728d <entrypoint+0x6ced>
    698d: 00 00                        	addb	%al, (%rax)
    698f: 00 0f                        	addb	%cl, (%rdi)
    6991: 41 00 00                     	addb	%al, (%r8)
    6994: 00 00                        	addb	%al, (%rax)
    6996: 00 00                        	addb	%al, (%rax)
    6998: 07                           	<unknown>
    6999: 03 00                        	addl	(%rax), %eax
    699b: 00 01                        	addb	%al, (%rcx)
    699d: 00 00                        	addb	%al, (%rax)
    699f: 00 5d 32                     	addb	%bl, 50(%rbp)
    69a2: 06                           	<unknown>
    69a3: 00 00                        	addb	%al, (%rax)
    69a5: 00 00                        	addb	%al, (%rax)
    69a7: 00 79 a4                     	addb	%bh, -92(%rcx)
    69aa: 98                           	cwtl
    69ab: ff 00                        	incl	(%rax)
    69ad: 00 00                        	addb	%al, (%rax)
    69af: 00 0f                        	addb	%cl, (%rdi)
    69b1: 48 00 00                     	addb	%al, (%rax)
    69b4: 00 00                        	addb	%al, (%rax)
    69b6: 00 00                        	addb	%al, (%rax)
    69b8: 1f                           	<unknown>
    69b9: 18 00                        	sbbb	%al, (%rax)
    69bb: 00 00                        	addb	%al, (%rax)
    69bd: 00 00                        	addb	%al, (%rax)
    69bf: 00 bf 73 00 00 00            	addb	%bh, 115(%rdi)
    69c5: 00 00                        	addb	%al, (%rax)
    69c7: 00 79 a2                     	addb	%bh, -94(%rcx)
    69ca: 90                           	nop
    69cb: ff 00                        	incl	(%rax)
    69cd: 00 00                        	addb	%al, (%rax)
    69cf: 00 05 00 06 00 00            	addb	%al, 1536(%rip)  # 6fd5 <entrypoint+0x6a35>
    69d5: 00 00                        	addb	%al, (%rax)
    69d7: 00 71 35                     	addb	%dh, 53(%rcx)
    69da: 00 00                        	addb	%al, (%rax)
    69dc: 00 00                        	addb	%al, (%rax)
    69de: 00 00                        	addb	%al, (%rax)
    69e0: 57                           	pushq	%rdi
    69e1: 05 00 00 c0 00               	addl	$12582912, %eax
    69e6: 00 00                        	addb	%al, (%rax)
    69e8: b7 04                        	movb	$4, %bh
    69ea: 00 00                        	addb	%al, (%rax)
    69ec: 01 00                        	addl	%eax, (%rax)
    69ee: 00 00                        	addb	%al, (%rax)
    69f0: 15 05 f3 ff 80               	adcl	$2164257541, %eax
    69f5: 00 00                        	addb	%al, (%rax)
    69f7: 00 b7 04 00 00 00            	addb	%dh, 4(%rdi)
    69fd: 00 00                        	addb	%al, (%rax)
    69ff: 00 05 00 f1 ff 00            	addb	%al, 16773376(%rip)  # 1005b05
    6a05: 00 00                        	addb	%al, (%rax)
    6a07: 00 79 61                     	addb	%bh, 97(%rcx)
    6a0a: 00 00                        	addb	%al, (%rax)
    6a0c: 00 00                        	addb	%al, (%rax)
    6a0e: 00 00                        	addb	%al, (%rax)
    6a10: 15 01 06 00 01               	adcl	$16778753, %eax
    6a15: 00 00                        	addb	%al, (%rax)
    6a17: 00 bf 61 00 00 00            	addb	%bh, 97(%rdi)
    6a1d: 00 00                        	addb	%al, (%rax)
    6a1f: 00 85 10 00 00 df            	addb	%al, -553648112(%rbp)
    6a25: 00 00                        	addb	%al, (%rax)
    6a27: 00 b7 07 00 00 01            	addb	%dh, 16777223(%rdi)
    6a2d: 00 00                        	addb	%al, (%rax)
    6a2f: 00 15 00 08 00 00            	addb	%dl, 2048(%rip)  # 7235 <entrypoint+0x6c95>
    6a35: 00 00                        	addb	%al, (%rax)
    6a37: 00 bf 70 00 00 00            	addb	%bh, 112(%rdi)
    6a3d: 00 00                        	addb	%al, (%rax)
    6a3f: 00 95 00 00 00 00            	addb	%dl, (%rbp)
    6a45: 00 00                        	addb	%al, (%rax)
    6a47: 00 79 65                     	addb	%bh, 101(%rcx)
    6a4a: 08 00                        	orb	%al, (%rax)
    6a4c: 00 00                        	addb	%al, (%rax)
    6a4e: 00 00                        	addb	%al, (%rax)
    6a50: 2d 85 0c 00 00               	subl	$3205, %eax
    6a55: 00 00                        	addb	%al, (%rax)
    6a57: 00 bf 61 00 00 00            	addb	%bh, 97(%rdi)
    6a5d: 00 00                        	addb	%al, (%rax)
    6a5f: 00 85 10 00 00 d7            	addb	%al, -687865840(%rbp)
    6a65: 00 00                        	addb	%al, (%rax)
    6a67: 00 b7 07 00 00 01            	addb	%dh, 16777223(%rdi)
    6a6d: 00 00                        	addb	%al, (%rax)
    6a6f: 00 55 00                     	addb	%dl, (%rbp)
    6a72: f8                           	clc
    6a73: ff 00                        	incl	(%rax)
    6a75: 00 00                        	addb	%al, (%rax)
    6a77: 00 79 61                     	addb	%bh, 97(%rcx)
    6a7a: 20 00                        	andb	%al, (%rax)
    6a7c: 00 00                        	addb	%al, (%rax)
    6a7e: 00 00                        	addb	%al, (%rax)
    6a80: 79 62                        	jns	0x6ae4 <entrypoint+0x6544>
    6a82: 28 00                        	subb	%al, (%rax)
    6a84: 00 00                        	addb	%al, (%rax)
    6a86: 00 00                        	addb	%al, (%rax)
    6a88: 79 24                        	jns	0x6aae <entrypoint+0x650e>
    6a8a: 18 00                        	sbbb	%al, (%rax)
    6a8c: 00 00                        	addb	%al, (%rax)
    6a8e: 00 00                        	addb	%al, (%rax)
    6a90: 79 a2                        	jns	0x6a34 <entrypoint+0x6494>
    6a92: a0 ff 00 00 00 00 bf 93 00   	movabsb	41586828297371903, %al
    6a9b: 00 00                        	addb	%al, (%rax)
    6a9d: 00 00                        	addb	%al, (%rax)
    6a9f: 00 8d 00 00 00 04            	addb	%cl, 67108864(%rbp)
    6aa5: 00 00                        	addb	%al, (%rax)
    6aa7: 00 bf 07 00 00 00            	addb	%bh, 7(%rdi)
    6aad: 00 00                        	addb	%al, (%rax)
    6aaf: 00 05 00 f0 ff 00            	addb	%al, 16773120(%rip)  # 1005ab5
    6ab5: 00 00                        	addb	%al, (%rax)
    6ab7: 00 71 61                     	addb	%dh, 97(%rcx)
    6aba: 50                           	pushq	%rax
    6abb: 00 00                        	addb	%al, (%rax)
    6abd: 00 00                        	addb	%al, (%rax)
    6abf: 00 57 01                     	addb	%dl, 1(%rdi)
    6ac2: 00 00                        	addb	%al, (%rax)
    6ac4: 08 00                        	orb	%al, (%rax)
    6ac6: 00 00                        	addb	%al, (%rax)
    6ac8: 7b 9a                        	jnp	0x6a64 <entrypoint+0x64c4>
    6aca: 80 ff 00                     	cmpb	$0, %bh
    6acd: 00 00                        	addb	%al, (%rax)
    6acf: 00 15 01 01 00 00            	addb	%dl, 257(%rip)  # 6bd6 <entrypoint+0x6636>
    6ad5: 00 00                        	addb	%al, (%rax)
    6ad7: 00 05 00 0e 00 00            	addb	%al, 3584(%rip)  # 78dd <entrypoint+0x733d>
    6add: 00 00                        	addb	%al, (%rax)
    6adf: 00 71 60                     	addb	%dh, 96(%rcx)
    6ae2: 58                           	popq	%rax
    6ae3: 00 00                        	addb	%al, (%rax)
    6ae5: 00 00                        	addb	%al, (%rax)
    6ae7: 00 b7 01 00 00 01            	addb	%dh, 16777217(%rdi)
    6aed: 00 00                        	addb	%al, (%rax)
    6aef: 00 15 00 01 00 03            	addb	%dl, 50331904(%rip)  # 3006bf5
    6af5: 00 00                        	addb	%al, (%rax)
    6af7: 00 bf 01 00 00 00            	addb	%bh, 1(%rdi)
    6afd: 00 00                        	addb	%al, (%rax)
    6aff: 00 1f                        	addb	%bl, (%rdi)
    6b01: 85 00                        	testl	%eax, (%rax)
    6b03: 00 00                        	addb	%al, (%rax)
    6b05: 00 00                        	addb	%al, (%rax)
    6b07: 00 7b 4a                     	addb	%bh, 74(%rbx)
    6b0a: 98                           	cwtl
    6b0b: ff 00                        	incl	(%rax)
    6b0d: 00 00                        	addb	%al, (%rax)
    6b0f: 00 7b 2a                     	addb	%bh, 42(%rbx)
    6b12: 90                           	nop
    6b13: ff 00                        	incl	(%rax)
    6b15: 00 00                        	addb	%al, (%rax)
    6b17: 00 7b 3a                     	addb	%bh, 58(%rbx)
    6b1a: 78 ff                        	js	0x6b1b <entrypoint+0x657b>
    6b1c: 00 00                        	addb	%al, (%rax)
    6b1e: 00 00                        	addb	%al, (%rax)
    6b20: 65 01 19                     	addl	%ebx, %gs:(%rcx)
    6b23: 00 01                        	addb	%al, (%rcx)
    6b25: 00 00                        	addb	%al, (%rax)
    6b27: 00 b7 03 00 00 00            	addb	%dh, 3(%rdi)
    6b2d: 00 00                        	addb	%al, (%rax)
    6b2f: 00 15 01 1f 00 00            	addb	%dl, 7937(%rip)  # 8a36
    6b35: 00 00                        	addb	%al, (%rax)
    6b37: 00 bf 53 00 00 00            	addb	%bh, 83(%rdi)
    6b3d: 00 00                        	addb	%al, (%rax)
    6b3f: 00 b7 05 00 00 00            	addb	%dh, 5(%rdi)
    6b45: 00 00                        	addb	%al, (%rax)
    6b47: 00 05 00 1c 00 00            	addb	%al, 7168(%rip)  # 874d
    6b4d: 00 00                        	addb	%al, (%rax)
    6b4f: 00 7b 5a                     	addb	%bh, 90(%rbx)
    6b52: 88 ff                        	movb	%bh, %bh
    6b54: 00 00                        	addb	%al, (%rax)
    6b56: 00 00                        	addb	%al, (%rax)
    6b58: b7 01                        	movb	$1, %bh
    6b5a: 00 00                        	addb	%al, (%rax)
    6b5c: 30 00                        	xorb	%al, (%rax)
    6b5e: 00 00                        	addb	%al, (%rax)
    6b60: 63 16                        	movslq	(%rsi), %edx
    6b62: 54                           	pushq	%rsp
    6b63: 00 00                        	addb	%al, (%rax)
    6b65: 00 00                        	addb	%al, (%rax)
    6b67: 00 b7 07 00 00 01            	addb	%dh, 16777223(%rdi)
    6b6d: 00 00                        	addb	%al, (%rax)
    6b6f: 00 73 76                     	addb	%dh, 118(%rbx)
    6b72: 58                           	popq	%rax
    6b73: 00 00                        	addb	%al, (%rax)
    6b75: 00 00                        	addb	%al, (%rax)
    6b77: 00 bf 61 00 00 00            	addb	%bh, 97(%rdi)
    6b7d: 00 00                        	addb	%al, (%rax)
    6b7f: 00 85 10 00 00 b3            	addb	%al, -1291845616(%rbp)
    6b85: 00 00                        	addb	%al, (%rax)
    6b87: 00 55 00                     	addb	%dl, (%rbp)
    6b8a: d5                           	<unknown>
    6b8b: ff 00                        	incl	(%rax)
    6b8d: 00 00                        	addb	%al, (%rax)
    6b8f: 00 71 62                     	addb	%dh, 98(%rcx)
    6b92: 58                           	popq	%rax
    6b93: 00 00                        	addb	%al, (%rax)
    6b95: 00 00                        	addb	%al, (%rax)
    6b97: 00 b7 01 00 00 01            	addb	%dh, 16777217(%rdi)
    6b9d: 00 00                        	addb	%al, (%rax)
    6b9f: 00 15 02 01 00 03            	addb	%dl, 50331906(%rip)  # 3006ca7
    6ba5: 00 00                        	addb	%al, (%rax)
    6ba7: 00 bf 21 00 00 00            	addb	%bh, 33(%rdi)
    6bad: 00 00                        	addb	%al, (%rax)
    6baf: 00 79 a2                     	addb	%bh, -94(%rcx)
    6bb2: 88 ff                        	movb	%bh, %bh
    6bb4: 00 00                        	addb	%al, (%rax)
    6bb6: 00 00                        	addb	%al, (%rax)
    6bb8: 1f                           	<unknown>
    6bb9: 82                           	<unknown>
    6bba: 00 00                        	addb	%al, (%rax)
    6bbc: 00 00                        	addb	%al, (%rax)
    6bbe: 00 00                        	addb	%al, (%rax)
    6bc0: 65 01 07                     	addl	%eax, %gs:(%rdi)
    6bc3: 00 01                        	addb	%al, (%rcx)
    6bc5: 00 00                        	addb	%al, (%rax)
    6bc7: 00 b7 03 00 00 00            	addb	%dh, 3(%rdi)
    6bcd: 00 00                        	addb	%al, (%rax)
    6bcf: 00 15 01 5f 00 00            	addb	%dl, 24321(%rip)  # cad6
    6bd5: 00 00                        	addb	%al, (%rax)
    6bd7: 00 bf 23 00 00 00            	addb	%bh, 35(%rdi)
    6bdd: 00 00                        	addb	%al, (%rax)
    6bdf: 00 b7 02 00 00 00            	addb	%dh, 2(%rdi)
    6be5: 00 00                        	addb	%al, (%rax)
    6be7: 00 05 00 5c 00 00            	addb	%al, 23552(%rip)  # c7ed
    6bed: 00 00                        	addb	%al, (%rax)
    6bef: 00 15 01 03 00 02            	addb	%dl, 33555201(%rip)  # 2006ef6
    6bf5: 00 00                        	addb	%al, (%rax)
    6bf7: 00 05 00 e7 ff 00            	addb	%al, 16770816(%rip)  # 10052fd
    6bfd: 00 00                        	addb	%al, (%rax)
    6bff: 00 15 01 55 00 02            	addb	%dl, 33576193(%rip)  # 200c106
    6c05: 00 00                        	addb	%al, (%rax)
    6c07: 00 05 00 f9 ff 00            	addb	%al, 16775424(%rip)  # 100650d
    6c0d: 00 00                        	addb	%al, (%rax)
    6c0f: 00 bf 53 00 00 00            	addb	%bh, 83(%rdi)
    6c15: 00 00                        	addb	%al, (%rax)
    6c17: 00 77 03                     	addb	%dh, 3(%rdi)
    6c1a: 00 00                        	addb	%al, (%rax)
    6c1c: 01 00                        	addl	%eax, (%rax)
    6c1e: 00 00                        	addb	%al, (%rax)
    6c20: 07                           	<unknown>
    6c21: 05 00 00 01 00               	addl	$65536, %eax
    6c26: 00 00                        	addb	%al, (%rax)
    6c28: 77 05                        	ja	0x6c2f <entrypoint+0x668f>
    6c2a: 00 00                        	addb	%al, (%rax)
    6c2c: 01 00                        	addl	%eax, (%rax)
    6c2e: 00 00                        	addb	%al, (%rax)
    6c30: 7b 5a                        	jnp	0x6c8c <entrypoint+0x66ec>
    6c32: 88 ff                        	movb	%bh, %bh
    6c34: 00 00                        	addb	%al, (%rax)
    6c36: 00 00                        	addb	%al, (%rax)
    6c38: bf a1 00 00 00               	movl	$161, %edi
    6c3d: 00 00                        	addb	%al, (%rax)
    6c3f: 00 07                        	addb	%al, (%rdi)
    6c41: 01 00                        	addl	%eax, (%rax)
    6c43: 00 c0                        	addb	%al, %al
    6c45: ff ff                        	<unknown>
    6c47: ff b7 02 00 00 00            	pushq	2(%rdi)
    6c4d: 00 00                        	addb	%al, (%rax)
    6c4f: 00 85 10 00 00 46            	addb	%al, 1174405136(%rbp)
    6c55: f7 ff                        	idivl	%edi
    6c57: ff 79 a1                     	<unknown>
    6c5a: c8 ff 00 00                  	enter	$255, $0
    6c5e: 00 00                        	addb	%al, (%rax)
    6c60: 7b 1a                        	jnp	0x6c7c <entrypoint+0x66dc>
    6c62: a8 ff                        	testb	$-1, %al
    6c64: 00 00                        	addb	%al, (%rax)
    6c66: 00 00                        	addb	%al, (%rax)
    6c68: 79 a9                        	jns	0x6c13 <entrypoint+0x6673>
    6c6a: c0 ff 00                     	sarb	$0, %bh
    6c6d: 00 00                        	addb	%al, (%rax)
    6c6f: 00 05 00 0a 00 00            	addb	%al, 2560(%rip)  # 7675 <entrypoint+0x70d5>
    6c75: 00 00                        	addb	%al, (%rax)
    6c77: 00 57 07                     	addb	%dl, 7(%rdi)
    6c7a: 00 00                        	addb	%al, (%rax)
    6c7c: 01 00                        	addl	%eax, (%rax)
    6c7e: 00 00                        	addb	%al, (%rax)
    6c80: 55                           	pushq	%rbp
    6c81: 07                           	<unknown>
    6c82: 12 00                        	adcb	(%rax), %al
    6c84: 00 00                        	addb	%al, (%rax)
    6c86: 00 00                        	addb	%al, (%rax)
    6c88: 61                           	<unknown>
    6c89: 62                           	<unknown>
    6c8a: 54                           	pushq	%rsp
    6c8b: 00 00                        	addb	%al, (%rax)
    6c8d: 00 00                        	addb	%al, (%rax)
    6c8f: 00 79 61                     	addb	%bh, 97(%rcx)
    6c92: 20 00                        	andb	%al, (%rax)
    6c94: 00 00                        	addb	%al, (%rax)
    6c96: 00 00                        	addb	%al, (%rax)
    6c98: 79 63                        	jns	0x6cfd <entrypoint+0x675d>
    6c9a: 28 00                        	subb	%al, (%rax)
    6c9c: 00 00                        	addb	%al, (%rax)
    6c9e: 00 00                        	addb	%al, (%rax)
    6ca0: 79 33                        	jns	0x6cd5 <entrypoint+0x6735>
    6ca2: 20 00                        	andb	%al, (%rax)
    6ca4: 00 00                        	addb	%al, (%rax)
    6ca6: 00 00                        	addb	%al, (%rax)
    6ca8: 8d 00                        	leal	(%rax), %eax
    6caa: 00 00                        	addb	%al, (%rax)
    6cac: 03 00                        	addl	(%rax), %eax
    6cae: 00 00                        	addb	%al, (%rax)
    6cb0: b7 07                        	movb	$7, %bh
    6cb2: 00 00                        	addb	%al, (%rax)
    6cb4: 01 00                        	addl	%eax, (%rax)
    6cb6: 00 00                        	addb	%al, (%rax)
    6cb8: bf 89 00 00 00               	movl	$137, %edi
    6cbd: 00 00                        	addb	%al, (%rax)
    6cbf: 00 55 00                     	addb	%dl, (%rbp)
    6cc2: ae                           	scasb	%es:(%rdi), %al
    6cc3: ff 00                        	incl	(%rax)
    6cc5: 00 00                        	addb	%al, (%rax)
    6cc7: 00 79 a1                     	addb	%bh, -95(%rcx)
    6cca: a8 ff                        	testb	$-1, %al
    6ccc: 00 00                        	addb	%al, (%rax)
    6cce: 00 00                        	addb	%al, (%rax)
    6cd0: 3d 19 08 00 00               	cmpl	$2073, %eax
    6cd5: 00 00                        	addb	%al, (%rax)
    6cd7: 00 b7 07 00 00 01            	addb	%dh, 16777223(%rdi)
    6cdd: 00 00                        	addb	%al, (%rax)
    6cdf: 00 b7 01 00 00 01            	addb	%dh, 16777217(%rdi)
    6ce5: 00 00                        	addb	%al, (%rax)
    6ce7: 00 85 10 00 00 3b            	addb	%al, 989855760(%rbp)
    6ced: 02 00                        	addb	(%rax), %al
    6cef: 00 bf 98 00 00 00            	addb	%bh, 152(%rdi)
    6cf5: 00 00                        	addb	%al, (%rax)
    6cf7: 00 0f                        	addb	%cl, (%rdi)
    6cf9: 08 00                        	orb	%al, (%rax)
    6cfb: 00 00                        	addb	%al, (%rax)
    6cfd: 00 00                        	addb	%al, (%rax)
    6cff: 00 2d 89 ee ff 00            	addb	%ch, 16772745(%rip)  # 1005b8e
    6d05: 00 00                        	addb	%al, (%rax)
    6d07: 00 b7 07 00 00 00            	addb	%dh, 7(%rdi)
    6d0d: 00 00                        	addb	%al, (%rax)
    6d0f: 00 05 00 ec ff 00            	addb	%al, 16772096(%rip)  # 1005915
    6d15: 00 00                        	addb	%al, (%rax)
    6d17: 00 61 61                     	addb	%ah, 97(%rcx)
    6d1a: 54                           	pushq	%rsp
    6d1b: 00 00                        	addb	%al, (%rax)
    6d1d: 00 00                        	addb	%al, (%rax)
    6d1f: 00 7b 1a                     	addb	%bh, 26(%rbx)
    6d22: a8 ff                        	testb	$-1, %al
    6d24: 00 00                        	addb	%al, (%rax)
    6d26: 00 00                        	addb	%al, (%rax)
    6d28: bf 61 00 00 00               	movl	$97, %edi
    6d2d: 00 00                        	addb	%al, (%rax)
    6d2f: 00 79 a2                     	addb	%bh, -94(%rcx)
    6d32: 90                           	nop
    6d33: ff 00                        	incl	(%rax)
    6d35: 00 00                        	addb	%al, (%rax)
    6d37: 00 79 a3                     	addb	%bh, -93(%rcx)
    6d3a: 78 ff                        	js	0x6d3b <entrypoint+0x679b>
    6d3c: 00 00                        	addb	%al, (%rax)
    6d3e: 00 00                        	addb	%al, (%rax)
    6d40: 79 a4                        	jns	0x6ce6 <entrypoint+0x6746>
    6d42: 98                           	cwtl
    6d43: ff 00                        	incl	(%rax)
    6d45: 00 00                        	addb	%al, (%rax)
    6d47: 00 85 10 00 00 7a            	addb	%al, 2046820368(%rbp)
    6d4d: 00 00                        	addb	%al, (%rax)
    6d4f: 00 b7 07 00 00 01            	addb	%dh, 16777223(%rdi)
    6d55: 00 00                        	addb	%al, (%rax)
    6d57: 00 55 00                     	addb	%dl, (%rbp)
    6d5a: 9b                           	wait
    6d5b: ff 00                        	incl	(%rax)
    6d5d: 00 00                        	addb	%al, (%rax)
    6d5f: 00 79 61                     	addb	%bh, 97(%rcx)
    6d62: 20 00                        	andb	%al, (%rax)
    6d64: 00 00                        	addb	%al, (%rax)
    6d66: 00 00                        	addb	%al, (%rax)
    6d68: 79 62                        	jns	0x6dcc <entrypoint+0x682c>
    6d6a: 28 00                        	subb	%al, (%rax)
    6d6c: 00 00                        	addb	%al, (%rax)
    6d6e: 00 00                        	addb	%al, (%rax)
    6d70: 79 24                        	jns	0x6d96 <entrypoint+0x67f6>
    6d72: 18 00                        	sbbb	%al, (%rax)
    6d74: 00 00                        	addb	%al, (%rax)
    6d76: 00 00                        	addb	%al, (%rax)
    6d78: 79 a2                        	jns	0x6d1c <entrypoint+0x677c>
    6d7a: a0 ff 00 00 00 00 79 a3 80   	movabsb	-9177358574743977729, %al
    6d83: ff 00                        	incl	(%rax)
    6d85: 00 00                        	addb	%al, (%rax)
    6d87: 00 8d 00 00 00 04            	addb	%cl, 67108864(%rbp)
    6d8d: 00 00                        	addb	%al, (%rax)
    6d8f: 00 55 00                     	addb	%dl, (%rbp)
    6d92: 94                           	xchgl	%esp, %eax
    6d93: ff 00                        	incl	(%rax)
    6d95: 00 00                        	addb	%al, (%rax)
    6d97: 00 79 61                     	addb	%bh, 97(%rcx)
    6d9a: 28 00                        	subb	%al, (%rax)
    6d9c: 00 00                        	addb	%al, (%rax)
    6d9e: 00 00                        	addb	%al, (%rax)
    6da0: 7b 1a                        	jnp	0x6dbc <entrypoint+0x681c>
    6da2: 98                           	cwtl
    6da3: ff 00                        	incl	(%rax)
    6da5: 00 00                        	addb	%al, (%rax)
    6da7: 00 79 61                     	addb	%bh, 97(%rcx)
    6daa: 20 00                        	andb	%al, (%rax)
    6dac: 00 00                        	addb	%al, (%rax)
    6dae: 00 00                        	addb	%al, (%rax)
    6db0: 7b 1a                        	jnp	0x6dcc <entrypoint+0x682c>
    6db2: 90                           	nop
    6db3: ff 00                        	incl	(%rax)
    6db5: 00 00                        	addb	%al, (%rax)
    6db7: 00 bf a1 00 00 00            	addb	%bh, 161(%rdi)
    6dbd: 00 00                        	addb	%al, (%rax)
    6dbf: 00 07                        	addb	%al, (%rdi)
    6dc1: 01 00                        	addl	%eax, (%rax)
    6dc3: 00 b0 ff ff ff b7            	addb	%dh, -1207959553(%rax)
    6dc9: 02 00                        	addb	(%rax), %al
    6dcb: 00 00                        	addb	%al, (%rax)
    6dcd: 00 00                        	addb	%al, (%rax)
    6dcf: 00 79 a3                     	addb	%bh, -93(%rcx)
    6dd2: 88 ff                        	movb	%bh, %bh
    6dd4: 00 00                        	addb	%al, (%rax)
    6dd6: 00 00                        	addb	%al, (%rax)
    6dd8: 85 10                        	testl	%edx, (%rax)
    6dda: 00 00                        	addb	%al, (%rax)
    6ddc: 15 f7 ff ff 79               	adcl	$2046820343, %eax
    6de1: a1 b8 ff 00 00 00 00 7b 1a   	movabsl	1908118867121602488, %eax
    6dea: a0 ff 00 00 00 00 79 a8 b0   	movabsb	-5717186686039883521, %al
    6df3: ff 00                        	incl	(%rax)
    6df5: 00 00                        	addb	%al, (%rax)
    6df7: 00 05 00 0a 00 00            	addb	%al, 2560(%rip)  # 77fd <entrypoint+0x725d>
    6dfd: 00 00                        	addb	%al, (%rax)
    6dff: 00 57 09                     	addb	%dl, 9(%rdi)
    6e02: 00 00                        	addb	%al, (%rax)
    6e04: 01 00                        	addl	%eax, (%rax)
    6e06: 00 00                        	addb	%al, (%rax)
    6e08: 55                           	pushq	%rbp
    6e09: 09 85 ff 00 00 00            	orl	%eax, 255(%rbp)
    6e0f: 00 79 a1                     	addb	%bh, -95(%rcx)
    6e12: 98                           	cwtl
    6e13: ff 00                        	incl	(%rax)
    6e15: 00 00                        	addb	%al, (%rax)
    6e17: 00 79 13                     	addb	%bh, 19(%rcx)
    6e1a: 20 00                        	andb	%al, (%rax)
    6e1c: 00 00                        	addb	%al, (%rax)
    6e1e: 00 00                        	addb	%al, (%rax)
    6e20: 79 a1                        	jns	0x6dc3 <entrypoint+0x6823>
    6e22: 90                           	nop
    6e23: ff 00                        	incl	(%rax)
    6e25: 00 00                        	addb	%al, (%rax)
    6e27: 00 79 a2                     	addb	%bh, -94(%rcx)
    6e2a: a8 ff                        	testb	$-1, %al
    6e2c: 00 00                        	addb	%al, (%rax)
    6e2e: 00 00                        	addb	%al, (%rax)
    6e30: 8d 00                        	leal	(%rax), %eax
    6e32: 00 00                        	addb	%al, (%rax)
    6e34: 03 00                        	addl	(%rax), %eax
    6e36: 00 00                        	addb	%al, (%rax)
    6e38: b7 07                        	movb	$7, %bh
    6e3a: 00 00                        	addb	%al, (%rax)
    6e3c: 01 00                        	addl	%eax, (%rax)
    6e3e: 00 00                        	addb	%al, (%rax)
    6e40: bf 68 00 00 00               	movl	$104, %edi
    6e45: 00 00                        	addb	%al, (%rax)
    6e47: 00 55 00                     	addb	%dl, (%rbp)
    6e4a: 7d ff                        	jge	0x6e4b <entrypoint+0x68ab>
    6e4c: 00 00                        	addb	%al, (%rax)
    6e4e: 00 00                        	addb	%al, (%rax)
    6e50: b7 07                        	movb	$7, %bh
    6e52: 00 00                        	addb	%al, (%rax)
    6e54: 00 00                        	addb	%al, (%rax)
    6e56: 00 00                        	addb	%al, (%rax)
    6e58: 79 a1                        	jns	0x6dfb <entrypoint+0x685b>
    6e5a: a0 ff 00 00 00 00 3d 18 7a   	movabsb	8797848942277558527, %al
    6e63: ff 00                        	incl	(%rax)
    6e65: 00 00                        	addb	%al, (%rax)
    6e67: 00 b7 09 00 00 01            	addb	%dh, 16777225(%rdi)
    6e6d: 00 00                        	addb	%al, (%rax)
    6e6f: 00 b7 01 00 00 01            	addb	%dh, 16777217(%rdi)
    6e75: 00 00                        	addb	%al, (%rax)
    6e77: 00 85 10 00 00 09            	addb	%al, 150994960(%rbp)
    6e7d: 02 00                        	addb	(%rax), %al
    6e7f: 00 bf 86 00 00 00            	addb	%bh, 134(%rdi)
    6e85: 00 00                        	addb	%al, (%rax)
    6e87: 00 0f                        	addb	%cl, (%rdi)
    6e89: 06                           	<unknown>
    6e8a: 00 00                        	addb	%al, (%rax)
    6e8c: 00 00                        	addb	%al, (%rax)
    6e8e: 00 00                        	addb	%al, (%rax)
    6e90: b7 07                        	movb	$7, %bh
    6e92: 00 00                        	addb	%al, (%rax)
    6e94: 00 00                        	addb	%al, (%rax)
    6e96: 00 00                        	addb	%al, (%rax)
    6e98: 2d 68 ec ff 00               	subl	$16772200, %eax
    6e9d: 00 00                        	addb	%al, (%rax)
    6e9f: 00 b7 09 00 00 00            	addb	%dh, 9(%rdi)
    6ea5: 00 00                        	addb	%al, (%rax)
    6ea7: 00 05 00 ea ff 00            	addb	%al, 16771584(%rip)  # 10058ad
    6ead: 00 00                        	addb	%al, (%rax)
    6eaf: 00 bf 23 00 00 00            	addb	%bh, 35(%rdi)
    6eb5: 00 00                        	addb	%al, (%rax)
    6eb7: 00 77 03                     	addb	%dh, 3(%rdi)
    6eba: 00 00                        	addb	%al, (%rax)
    6ebc: 01 00                        	addl	%eax, (%rax)
    6ebe: 00 00                        	addb	%al, (%rax)
    6ec0: 07                           	<unknown>
    6ec1: 02 00                        	addb	(%rax), %al
    6ec3: 00 01                        	addb	%al, (%rcx)
    6ec5: 00 00                        	addb	%al, (%rax)
    6ec7: 00 77 02                     	addb	%dh, 2(%rdi)
    6eca: 00 00                        	addb	%al, (%rax)
    6ecc: 01 00                        	addl	%eax, (%rax)
    6ece: 00 00                        	addb	%al, (%rax)
    6ed0: 7b 2a                        	jnp	0x6efc <entrypoint+0x695c>
    6ed2: 88 ff                        	movb	%bh, %bh
    6ed4: 00 00                        	addb	%al, (%rax)
    6ed6: 00 00                        	addb	%al, (%rax)
    6ed8: bf a1 00 00 00               	movl	$161, %edi
    6edd: 00 00                        	addb	%al, (%rax)
    6edf: 00 07                        	addb	%al, (%rdi)
    6ee1: 01 00                        	addl	%eax, (%rax)
    6ee3: 00 e0                        	addb	%ah, %al
    6ee5: ff ff                        	<unknown>
    6ee7: ff b7 02 00 00 00            	pushq	2(%rdi)
    6eed: 00 00                        	addb	%al, (%rax)
    6eef: 00 85 10 00 00 f2            	addb	%al, -234881008(%rbp)
    6ef5: f6 ff                        	idivb	%bh
    6ef7: ff 79 a1                     	<unknown>
    6efa: e8 ff 00 00 00               	callq	0x6ffe <entrypoint+0x6a5e>
    6eff: 00 7b 1a                     	addb	%bh, 26(%rbx)
    6f02: a8 ff                        	testb	$-1, %al
    6f04: 00 00                        	addb	%al, (%rax)
    6f06: 00 00                        	addb	%al, (%rax)
    6f08: 79 a9                        	jns	0x6eb3 <entrypoint+0x6913>
    6f0a: e0 ff                        	loopne	0x6f0b <entrypoint+0x696b>
    6f0c: 00 00                        	addb	%al, (%rax)
    6f0e: 00 00                        	addb	%al, (%rax)
    6f10: 05 00 0a 00 00               	addl	$2560, %eax
    6f15: 00 00                        	addb	%al, (%rax)
    6f17: 00 57 07                     	addb	%dl, 7(%rdi)
    6f1a: 00 00                        	addb	%al, (%rax)
    6f1c: 01 00                        	addl	%eax, (%rax)
    6f1e: 00 00                        	addb	%al, (%rax)
    6f20: 55                           	pushq	%rbp
    6f21: 07                           	<unknown>
    6f22: 12 00                        	adcb	(%rax), %al
    6f24: 00 00                        	addb	%al, (%rax)
    6f26: 00 00                        	addb	%al, (%rax)
    6f28: 61                           	<unknown>
    6f29: 62                           	<unknown>
    6f2a: 54                           	pushq	%rsp
    6f2b: 00 00                        	addb	%al, (%rax)
    6f2d: 00 00                        	addb	%al, (%rax)
    6f2f: 00 79 61                     	addb	%bh, 97(%rcx)
    6f32: 20 00                        	andb	%al, (%rax)
    6f34: 00 00                        	addb	%al, (%rax)
    6f36: 00 00                        	addb	%al, (%rax)
    6f38: 79 63                        	jns	0x6f9d <entrypoint+0x69fd>
    6f3a: 28 00                        	subb	%al, (%rax)
    6f3c: 00 00                        	addb	%al, (%rax)
    6f3e: 00 00                        	addb	%al, (%rax)
    6f40: 79 33                        	jns	0x6f75 <entrypoint+0x69d5>
    6f42: 20 00                        	andb	%al, (%rax)
    6f44: 00 00                        	addb	%al, (%rax)
    6f46: 00 00                        	addb	%al, (%rax)
    6f48: 8d 00                        	leal	(%rax), %eax
    6f4a: 00 00                        	addb	%al, (%rax)
    6f4c: 03 00                        	addl	(%rax), %eax
    6f4e: 00 00                        	addb	%al, (%rax)
    6f50: b7 07                        	movb	$7, %bh
    6f52: 00 00                        	addb	%al, (%rax)
    6f54: 01 00                        	addl	%eax, (%rax)
    6f56: 00 00                        	addb	%al, (%rax)
    6f58: bf 89 00 00 00               	movl	$137, %edi
    6f5d: 00 00                        	addb	%al, (%rax)
    6f5f: 00 55 00                     	addb	%dl, (%rbp)
    6f62: 5a                           	popq	%rdx
    6f63: ff 00                        	incl	(%rax)
    6f65: 00 00                        	addb	%al, (%rax)
    6f67: 00 79 a1                     	addb	%bh, -95(%rcx)
    6f6a: a8 ff                        	testb	$-1, %al
    6f6c: 00 00                        	addb	%al, (%rax)
    6f6e: 00 00                        	addb	%al, (%rax)
    6f70: 3d 19 08 00 00               	cmpl	$2073, %eax
    6f75: 00 00                        	addb	%al, (%rax)
    6f77: 00 b7 07 00 00 01            	addb	%dh, 16777223(%rdi)
    6f7d: 00 00                        	addb	%al, (%rax)
    6f7f: 00 b7 01 00 00 01            	addb	%dh, 16777217(%rdi)
    6f85: 00 00                        	addb	%al, (%rax)
    6f87: 00 85 10 00 00 e7            	addb	%al, -419430384(%rbp)
    6f8d: 01 00                        	addl	%eax, (%rax)
    6f8f: 00 bf 98 00 00 00            	addb	%bh, 152(%rdi)
    6f95: 00 00                        	addb	%al, (%rax)
    6f97: 00 0f                        	addb	%cl, (%rdi)
    6f99: 08 00                        	orb	%al, (%rax)
    6f9b: 00 00                        	addb	%al, (%rax)
    6f9d: 00 00                        	addb	%al, (%rax)
    6f9f: 00 2d 89 ee ff 00            	addb	%ch, 16772745(%rip)  # 1005e2e
    6fa5: 00 00                        	addb	%al, (%rax)
    6fa7: 00 b7 07 00 00 00            	addb	%dh, 7(%rdi)
    6fad: 00 00                        	addb	%al, (%rax)
    6faf: 00 05 00 ec ff 00            	addb	%al, 16772096(%rip)  # 1005bb5
    6fb5: 00 00                        	addb	%al, (%rax)
    6fb7: 00 61 61                     	addb	%ah, 97(%rcx)
    6fba: 54                           	pushq	%rsp
    6fbb: 00 00                        	addb	%al, (%rax)
    6fbd: 00 00                        	addb	%al, (%rax)
    6fbf: 00 7b 1a                     	addb	%bh, 26(%rbx)
    6fc2: a8 ff                        	testb	$-1, %al
    6fc4: 00 00                        	addb	%al, (%rax)
    6fc6: 00 00                        	addb	%al, (%rax)
    6fc8: 79 61                        	jns	0x702b <entrypoint+0x6a8b>
    6fca: 20 00                        	andb	%al, (%rax)
    6fcc: 00 00                        	addb	%al, (%rax)
    6fce: 00 00                        	addb	%al, (%rax)
    6fd0: 79 62                        	jns	0x7034 <entrypoint+0x6a94>
    6fd2: 28 00                        	subb	%al, (%rax)
    6fd4: 00 00                        	addb	%al, (%rax)
    6fd6: 00 00                        	addb	%al, (%rax)
    6fd8: 79 24                        	jns	0x6ffe <entrypoint+0x6a5e>
    6fda: 18 00                        	sbbb	%al, (%rax)
    6fdc: 00 00                        	addb	%al, (%rax)
    6fde: 00 00                        	addb	%al, (%rax)
    6fe0: 79 a2                        	jns	0x6f84 <entrypoint+0x69e4>
    6fe2: a0 ff 00 00 00 00 79 a3 80   	movabsb	-9177358574743977729, %al
    6feb: ff 00                        	incl	(%rax)
    6fed: 00 00                        	addb	%al, (%rax)
    6fef: 00 8d 00 00 00 04            	addb	%cl, 67108864(%rbp)
    6ff5: 00 00                        	addb	%al, (%rax)
    6ff7: 00 b7 07 00 00 01            	addb	%dh, 16777223(%rdi)
    6ffd: 00 00                        	addb	%al, (%rax)
    6fff: 00 55 00                     	addb	%dl, (%rbp)
    7002: 46 ff 00                     	incl	(%rax)
    7005: 00 00                        	addb	%al, (%rax)
    7007: 00 79 61                     	addb	%bh, 97(%rcx)
    700a: 28 00                        	subb	%al, (%rax)
    700c: 00 00                        	addb	%al, (%rax)
    700e: 00 00                        	addb	%al, (%rax)
    7010: 7b 1a                        	jnp	0x702c <entrypoint+0x6a8c>
    7012: 98                           	cwtl
    7013: ff 00                        	incl	(%rax)
    7015: 00 00                        	addb	%al, (%rax)
    7017: 00 79 61                     	addb	%bh, 97(%rcx)
    701a: 20 00                        	andb	%al, (%rax)
    701c: 00 00                        	addb	%al, (%rax)
    701e: 00 00                        	addb	%al, (%rax)
    7020: 7b 1a                        	jnp	0x703c <entrypoint+0x6a9c>
    7022: 90                           	nop
    7023: ff 00                        	incl	(%rax)
    7025: 00 00                        	addb	%al, (%rax)
    7027: 00 bf a1 00 00 00            	addb	%bh, 161(%rdi)
    702d: 00 00                        	addb	%al, (%rax)
    702f: 00 07                        	addb	%al, (%rdi)
    7031: 01 00                        	addl	%eax, (%rax)
    7033: 00 d0                        	addb	%dl, %al
    7035: ff ff                        	<unknown>
    7037: ff b7 02 00 00 00            	pushq	2(%rdi)
    703d: 00 00                        	addb	%al, (%rax)
    703f: 00 79 a3                     	addb	%bh, -93(%rcx)
    7042: 88 ff                        	movb	%bh, %bh
    7044: 00 00                        	addb	%al, (%rax)
    7046: 00 00                        	addb	%al, (%rax)
    7048: 85 10                        	testl	%edx, (%rax)
    704a: 00 00                        	addb	%al, (%rax)
    704c: c7 f6                        	<unknown>
    704e: ff ff                        	<unknown>
    7050: 79 a1                        	jns	0x6ff3 <entrypoint+0x6a53>
    7052: d8 ff                        	fdivr	%st(7), %st
    7054: 00 00                        	addb	%al, (%rax)
    7056: 00 00                        	addb	%al, (%rax)
    7058: 7b 1a                        	jnp	0x7074 <entrypoint+0x6ad4>
    705a: a0 ff 00 00 00 00 79 a9 d0   	movabsb	-3411062201849478913, %al
    7063: ff 00                        	incl	(%rax)
    7065: 00 00                        	addb	%al, (%rax)
    7067: 00 05 00 0a 00 00            	addb	%al, 2560(%rip)  # 7a6d <entrypoint+0x74cd>
    706d: 00 00                        	addb	%al, (%rax)
    706f: 00 57 08                     	addb	%dl, 8(%rdi)
    7072: 00 00                        	addb	%al, (%rax)
    7074: 01 00                        	addl	%eax, (%rax)
    7076: 00 00                        	addb	%al, (%rax)
    7078: 55                           	pushq	%rbp
    7079: 08 37                        	orb	%dh, (%rdi)
    707b: ff 00                        	incl	(%rax)
    707d: 00 00                        	addb	%al, (%rax)
    707f: 00 79 a1                     	addb	%bh, -95(%rcx)
    7082: 98                           	cwtl
    7083: ff 00                        	incl	(%rax)
    7085: 00 00                        	addb	%al, (%rax)
    7087: 00 79 13                     	addb	%bh, 19(%rcx)
    708a: 20 00                        	andb	%al, (%rax)
    708c: 00 00                        	addb	%al, (%rax)
    708e: 00 00                        	addb	%al, (%rax)
    7090: 79 a1                        	jns	0x7033 <entrypoint+0x6a93>
    7092: 90                           	nop
    7093: ff 00                        	incl	(%rax)
    7095: 00 00                        	addb	%al, (%rax)
    7097: 00 79 a2                     	addb	%bh, -94(%rcx)
    709a: a8 ff                        	testb	$-1, %al
    709c: 00 00                        	addb	%al, (%rax)
    709e: 00 00                        	addb	%al, (%rax)
    70a0: 8d 00                        	leal	(%rax), %eax
    70a2: 00 00                        	addb	%al, (%rax)
    70a4: 03 00                        	addl	(%rax), %eax
    70a6: 00 00                        	addb	%al, (%rax)
    70a8: b7 07                        	movb	$7, %bh
    70aa: 00 00                        	addb	%al, (%rax)
    70ac: 01 00                        	addl	%eax, (%rax)
    70ae: 00 00                        	addb	%al, (%rax)
    70b0: bf 69 00 00 00               	movl	$105, %edi
    70b5: 00 00                        	addb	%al, (%rax)
    70b7: 00 55 00                     	addb	%dl, (%rbp)
    70ba: 2f                           	<unknown>
    70bb: ff 00                        	incl	(%rax)
    70bd: 00 00                        	addb	%al, (%rax)
    70bf: 00 b7 07 00 00 00            	addb	%dh, 7(%rdi)
    70c5: 00 00                        	addb	%al, (%rax)
    70c7: 00 79 a1                     	addb	%bh, -95(%rcx)
    70ca: a0 ff 00 00 00 00 3d 19 2c   	movabsb	3177638082295890175, %al
    70d3: ff 00                        	incl	(%rax)
    70d5: 00 00                        	addb	%al, (%rax)
    70d7: 00 b7 08 00 00 01            	addb	%dh, 16777224(%rdi)
    70dd: 00 00                        	addb	%al, (%rax)
    70df: 00 b7 01 00 00 01            	addb	%dh, 16777217(%rdi)
    70e5: 00 00                        	addb	%al, (%rax)
    70e7: 00 85 10 00 00 bb            	addb	%al, -1157627888(%rbp)
    70ed: 01 00                        	addl	%eax, (%rax)
    70ef: 00 bf 96 00 00 00            	addb	%bh, 150(%rdi)
    70f5: 00 00                        	addb	%al, (%rax)
    70f7: 00 0f                        	addb	%cl, (%rdi)
    70f9: 06                           	<unknown>
    70fa: 00 00                        	addb	%al, (%rax)
    70fc: 00 00                        	addb	%al, (%rax)
    70fe: 00 00                        	addb	%al, (%rax)
    7100: b7 07                        	movb	$7, %bh
    7102: 00 00                        	addb	%al, (%rax)
    7104: 00 00                        	addb	%al, (%rax)
    7106: 00 00                        	addb	%al, (%rax)
    7108: 2d 69 ec ff 00               	subl	$16772201, %eax
    710d: 00 00                        	addb	%al, (%rax)
    710f: 00 b7 08 00 00 00            	addb	%dh, 8(%rdi)
    7115: 00 00                        	addb	%al, (%rax)
    7117: 00 05 00 ea ff 00            	addb	%al, 16771584(%rip)  # 1005b1d
    711d: 00 00                        	addb	%al, (%rax)
    711f: 00 bf 46 00 00 00            	addb	%bh, 70(%rdi)
    7125: 00 00                        	addb	%al, (%rax)
    7127: 00 bf 37 00 00 00            	addb	%bh, 55(%rdi)
    712d: 00 00                        	addb	%al, (%rax)
    712f: 00 bf 18 00 00 00            	addb	%bh, 24(%rdi)
    7135: 00 00                        	addb	%al, (%rax)
    7137: 00 bf 21 00 00 00            	addb	%bh, 33(%rdi)
    713d: 00 00                        	addb	%al, (%rax)
    713f: 00 67 01                     	addb	%ah, 1(%rdi)
    7142: 00 00                        	addb	%al, (%rax)
    7144: 20 00                        	andb	%al, (%rax)
    7146: 00 00                        	addb	%al, (%rax)
    7148: 77 01                        	ja	0x714b <entrypoint+0x6bab>
    714a: 00 00                        	addb	%al, (%rax)
    714c: 20 00                        	andb	%al, (%rax)
    714e: 00 00                        	addb	%al, (%rax)
    7150: 15 01 08 00 00               	adcl	$2049, %eax
    7155: 00 11                        	addb	%dl, (%rcx)
    7157: 00 79 81                     	addb	%bh, -127(%rcx)
    715a: 20 00                        	andb	%al, (%rax)
    715c: 00 00                        	addb	%al, (%rax)
    715e: 00 00                        	addb	%al, (%rax)
    7160: 79 83                        	jns	0x70e5 <entrypoint+0x6b45>
    7162: 28 00                        	subb	%al, (%rax)
    7164: 00 00                        	addb	%al, (%rax)
    7166: 00 00                        	addb	%al, (%rax)
    7168: 79 33                        	jns	0x719d <entrypoint+0x6bfd>
    716a: 20 00                        	andb	%al, (%rax)
    716c: 00 00                        	addb	%al, (%rax)
    716e: 00 00                        	addb	%al, (%rax)
    7170: 8d 00                        	leal	(%rax), %eax
    7172: 00 00                        	addb	%al, (%rax)
    7174: 03 00                        	addl	(%rax), %eax
    7176: 00 00                        	addb	%al, (%rax)
    7178: bf 01 00 00 00               	movl	$1, %edi
    717d: 00 00                        	addb	%al, (%rax)
    717f: 00 b7 00 00 00 01            	addb	%dh, 16777216(%rdi)
    7185: 00 00                        	addb	%al, (%rax)
    7187: 00 15 01 01 00 00            	addb	%dl, 257(%rip)  # 728e <entrypoint+0x6cee>
    718d: 00 00                        	addb	%al, (%rax)
    718f: 00 95 00 00 00 00            	addb	%dl, (%rbp)
    7195: 00 00                        	addb	%al, (%rax)
    7197: 00 b7 00 00 00 00            	addb	%dh, (%rdi)
    719d: 00 00                        	addb	%al, (%rax)
    719f: 00 15 07 fd ff 00            	addb	%dl, 16776455(%rip)  # 1006eac
    71a5: 00 00                        	addb	%al, (%rax)
    71a7: 00 79 81                     	addb	%bh, -127(%rcx)
    71aa: 20 00                        	andb	%al, (%rax)
    71ac: 00 00                        	addb	%al, (%rax)
    71ae: 00 00                        	addb	%al, (%rax)
    71b0: 79 82                        	jns	0x7134 <entrypoint+0x6b94>
    71b2: 28 00                        	subb	%al, (%rax)
    71b4: 00 00                        	addb	%al, (%rax)
    71b6: 00 00                        	addb	%al, (%rax)
    71b8: 79 24                        	jns	0x71de <entrypoint+0x6c3e>
    71ba: 18 00                        	sbbb	%al, (%rax)
    71bc: 00 00                        	addb	%al, (%rax)
    71be: 00 00                        	addb	%al, (%rax)
    71c0: bf 72 00 00 00               	movl	$114, %edi
    71c5: 00 00                        	addb	%al, (%rax)
    71c7: 00 bf 63 00 00 00            	addb	%bh, 99(%rdi)
    71cd: 00 00                        	addb	%al, (%rax)
    71cf: 00 8d 00 00 00 04            	addb	%cl, 67108864(%rbp)
    71d5: 00 00                        	addb	%al, (%rax)
    71d7: 00 05 00 f6 ff 00            	addb	%al, 16774656(%rip)  # 10067dd
    71dd: 00 00                        	addb	%al, (%rax)
    71df: 00 bf 38 00 00 00            	addb	%bh, 56(%rdi)
    71e5: 00 00                        	addb	%al, (%rax)
    71e7: 00 bf 29 00 00 00            	addb	%bh, 41(%rdi)
    71ed: 00 00                        	addb	%al, (%rax)
    71ef: 00 bf 17 00 00 00            	addb	%bh, 23(%rdi)
    71f5: 00 00                        	addb	%al, (%rax)
    71f7: 00 79 71                     	addb	%bh, 113(%rcx)
    71fa: 10 00                        	adcb	%al, (%rax)
    71fc: 00 00                        	addb	%al, (%rax)
    71fe: 00 00                        	addb	%al, (%rax)
    7200: 79 72                        	jns	0x7274 <entrypoint+0x6cd4>
    7202: 00 00                        	addb	%al, (%rax)
    7204: 00 00                        	addb	%al, (%rax)
    7206: 00 00                        	addb	%al, (%rax)
    7208: 15 02 02 00 01               	adcl	$16777730, %eax
    720d: 00 00                        	addb	%al, (%rax)
    720f: 00 55 01                     	addb	%dl, 1(%rbp)
    7212: 03 00                        	addl	(%rax), %eax
    7214: 00 00                        	addb	%al, (%rax)
    7216: 00 00                        	addb	%al, (%rax)
    7218: 05 00 33 00 00               	addl	$13056, %eax
    721d: 00 00                        	addb	%al, (%rax)
    721f: 00 55 01                     	addb	%dl, 1(%rbp)
    7222: 01 00                        	addl	%eax, (%rax)
    7224: 00 00                        	addb	%al, (%rax)
    7226: 00 00                        	addb	%al, (%rax)
    7228: 05 00 34 00 00               	addl	$13312, %eax
    722d: 00 00                        	addb	%al, (%rax)
    722f: 00 bf 91 00 00 00            	addb	%bh, 145(%rdi)
    7235: 00 00                        	addb	%al, (%rax)
    7237: 00 0f                        	addb	%cl, (%rdi)
    7239: 81 00 00 00 00 00            	addl	$0, (%rax)
    723f: 00 79 76                     	addb	%bh, 118(%rcx)
    7242: 18 00                        	sbbb	%al, (%rax)
    7244: 00 00                        	addb	%al, (%rax)
    7246: 00 00                        	addb	%al, (%rax)
    7248: 7b 1a                        	jnp	0x7264 <entrypoint+0x6cc4>
    724a: f0                           	lock
    724b: ff 00                        	incl	(%rax)
    724d: 00 00                        	addb	%al, (%rax)
    724f: 00 7b 9a                     	addb	%bh, -102(%rbx)
    7252: e8 ff 00 00 00               	callq	0x7356 <entrypoint+0x6db6>
    7257: 00 b7 01 00 00 00            	addb	%dh, 1(%rdi)
    725d: 00 00                        	addb	%al, (%rax)
    725f: 00 7b 1a                     	addb	%bh, 26(%rbx)
    7262: e0 ff                        	loopne	0x7263 <entrypoint+0x6cc3>
    7264: 00 00                        	addb	%al, (%rax)
    7266: 00 00                        	addb	%al, (%rax)
    7268: bf a1 00 00 00               	movl	$161, %edi
    726d: 00 00                        	addb	%al, (%rax)
    726f: 00 07                        	addb	%al, (%rdi)
    7271: 01 00                        	addl	%eax, (%rax)
    7273: 00 e0                        	addb	%ah, %al
    7275: ff ff                        	<unknown>
    7277: ff 85 10 00 00 bc            	incl	-1140850672(%rbp)
    727d: f7 ff                        	idivl	%edi
    727f: ff 7b 0a                     	<unknown>
    7282: f8                           	clc
    7283: ff 00                        	incl	(%rax)
    7285: 00 00                        	addb	%al, (%rax)
    7287: 00 bf a1 00 00 00            	addb	%bh, 161(%rdi)
    728d: 00 00                        	addb	%al, (%rax)
    728f: 00 07                        	addb	%al, (%rdi)
    7291: 01 00                        	addl	%eax, (%rax)
    7293: 00 d0                        	addb	%dl, %al
    7295: ff ff                        	<unknown>
    7297: ff bf a2 00 00 00            	<unknown>
    729d: 00 00                        	addb	%al, (%rax)
    729f: 00 07                        	addb	%al, (%rdi)
    72a1: 02 00                        	addb	(%rax), %al
    72a3: 00 f8                        	addb	%bh, %al
    72a5: ff ff                        	<unknown>
    72a7: ff 85 10 00 00 66            	incl	1711276048(%rbp)
    72ad: f7 ff                        	idivl	%edi
    72af: ff 61 a1                     	jmpq	*-95(%rcx)
    72b2: d8 ff                        	fdivr	%st(7), %st
    72b4: 00 00                        	addb	%al, (%rax)
    72b6: 00 00                        	addb	%al, (%rax)
    72b8: 15 01 1d 00 00               	adcl	$7425, %eax
    72bd: 00 11                        	addb	%dl, (%rcx)
    72bf: 00 79 a1                     	addb	%bh, -95(%rcx)
    72c2: d0 ff                        	sarb	%bh
    72c4: 00 00                        	addb	%al, (%rax)
    72c6: 00 00                        	addb	%al, (%rax)
    72c8: 15 06 0b 00 00               	adcl	$2822, %eax
    72cd: 00 00                        	addb	%al, (%rax)
    72cf: 00 bf a1 00 00 00            	addb	%bh, 161(%rdi)
    72d5: 00 00                        	addb	%al, (%rax)
    72d7: 00 07                        	addb	%al, (%rdi)
    72d9: 01 00                        	addl	%eax, (%rax)
    72db: 00 c0                        	addb	%al, %al
    72dd: ff ff                        	<unknown>
    72df: ff bf a2 00 00 00            	<unknown>
    72e5: 00 00                        	addb	%al, (%rax)
    72e7: 00 07                        	addb	%al, (%rdi)
    72e9: 02 00                        	addb	(%rax), %al
    72eb: 00 f8                        	addb	%bh, %al
    72ed: ff ff                        	<unknown>
    72ef: ff 85 10 00 00 5d            	incl	1560281104(%rbp)
    72f5: f7 ff                        	idivl	%edi
    72f7: ff 61 a1                     	jmpq	*-95(%rcx)
    72fa: c8 ff 00 00                  	enter	$255, $0
    72fe: 00 00                        	addb	%al, (%rax)
    7300: 15 01 14 00 00               	adcl	$5121, %eax
    7305: 00 11                        	addb	%dl, (%rcx)
    7307: 00 07                        	addb	%al, (%rdi)
    7309: 06                           	<unknown>
    730a: 00 00                        	addb	%al, (%rax)
    730c: ff ff                        	<unknown>
    730e: ff ff                        	<unknown>
    7310: 79 a1                        	jns	0x72b3 <entrypoint+0x6d13>
    7312: c0 ff 00                     	sarb	$0, %bh
    7315: 00 00                        	addb	%al, (%rax)
    7317: 00 15 06 01 00 00            	addb	%dl, 262(%rip)  # 7423 <entrypoint+0x6e83>
    731d: 00 00                        	addb	%al, (%rax)
    731f: 00 05 00 f5 ff 00            	addb	%al, 16774400(%rip)  # 1006825
    7325: 00 00                        	addb	%al, (%rax)
    7327: 00 15 01 0a 00 00            	addb	%dl, 2561(%rip)  # 7d2e <entrypoint+0x778e>
    732d: 00 00                        	addb	%al, (%rax)
    732f: 00 1d 81 09 00 00            	addb	%bl, 2433(%rip)  # 7cb6 <entrypoint+0x7716>
    7335: 00 00                        	addb	%al, (%rax)
    7337: 00 b7 02 00 00 00            	addb	%dh, 2(%rdi)
    733d: 00 00                        	addb	%al, (%rax)
    733f: 00 3d 81 08 00 00            	addb	%bh, 2177(%rip)  # 7bc6 <entrypoint+0x7626>
    7345: 00 00                        	addb	%al, (%rax)
    7347: 00 bf 93 00 00 00            	addb	%bh, 147(%rdi)
    734d: 00 00                        	addb	%al, (%rax)
    734f: 00 0f                        	addb	%cl, (%rdi)
    7351: 13 00                        	adcl	(%rax), %eax
    7353: 00 00                        	addb	%al, (%rax)
    7355: 00 00                        	addb	%al, (%rax)
    7357: 00 71 33                     	addb	%dh, 51(%rcx)
    735a: 00 00                        	addb	%al, (%rax)
    735c: 00 00                        	addb	%al, (%rax)
    735e: 00 00                        	addb	%al, (%rax)
    7360: 67 03 00                     	addl	(%eax), %eax
    7363: 00 38                        	addb	%bh, (%rax)
    7365: 00 00                        	addb	%al, (%rax)
    7367: 00 c7                        	addb	%al, %bh
    7369: 03 00                        	addl	(%rax), %eax
    736b: 00 38                        	addb	%bh, (%rax)
    736d: 00 00                        	addb	%al, (%rax)
    736f: 00 b7 04 00 00 c0            	addb	%dh, -1073741820(%rdi)
    7375: ff ff                        	<unknown>
    7377: ff 6d 34                     	ljmpl	*52(%rbp)
    737a: 01 00                        	addl	%eax, (%rax)
    737c: 00 00                        	addb	%al, (%rax)
    737e: 00 00                        	addb	%al, (%rax)
    7380: bf 92 00 00 00               	movl	$146, %edi
    7385: 00 00                        	addb	%al, (%rax)
    7387: 00 15 02 01 00 00            	addb	%dl, 258(%rip)  # 748f <entrypoint+0x6eef>
    738d: 00 00                        	addb	%al, (%rax)
    738f: 00 bf 18 00 00 00            	addb	%bh, 24(%rdi)
    7395: 00 00                        	addb	%al, (%rax)
    7397: 00 15 02 01 00 00            	addb	%dl, 258(%rip)  # 749f <entrypoint+0x6eff>
    739d: 00 00                        	addb	%al, (%rax)
    739f: 00 bf 29 00 00 00            	addb	%bh, 41(%rdi)
    73a5: 00 00                        	addb	%al, (%rax)
    73a7: 00 79 71                     	addb	%bh, 113(%rcx)
    73aa: 00 00                        	addb	%al, (%rax)
    73ac: 00 00                        	addb	%al, (%rax)
    73ae: 00 00                        	addb	%al, (%rax)
    73b0: 15 01 03 00 01               	adcl	$16777985, %eax
    73b5: 00 00                        	addb	%al, (%rax)
    73b7: 00 79 71                     	addb	%bh, 113(%rcx)
    73ba: 20 00                        	andb	%al, (%rax)
    73bc: 00 00                        	addb	%al, (%rax)
    73be: 00 00                        	addb	%al, (%rax)
    73c0: 79 72                        	jns	0x7434 <entrypoint+0x6e94>
    73c2: 28 00                        	subb	%al, (%rax)
    73c4: 00 00                        	addb	%al, (%rax)
    73c6: 00 00                        	addb	%al, (%rax)
    73c8: 05 00 1e 00 00               	addl	$7680, %eax
    73cd: 00 00                        	addb	%al, (%rax)
    73cf: 00 bf 96 00 00 00            	addb	%bh, 150(%rdi)
    73d5: 00 00                        	addb	%al, (%rax)
    73d7: 00 0f                        	addb	%cl, (%rdi)
    73d9: 86 00                        	xchgb	%al, (%rax)
    73db: 00 00                        	addb	%al, (%rax)
    73dd: 00 00                        	addb	%al, (%rax)
    73df: 00 bf a1 00 00 00            	addb	%bh, 161(%rdi)
    73e5: 00 00                        	addb	%al, (%rax)
    73e7: 00 07                        	addb	%al, (%rdi)
    73e9: 01 00                        	addl	%eax, (%rax)
    73eb: 00 b0 ff ff ff bf            	addb	%dh, -1073741825(%rax)
    73f1: 92                           	xchgl	%edx, %eax
    73f2: 00 00                        	addb	%al, (%rax)
    73f4: 00 00                        	addb	%al, (%rax)
    73f6: 00 00                        	addb	%al, (%rax)
    73f8: bf 63 00 00 00               	movl	$99, %edi
    73fd: 00 00                        	addb	%al, (%rax)
    73ff: 00 85 10 00 00 f6            	addb	%al, -167772144(%rbp)
    7405: f8                           	clc
    7406: ff ff                        	<unknown>
    7408: b7 01                        	movb	$1, %bh
    740a: 00 00                        	addb	%al, (%rax)
    740c: 00 00                        	addb	%al, (%rax)
    740e: 00 00                        	addb	%al, (%rax)
    7410: 79 a2                        	jns	0x73b4 <entrypoint+0x6e14>
    7412: b8 ff 00 00 00               	movl	$255, %eax
    7417: 00 79 a3                     	addb	%bh, -93(%rcx)
    741a: b0 ff                        	movb	$-1, %al
    741c: 00 00                        	addb	%al, (%rax)
    741e: 00 00                        	addb	%al, (%rax)
    7420: 1d 23 05 00 00               	sbbl	$1315, %eax
    7425: 00 00                        	addb	%al, (%rax)
    7427: 00 b7 01 00 00 00            	addb	%dh, 1(%rdi)
    742d: 00 00                        	addb	%al, (%rax)
    742f: 00 05 00 0b 00 00            	addb	%al, 2816(%rip)  # 7f35 <entrypoint+0x7995>
    7435: 00 00                        	addb	%al, (%rax)
    7437: 00 0f                        	addb	%cl, (%rdi)
    7439: 41 00 00                     	addb	%al, (%r8)
    743c: 00 00                        	addb	%al, (%rax)
    743e: 00 00                        	addb	%al, (%rax)
    7440: 07                           	<unknown>
    7441: 03 00                        	addl	(%rax), %eax
    7443: 00 01                        	addb	%al, (%rcx)
    7445: 00 00                        	addb	%al, (%rax)
    7447: 00 5d 32                     	addb	%bl, 50(%rbp)
    744a: 08 00                        	orb	%al, (%rax)
    744c: 00 00                        	addb	%al, (%rax)
    744e: 00 00                        	addb	%al, (%rax)
    7450: bf 82 00 00 00               	movl	$130, %edi
    7455: 00 00                        	addb	%al, (%rax)
    7457: 00 1f                        	addb	%bl, (%rdi)
    7459: 12 00                        	adcb	(%rax), %al
    745b: 00 00                        	addb	%al, (%rax)
    745d: 00 00                        	addb	%al, (%rax)
    745f: 00 bf 73 00 00 00            	addb	%bh, 115(%rdi)
    7465: 00 00                        	addb	%al, (%rax)
    7467: 00 79 37                     	addb	%bh, 55(%rcx)
    746a: 08 00                        	orb	%al, (%rax)
    746c: 00 00                        	addb	%al, (%rax)
    746e: 00 00                        	addb	%al, (%rax)
    7470: 2d 27 0e 00 00               	subl	$3623, %eax
    7475: 00 00                        	addb	%al, (%rax)
    7477: 00 79 31                     	addb	%bh, 49(%rcx)
    747a: 20 00                        	andb	%al, (%rax)
    747c: 00 00                        	addb	%al, (%rax)
    747e: 00 00                        	addb	%al, (%rax)
    7480: 79 32                        	jns	0x74b4 <entrypoint+0x6f14>
    7482: 28 00                        	subb	%al, (%rax)
    7484: 00 00                        	addb	%al, (%rax)
    7486: 00 00                        	addb	%al, (%rax)
    7488: 05 00 06 00 00               	addl	$1536, %eax
    748d: 00 00                        	addb	%al, (%rax)
    748f: 00 71 35                     	addb	%dh, 53(%rcx)
    7492: 00 00                        	addb	%al, (%rax)
    7494: 00 00                        	addb	%al, (%rax)
    7496: 00 00                        	addb	%al, (%rax)
    7498: 57                           	pushq	%rdi
    7499: 05 00 00 c0 00               	addl	$12582912, %eax
    749e: 00 00                        	addb	%al, (%rax)
    74a0: b7 04                        	movb	$4, %bh
    74a2: 00 00                        	addb	%al, (%rax)
    74a4: 01 00                        	addl	%eax, (%rax)
    74a6: 00 00                        	addb	%al, (%rax)
    74a8: 15 05 f1 ff 80               	adcl	$2164257029, %eax
    74ad: 00 00                        	addb	%al, (%rax)
    74af: 00 b7 04 00 00 00            	addb	%dh, 4(%rdi)
    74b5: 00 00                        	addb	%al, (%rax)
    74b7: 00 05 00 ef ff 00            	addb	%al, 16772864(%rip)  # 10063bd
    74bd: 00 00                        	addb	%al, (%rax)
    74bf: 00 79 24                     	addb	%bh, 36(%rcx)
    74c2: 18 00                        	sbbb	%al, (%rax)
    74c4: 00 00                        	addb	%al, (%rax)
    74c6: 00 00                        	addb	%al, (%rax)
    74c8: bf 92 00 00 00               	movl	$146, %edi
    74cd: 00 00                        	addb	%al, (%rax)
    74cf: 00 bf 83 00 00 00            	addb	%bh, 131(%rdi)
    74d5: 00 00                        	addb	%al, (%rax)
    74d7: 00 8d 00 00 00 04            	addb	%cl, 67108864(%rbp)
    74dd: 00 00                        	addb	%al, (%rax)
    74df: 00 95 00 00 00 00            	addb	%dl, (%rbp)
    74e5: 00 00                        	addb	%al, (%rax)
    74e7: 00 7b 3a                     	addb	%bh, 58(%rbx)
    74ea: 78 ff                        	js	0x74eb <entrypoint+0x6f4b>
    74ec: 00 00                        	addb	%al, (%rax)
    74ee: 00 00                        	addb	%al, (%rax)
    74f0: bf a1 00 00 00               	movl	$161, %edi
    74f5: 00 00                        	addb	%al, (%rax)
    74f7: 00 07                        	addb	%al, (%rdi)
    74f9: 01 00                        	addl	%eax, (%rax)
    74fb: 00 a0 ff ff ff 7b            	addb	%ah, 2080374783(%rax)
    7501: 9a                           	<unknown>
    7502: 60                           	<unknown>
    7503: ff 00                        	incl	(%rax)
    7505: 00 00                        	addb	%al, (%rax)
    7507: 00 bf 92 00 00 00            	addb	%bh, 146(%rdi)
    750d: 00 00                        	addb	%al, (%rax)
    750f: 00 bf 63 00 00 00            	addb	%bh, 99(%rdi)
    7515: 00 00                        	addb	%al, (%rax)
    7517: 00 85 10 00 00 d3            	addb	%al, -754974704(%rbp)
    751d: f8                           	clc
    751e: ff ff                        	<unknown>
    7520: b7 03                        	movb	$3, %bh
    7522: 00 00                        	addb	%al, (%rax)
    7524: 00 00                        	addb	%al, (%rax)
    7526: 00 00                        	addb	%al, (%rax)
    7528: 79 a1                        	jns	0x74cb <entrypoint+0x6f2b>
    752a: a8 ff                        	testb	$-1, %al
    752c: 00 00                        	addb	%al, (%rax)
    752e: 00 00                        	addb	%al, (%rax)
    7530: 79 a2                        	jns	0x74d4 <entrypoint+0x6f34>
    7532: a0 ff 00 00 00 00 b7 09 00   	movabsb	2734485418279167, %al
    753b: 00 00                        	addb	%al, (%rax)
    753d: 00 00                        	addb	%al, (%rax)
    753f: 00 1d 12 05 00 00            	addb	%bl, 1298(%rip)  # 7a57 <entrypoint+0x74b7>
    7545: 00 00                        	addb	%al, (%rax)
    7547: 00 b7 09 00 00 00            	addb	%dh, 9(%rdi)
    754d: 00 00                        	addb	%al, (%rax)
    754f: 00 05 00 0a 00 00            	addb	%al, 2560(%rip)  # 7f55 <entrypoint+0x79b5>
    7555: 00 00                        	addb	%al, (%rax)
    7557: 00 0f                        	addb	%cl, (%rdi)
    7559: 49 00 00                     	addb	%al, (%r8)
    755c: 00 00                        	addb	%al, (%rax)
    755e: 00 00                        	addb	%al, (%rax)
    7560: 07                           	<unknown>
    7561: 02 00                        	addb	(%rax), %al
    7563: 00 01                        	addb	%al, (%rcx)
    7565: 00 00                        	addb	%al, (%rax)
    7567: 00 5d 21                     	addb	%bl, 33(%rbp)
    756a: 07                           	<unknown>
    756b: 00 00                        	addb	%al, (%rax)
    756d: 00 00                        	addb	%al, (%rax)
    756f: 00 1f                        	addb	%bl, (%rdi)
    7571: 89 00                        	movl	%eax, (%rax)
    7573: 00 00                        	addb	%al, (%rax)
    7575: 00 00                        	addb	%al, (%rax)
    7577: 00 79 a1                     	addb	%bh, -95(%rcx)
    757a: 78 ff                        	js	0x757b <entrypoint+0x6fdb>
    757c: 00 00                        	addb	%al, (%rax)
    757e: 00 00                        	addb	%al, (%rax)
    7580: 71 12                        	jno	0x7594 <entrypoint+0x6ff4>
    7582: 58                           	popq	%rax
    7583: 00 00                        	addb	%al, (%rax)
    7585: 00 00                        	addb	%al, (%rax)
    7587: 00 b7 01 00 00 00            	addb	%dh, 1(%rdi)
    758d: 00 00                        	addb	%al, (%rax)
    758f: 00 15 02 08 00 03            	addb	%dl, 50333698(%rip)  # 3007d97
    7595: 00 00                        	addb	%al, (%rax)
    7597: 00 bf 21 00 00 00            	addb	%bh, 33(%rdi)
    759d: 00 00                        	addb	%al, (%rax)
    759f: 00 05 00 06 00 00            	addb	%al, 1536(%rip)  # 7ba5 <entrypoint+0x7605>
    75a5: 00 00                        	addb	%al, (%rax)
    75a7: 00 71 25                     	addb	%dh, 37(%rcx)
    75aa: 00 00                        	addb	%al, (%rax)
    75ac: 00 00                        	addb	%al, (%rax)
    75ae: 00 00                        	addb	%al, (%rax)
    75b0: 57                           	pushq	%rdi
    75b1: 05 00 00 c0 00               	addl	$12582912, %eax
    75b6: 00 00                        	addb	%al, (%rax)
    75b8: b7 04                        	movb	$4, %bh
    75ba: 00 00                        	addb	%al, (%rax)
    75bc: 01 00                        	addl	%eax, (%rax)
    75be: 00 00                        	addb	%al, (%rax)
    75c0: 15 05 f2 ff 80               	adcl	$2164257285, %eax
    75c5: 00 00                        	addb	%al, (%rax)
    75c7: 00 b7 04 00 00 00            	addb	%dh, 4(%rdi)
    75cd: 00 00                        	addb	%al, (%rax)
    75cf: 00 05 00 f0 ff 00            	addb	%al, 16773120(%rip)  # 10065d5
    75d5: 00 00                        	addb	%al, (%rax)
    75d7: 00 0f                        	addb	%cl, (%rdi)
    75d9: 79 00                        	jns	0x75db <entrypoint+0x703b>
    75db: 00 00                        	addb	%al, (%rax)
    75dd: 00 00                        	addb	%al, (%rax)
    75df: 00 7b 8a                     	addb	%bh, -118(%rbx)
    75e2: 68 ff 00 00 00               	pushq	$255
    75e7: 00 65 01                     	addb	%ah, 1(%rbp)
    75ea: 04 00                        	addb	$0, %al
    75ec: 01 00                        	addl	%eax, (%rax)
    75ee: 00 00                        	addb	%al, (%rax)
    75f0: 15 01 09 00 00               	adcl	$2305, %eax
    75f5: 00 00                        	addb	%al, (%rax)
    75f7: 00 bf 93 00 00 00            	addb	%bh, 147(%rdi)
    75fd: 00 00                        	addb	%al, (%rax)
    75ff: 00 b7 09 00 00 00            	addb	%dh, 9(%rdi)
    7605: 00 00                        	addb	%al, (%rax)
    7607: 00 05 00 06 00 00            	addb	%al, 1536(%rip)  # 7c0d <entrypoint+0x766d>
    760d: 00 00                        	addb	%al, (%rax)
    760f: 00 15 01 01 00 02            	addb	%dl, 33554689(%rip)  # 2007716
    7615: 00 00                        	addb	%al, (%rax)
    7617: 00 05 00 fb ff 00            	addb	%al, 16775936(%rip)  # 100711d
    761d: 00 00                        	addb	%al, (%rax)
    761f: 00 bf 93 00 00 00            	addb	%bh, 147(%rdi)
    7625: 00 00                        	addb	%al, (%rax)
    7627: 00 77 03                     	addb	%dh, 3(%rdi)
    762a: 00 00                        	addb	%al, (%rax)
    762c: 01 00                        	addl	%eax, (%rax)
    762e: 00 00                        	addb	%al, (%rax)
    7630: 07                           	<unknown>
    7631: 09 00                        	orl	%eax, (%rax)
    7633: 00 01                        	addb	%al, (%rcx)
    7635: 00 00                        	addb	%al, (%rax)
    7637: 00 77 09                     	addb	%dh, 9(%rdi)
    763a: 00 00                        	addb	%al, (%rax)
    763c: 01 00                        	addl	%eax, (%rax)
    763e: 00 00                        	addb	%al, (%rax)
    7640: bf a1 00 00 00               	movl	$161, %edi
    7645: 00 00                        	addb	%al, (%rax)
    7647: 00 07                        	addb	%al, (%rdi)
    7649: 01 00                        	addl	%eax, (%rax)
    764b: 00 90 ff ff ff b7            	addb	%dl, -1207959553(%rax)
    7651: 02 00                        	addb	(%rax), %al
    7653: 00 00                        	addb	%al, (%rax)
    7655: 00 00                        	addb	%al, (%rax)
    7657: 00 85 10 00 00 05            	addb	%al, 83886096(%rbp)
    765d: f6 ff                        	idivb	%bh
    765f: ff 79 a1                     	<unknown>
    7662: 98                           	cwtl
    7663: ff 00                        	incl	(%rax)
    7665: 00 00                        	addb	%al, (%rax)
    7667: 00 7b 1a                     	addb	%bh, 26(%rbx)
    766a: 70 ff                        	jo	0x766b <entrypoint+0x70cb>
    766c: 00 00                        	addb	%al, (%rax)
    766e: 00 00                        	addb	%al, (%rax)
    7670: 79 a7                        	jns	0x7619 <entrypoint+0x7079>
    7672: 90                           	nop
    7673: ff 00                        	incl	(%rax)
    7675: 00 00                        	addb	%al, (%rax)
    7677: 00 05 00 0c 00 00            	addb	%al, 3072(%rip)  # 827d <entrypoint+0x7cdd>
    767d: 00 00                        	addb	%al, (%rax)
    767f: 00 57 06                     	addb	%dl, 6(%rdi)
    7682: 00 00                        	addb	%al, (%rax)
    7684: 01 00                        	addl	%eax, (%rax)
    7686: 00 00                        	addb	%al, (%rax)
    7688: 55                           	pushq	%rbp
    7689: 06                           	<unknown>
    768a: 14 00                        	adcb	$0, %al
    768c: 00 00                        	addb	%al, (%rax)
    768e: 00 00                        	addb	%al, (%rax)
    7690: 79 a3                        	jns	0x7635 <entrypoint+0x7095>
    7692: 78 ff                        	js	0x7693 <entrypoint+0x70f3>
    7694: 00 00                        	addb	%al, (%rax)
    7696: 00 00                        	addb	%al, (%rax)
    7698: 61                           	<unknown>
    7699: 32 54 00 00                  	xorb	(%rax,%rax), %dl
    769d: 00 00                        	addb	%al, (%rax)
    769f: 00 79 31                     	addb	%bh, 49(%rcx)
    76a2: 20 00                        	andb	%al, (%rax)
    76a4: 00 00                        	addb	%al, (%rax)
    76a6: 00 00                        	addb	%al, (%rax)
    76a8: 79 33                        	jns	0x76dd <entrypoint+0x713d>
    76aa: 28 00                        	subb	%al, (%rax)
    76ac: 00 00                        	addb	%al, (%rax)
    76ae: 00 00                        	addb	%al, (%rax)
    76b0: 79 33                        	jns	0x76e5 <entrypoint+0x7145>
    76b2: 20 00                        	andb	%al, (%rax)
    76b4: 00 00                        	addb	%al, (%rax)
    76b6: 00 00                        	addb	%al, (%rax)
    76b8: 8d 00                        	leal	(%rax), %eax
    76ba: 00 00                        	addb	%al, (%rax)
    76bc: 03 00                        	addl	(%rax), %eax
    76be: 00 00                        	addb	%al, (%rax)
    76c0: bf 01 00 00 00               	movl	$1, %edi
    76c5: 00 00                        	addb	%al, (%rax)
    76c7: 00 b7 00 00 00 01            	addb	%dh, 16777216(%rdi)
    76cd: 00 00                        	addb	%al, (%rax)
    76cf: 00 bf 87 00 00 00            	addb	%bh, 135(%rdi)
    76d5: 00 00                        	addb	%al, (%rax)
    76d7: 00 55 01                     	addb	%dl, 1(%rbp)
    76da: c0 ff 00                     	sarb	$0, %bh
    76dd: 00 00                        	addb	%al, (%rax)
    76df: 00 79 a1                     	addb	%bh, -95(%rcx)
    76e2: 70 ff                        	jo	0x76e3 <entrypoint+0x7143>
    76e4: 00 00                        	addb	%al, (%rax)
    76e6: 00 00                        	addb	%al, (%rax)
    76e8: 3d 17 08 00 00               	cmpl	$2071, %eax
    76ed: 00 00                        	addb	%al, (%rax)
    76ef: 00 b7 06 00 00 01            	addb	%dh, 16777222(%rdi)
    76f5: 00 00                        	addb	%al, (%rax)
    76f7: 00 b7 01 00 00 01            	addb	%dh, 16777217(%rdi)
    76fd: 00 00                        	addb	%al, (%rax)
    76ff: 00 85 10 00 00 f8            	addb	%al, -134217712(%rbp)
    7705: 00 00                        	addb	%al, (%rax)
    7707: 00 bf 78 00 00 00            	addb	%bh, 120(%rdi)
    770d: 00 00                        	addb	%al, (%rax)
    770f: 00 0f                        	addb	%cl, (%rdi)
    7711: 08 00                        	orb	%al, (%rax)
    7713: 00 00                        	addb	%al, (%rax)
    7715: 00 00                        	addb	%al, (%rax)
    7717: 00 2d 87 ec ff 00            	addb	%ch, 16772231(%rip)  # 10063a4
    771d: 00 00                        	addb	%al, (%rax)
    771f: 00 b7 06 00 00 00            	addb	%dh, 6(%rdi)
    7725: 00 00                        	addb	%al, (%rax)
    7727: 00 05 00 ea ff 00            	addb	%al, 16771584(%rip)  # 100612d
    772d: 00 00                        	addb	%al, (%rax)
    772f: 00 79 a2                     	addb	%bh, -94(%rcx)
    7732: 78 ff                        	js	0x7733 <entrypoint+0x7193>
    7734: 00 00                        	addb	%al, (%rax)
    7736: 00 00                        	addb	%al, (%rax)
    7738: 61                           	<unknown>
    7739: 21 54 00 00                  	andl	%edx, (%rax,%rax)
    773d: 00 00                        	addb	%al, (%rax)
    773f: 00 7b 1a                     	addb	%bh, 26(%rbx)
    7742: 70 ff                        	jo	0x7743 <entrypoint+0x71a3>
    7744: 00 00                        	addb	%al, (%rax)
    7746: 00 00                        	addb	%al, (%rax)
    7748: 79 21                        	jns	0x776b <entrypoint+0x71cb>
    774a: 20 00                        	andb	%al, (%rax)
    774c: 00 00                        	addb	%al, (%rax)
    774e: 00 00                        	addb	%al, (%rax)
    7750: 79 22                        	jns	0x7774 <entrypoint+0x71d4>
    7752: 28 00                        	subb	%al, (%rax)
    7754: 00 00                        	addb	%al, (%rax)
    7756: 00 00                        	addb	%al, (%rax)
    7758: 79 24                        	jns	0x777e <entrypoint+0x71de>
    775a: 18 00                        	sbbb	%al, (%rax)
    775c: 00 00                        	addb	%al, (%rax)
    775e: 00 00                        	addb	%al, (%rax)
    7760: 79 a2                        	jns	0x7704 <entrypoint+0x7164>
    7762: 60                           	<unknown>
    7763: ff 00                        	incl	(%rax)
    7765: 00 00                        	addb	%al, (%rax)
    7767: 00 79 a3                     	addb	%bh, -93(%rcx)
    776a: 68 ff 00 00 00               	pushq	$255
    776f: 00 8d 00 00 00 04            	addb	%cl, 67108864(%rbp)
    7775: 00 00                        	addb	%al, (%rax)
    7777: 00 bf 01 00 00 00            	addb	%bh, 1(%rdi)
    777d: 00 00                        	addb	%al, (%rax)
    777f: 00 b7 00 00 00 01            	addb	%dh, 16777216(%rdi)
    7785: 00 00                        	addb	%al, (%rax)
    7787: 00 55 01                     	addb	%dl, 1(%rbp)
    778a: aa                           	stosb	%al, %es:(%rdi)
    778b: ff 00                        	incl	(%rax)
    778d: 00 00                        	addb	%al, (%rax)
    778f: 00 79 a1                     	addb	%bh, -95(%rcx)
    7792: 78 ff                        	js	0x7793 <entrypoint+0x71f3>
    7794: 00 00                        	addb	%al, (%rax)
    7796: 00 00                        	addb	%al, (%rax)
    7798: 79 12                        	jns	0x77ac <entrypoint+0x720c>
    779a: 28 00                        	subb	%al, (%rax)
    779c: 00 00                        	addb	%al, (%rax)
    779e: 00 00                        	addb	%al, (%rax)
    77a0: 7b 2a                        	jnp	0x77cc <entrypoint+0x722c>
    77a2: 68 ff 00 00 00               	pushq	$255
    77a7: 00 79 11                     	addb	%bh, 17(%rcx)
    77aa: 20 00                        	andb	%al, (%rax)
    77ac: 00 00                        	addb	%al, (%rax)
    77ae: 00 00                        	addb	%al, (%rax)
    77b0: 7b 1a                        	jnp	0x77cc <entrypoint+0x722c>
    77b2: 78 ff                        	js	0x77b3 <entrypoint+0x7213>
    77b4: 00 00                        	addb	%al, (%rax)
    77b6: 00 00                        	addb	%al, (%rax)
    77b8: bf a1 00 00 00               	movl	$161, %edi
    77bd: 00 00                        	addb	%al, (%rax)
    77bf: 00 07                        	addb	%al, (%rdi)
    77c1: 01 00                        	addl	%eax, (%rax)
    77c3: 00 80 ff ff ff b7            	addb	%al, -1207959553(%rax)
    77c9: 02 00                        	addb	(%rax), %al
    77cb: 00 00                        	addb	%al, (%rax)
    77cd: 00 00                        	addb	%al, (%rax)
    77cf: 00 bf 93 00 00 00            	addb	%bh, 147(%rdi)
    77d5: 00 00                        	addb	%al, (%rax)
    77d7: 00 85 10 00 00 d5            	addb	%al, -721420272(%rbp)
    77dd: f5                           	cmc
    77de: ff ff                        	<unknown>
    77e0: 79 a8                        	jns	0x778a <entrypoint+0x71ea>
    77e2: 88 ff                        	movb	%bh, %bh
    77e4: 00 00                        	addb	%al, (%rax)
    77e6: 00 00                        	addb	%al, (%rax)
    77e8: 79 a9                        	jns	0x7793 <entrypoint+0x71f3>
    77ea: 80 ff 00                     	cmpb	$0, %bh
    77ed: 00 00                        	addb	%al, (%rax)
    77ef: 00 05 00 0b 00 00            	addb	%al, 2816(%rip)  # 82f5 <entrypoint+0x7d55>
    77f5: 00 00                        	addb	%al, (%rax)
    77f7: 00 57 07                     	addb	%dl, 7(%rdi)
    77fa: 00 00                        	addb	%al, (%rax)
    77fc: 01 00                        	addl	%eax, (%rax)
    77fe: 00 00                        	addb	%al, (%rax)
    7800: 55                           	pushq	%rbp
    7801: 07                           	<unknown>
    7802: 9b                           	wait
    7803: ff 00                        	incl	(%rax)
    7805: 00 00                        	addb	%al, (%rax)
    7807: 00 79 a1                     	addb	%bh, -95(%rcx)
    780a: 68 ff 00 00 00               	pushq	$255
    780f: 00 79 13                     	addb	%bh, 19(%rcx)
    7812: 20 00                        	andb	%al, (%rax)
    7814: 00 00                        	addb	%al, (%rax)
    7816: 00 00                        	addb	%al, (%rax)
    7818: 79 a1                        	jns	0x77bb <entrypoint+0x721b>
    781a: 78 ff                        	js	0x781b <entrypoint+0x727b>
    781c: 00 00                        	addb	%al, (%rax)
    781e: 00 00                        	addb	%al, (%rax)
    7820: 79 a2                        	jns	0x77c4 <entrypoint+0x7224>
    7822: 70 ff                        	jo	0x7823 <entrypoint+0x7283>
    7824: 00 00                        	addb	%al, (%rax)
    7826: 00 00                        	addb	%al, (%rax)
    7828: 8d 00                        	leal	(%rax), %eax
    782a: 00 00                        	addb	%al, (%rax)
    782c: 03 00                        	addl	(%rax), %eax
    782e: 00 00                        	addb	%al, (%rax)
    7830: bf 01 00 00 00               	movl	$1, %edi
    7835: 00 00                        	addb	%al, (%rax)
    7837: 00 b7 00 00 00 01            	addb	%dh, 16777216(%rdi)
    783d: 00 00                        	addb	%al, (%rax)
    783f: 00 bf 69 00 00 00            	addb	%bh, 105(%rdi)
    7845: 00 00                        	addb	%al, (%rax)
    7847: 00 55 01                     	addb	%dl, 1(%rbp)
    784a: 92                           	xchgl	%edx, %eax
    784b: ff 00                        	incl	(%rax)
    784d: 00 00                        	addb	%al, (%rax)
    784f: 00 b7 00 00 00 00            	addb	%dh, (%rdi)
    7855: 00 00                        	addb	%al, (%rax)
    7857: 00 3d 89 90 ff 00            	addb	%bh, 16748681(%rip)  # 10008e6
    785d: 00 00                        	addb	%al, (%rax)
    785f: 00 b7 07 00 00 01            	addb	%dh, 16777223(%rdi)
    7865: 00 00                        	addb	%al, (%rax)
    7867: 00 b7 01 00 00 01            	addb	%dh, 16777217(%rdi)
    786d: 00 00                        	addb	%al, (%rax)
    786f: 00 85 10 00 00 ca            	addb	%al, -905969648(%rbp)
    7875: 00 00                        	addb	%al, (%rax)
    7877: 00 bf 96 00 00 00            	addb	%bh, 150(%rdi)
    787d: 00 00                        	addb	%al, (%rax)
    787f: 00 0f                        	addb	%cl, (%rdi)
    7881: 06                           	<unknown>
    7882: 00 00                        	addb	%al, (%rax)
    7884: 00 00                        	addb	%al, (%rax)
    7886: 00 00                        	addb	%al, (%rax)
    7888: b7 00                        	movb	$0, %bh
    788a: 00 00                        	addb	%al, (%rax)
    788c: 00 00                        	addb	%al, (%rax)
    788e: 00 00                        	addb	%al, (%rax)
    7890: 2d 69 ec ff 00               	subl	$16772201, %eax
    7895: 00 00                        	addb	%al, (%rax)
    7897: 00 b7 07 00 00 00            	addb	%dh, 7(%rdi)
    789d: 00 00                        	addb	%al, (%rax)
    789f: 00 05 00 ea ff 00            	addb	%al, 16771584(%rip)  # 10062a5
    78a5: 00 00                        	addb	%al, (%rax)
    78a7: 00 79 14                     	addb	%bh, 20(%rcx)
    78aa: 20 00                        	andb	%al, (%rax)
    78ac: 00 00                        	addb	%al, (%rax)
    78ae: 00 00                        	addb	%al, (%rax)
    78b0: 79 11                        	jns	0x78c3 <entrypoint+0x7323>
    78b2: 28 00                        	subb	%al, (%rax)
    78b4: 00 00                        	addb	%al, (%rax)
    78b6: 00 00                        	addb	%al, (%rax)
    78b8: 79 15                        	jns	0x78cf <entrypoint+0x732f>
    78ba: 18 00                        	sbbb	%al, (%rax)
    78bc: 00 00                        	addb	%al, (%rax)
    78be: 00 00                        	addb	%al, (%rax)
    78c0: bf 41 00 00 00               	movl	$65, %edi
    78c5: 00 00                        	addb	%al, (%rax)
    78c7: 00 8d 00 00 00 05            	addb	%cl, 83886080(%rbp)
    78cd: 00 00                        	addb	%al, (%rax)
    78cf: 00 95 00 00 00 00            	addb	%dl, (%rbp)
    78d5: 00 00                        	addb	%al, (%rax)
    78d7: 00 79 14                     	addb	%bh, 20(%rcx)
    78da: 28 00                        	subb	%al, (%rax)
    78dc: 00 00                        	addb	%al, (%rax)
    78de: 00 00                        	addb	%al, (%rax)
    78e0: 79 11                        	jns	0x78f3 <entrypoint+0x7353>
    78e2: 20 00                        	andb	%al, (%rax)
    78e4: 00 00                        	addb	%al, (%rax)
    78e6: 00 00                        	addb	%al, (%rax)
    78e8: 79 23                        	jns	0x790d <entrypoint+0x736d>
    78ea: 28 00                        	subb	%al, (%rax)
    78ec: 00 00                        	addb	%al, (%rax)
    78ee: 00 00                        	addb	%al, (%rax)
    78f0: 7b 3a                        	jnp	0x792c <entrypoint+0x738c>
    78f2: f8                           	clc
    78f3: ff 00                        	incl	(%rax)
    78f5: 00 00                        	addb	%al, (%rax)
    78f7: 00 79 23                     	addb	%bh, 35(%rcx)
    78fa: 20 00                        	andb	%al, (%rax)
    78fc: 00 00                        	addb	%al, (%rax)
    78fe: 00 00                        	addb	%al, (%rax)
    7900: 7b 3a                        	jnp	0x793c <entrypoint+0x739c>
    7902: f0                           	lock
    7903: ff 00                        	incl	(%rax)
    7905: 00 00                        	addb	%al, (%rax)
    7907: 00 79 23                     	addb	%bh, 35(%rcx)
    790a: 18 00                        	sbbb	%al, (%rax)
    790c: 00 00                        	addb	%al, (%rax)
    790e: 00 00                        	addb	%al, (%rax)
    7910: 7b 3a                        	jnp	0x794c <entrypoint+0x73ac>
    7912: e8 ff 00 00 00               	callq	0x7a16 <entrypoint+0x7476>
    7917: 00 79 23                     	addb	%bh, 35(%rcx)
    791a: 10 00                        	adcb	%al, (%rax)
    791c: 00 00                        	addb	%al, (%rax)
    791e: 00 00                        	addb	%al, (%rax)
    7920: 7b 3a                        	jnp	0x795c <entrypoint+0x73bc>
    7922: e0 ff                        	loopne	0x7923 <entrypoint+0x7383>
    7924: 00 00                        	addb	%al, (%rax)
    7926: 00 00                        	addb	%al, (%rax)
    7928: 79 23                        	jns	0x794d <entrypoint+0x73ad>
    792a: 08 00                        	orb	%al, (%rax)
    792c: 00 00                        	addb	%al, (%rax)
    792e: 00 00                        	addb	%al, (%rax)
    7930: 7b 3a                        	jnp	0x796c <entrypoint+0x73cc>
    7932: d8 ff                        	fdivr	%st(7), %st
    7934: 00 00                        	addb	%al, (%rax)
    7936: 00 00                        	addb	%al, (%rax)
    7938: 79 22                        	jns	0x795c <entrypoint+0x73bc>
    793a: 00 00                        	addb	%al, (%rax)
    793c: 00 00                        	addb	%al, (%rax)
    793e: 00 00                        	addb	%al, (%rax)
    7940: 7b 2a                        	jnp	0x796c <entrypoint+0x73cc>
    7942: d0 ff                        	sarb	%bh
    7944: 00 00                        	addb	%al, (%rax)
    7946: 00 00                        	addb	%al, (%rax)
    7948: bf a3 00 00 00               	movl	$163, %edi
    794d: 00 00                        	addb	%al, (%rax)
    794f: 00 07                        	addb	%al, (%rdi)
    7951: 03 00                        	addl	(%rax), %eax
    7953: 00 d0                        	addb	%dl, %al
    7955: ff ff                        	<unknown>
    7957: ff bf 42 00 00 00            	<unknown>
    795d: 00 00                        	addb	%al, (%rax)
    795f: 00 85 10 00 00 57            	addb	%al, 1459617808(%rbp)
    7965: fc                           	cld
    7966: ff ff                        	<unknown>
    7968: 95                           	xchgl	%ebp, %eax
    7969: 00 00                        	addb	%al, (%rax)
    796b: 00 00                        	addb	%al, (%rax)
    796d: 00 00                        	addb	%al, (%rax)
    796f: 00 71 10                     	addb	%dh, 16(%rcx)
    7972: 50                           	pushq	%rax
    7973: 00 00                        	addb	%al, (%rax)
    7975: 00 00                        	addb	%al, (%rax)
    7977: 00 57 00                     	addb	%dl, (%rdi)
    797a: 00 00                        	addb	%al, (%rax)
    797c: 04 00                        	addb	$0, %al
    797e: 00 00                        	addb	%al, (%rax)
    7980: 77 00                        	ja	0x7982 <entrypoint+0x73e2>
    7982: 00 00                        	addb	%al, (%rax)
    7984: 02 00                        	addb	(%rax), %al
    7986: 00 00                        	addb	%al, (%rax)
    7988: 95                           	xchgl	%ebp, %eax
    7989: 00 00                        	addb	%al, (%rax)
    798b: 00 00                        	addb	%al, (%rax)
    798d: 00 00                        	addb	%al, (%rax)
    798f: 00 71 10                     	addb	%dh, 16(%rcx)
    7992: 50                           	pushq	%rax
    7993: 00 00                        	addb	%al, (%rax)
    7995: 00 00                        	addb	%al, (%rax)
    7997: 00 57 00                     	addb	%dl, (%rdi)
    799a: 00 00                        	addb	%al, (%rax)
    799c: 10 00                        	adcb	%al, (%rax)
    799e: 00 00                        	addb	%al, (%rax)
    79a0: 77 00                        	ja	0x79a2 <entrypoint+0x7402>
    79a2: 00 00                        	addb	%al, (%rax)
    79a4: 04 00                        	addb	$0, %al
    79a6: 00 00                        	addb	%al, (%rax)
    79a8: 95                           	xchgl	%ebp, %eax
    79a9: 00 00                        	addb	%al, (%rax)
    79ab: 00 00                        	addb	%al, (%rax)
    79ad: 00 00                        	addb	%al, (%rax)
    79af: 00 71 10                     	addb	%dh, 16(%rcx)
    79b2: 50                           	pushq	%rax
    79b3: 00 00                        	addb	%al, (%rax)
    79b5: 00 00                        	addb	%al, (%rax)
    79b7: 00 57 00                     	addb	%dl, (%rdi)
    79ba: 00 00                        	addb	%al, (%rax)
    79bc: 20 00                        	andb	%al, (%rax)
    79be: 00 00                        	addb	%al, (%rax)
    79c0: 77 00                        	ja	0x79c2 <entrypoint+0x7422>
    79c2: 00 00                        	addb	%al, (%rax)
    79c4: 05 00 00 00 95               	addl	$2499805184, %eax
    79c9: 00 00                        	addb	%al, (%rax)
    79cb: 00 00                        	addb	%al, (%rax)
    79cd: 00 00                        	addb	%al, (%rax)
    79cf: 00 85 10 00 00 09            	addb	%al, 150994960(%rbp)
    79d5: fb                           	sti
    79d6: ff ff                        	<unknown>
    79d8: 95                           	xchgl	%ebp, %eax
    79d9: 00 00                        	addb	%al, (%rax)
    79db: 00 00                        	addb	%al, (%rax)
    79dd: 00 00                        	addb	%al, (%rax)
    79df: 00 bf 26 00 00 00            	addb	%bh, 38(%rdi)
    79e5: 00 00                        	addb	%al, (%rax)
    79e7: 00 bf 18 00 00 00            	addb	%bh, 24(%rdi)
    79ed: 00 00                        	addb	%al, (%rax)
    79ef: 00 79 61                     	addb	%bh, 97(%rcx)
    79f2: 20 00                        	andb	%al, (%rax)
    79f4: 00 00                        	addb	%al, (%rax)
    79f6: 00 00                        	addb	%al, (%rax)
    79f8: 79 62                        	jns	0x7a5c <entrypoint+0x74bc>
    79fa: 28 00                        	subb	%al, (%rax)
    79fc: 00 00                        	addb	%al, (%rax)
    79fe: 00 00                        	addb	%al, (%rax)
    7a00: 79 23                        	jns	0x7a25 <entrypoint+0x7485>
    7a02: 20 00                        	andb	%al, (%rax)
    7a04: 00 00                        	addb	%al, (%rax)
    7a06: 00 00                        	addb	%al, (%rax)
    7a08: b7 02                        	movb	$2, %bh
    7a0a: 00 00                        	addb	%al, (%rax)
    7a0c: 27                           	<unknown>
    7a0d: 00 00                        	addb	%al, (%rax)
    7a0f: 00 8d 00 00 00 03            	addb	%cl, 50331648(%rbp)
    7a15: 00 00                        	addb	%al, (%rax)
    7a17: 00 b7 07 00 00 01            	addb	%dh, 16777223(%rdi)
    7a1d: 00 00                        	addb	%al, (%rax)
    7a1f: 00 15 00 02 00 00            	addb	%dl, 512(%rip)  # 7c25 <entrypoint+0x7685>
    7a25: 00 00                        	addb	%al, (%rax)
    7a27: 00 bf 70 00 00 00            	addb	%bh, 112(%rdi)
    7a2d: 00 00                        	addb	%al, (%rax)
    7a2f: 00 95 00 00 00 00            	addb	%dl, (%rbp)
    7a35: 00 00                        	addb	%al, (%rax)
    7a37: 00 b7 02 00 00 02            	addb	%dh, 33554434(%rdi)
    7a3d: 00 00                        	addb	%al, (%rax)
    7a3f: 00 61 88                     	addb	%ah, -120(%rcx)
    7a42: 00 00                        	addb	%al, (%rax)
    7a44: 00 00                        	addb	%al, (%rax)
    7a46: 00 00                        	addb	%al, (%rax)
    7a48: 65 08 07                     	orb	%al, %gs:(%rdi)
    7a4b: 00 21                        	addb	%ah, (%rcx)
    7a4d: 00 00                        	addb	%al, (%rax)
    7a4f: 00 b7 03 00 00 74            	addb	%dh, 1946157059(%rdi)
    7a55: 00 00                        	addb	%al, (%rax)
    7a57: 00 15 08 4d 00 09            	addb	%dl, 151014664(%rip)  # 900c765
    7a5d: 00 00                        	addb	%al, (%rax)
    7a5f: 00 15 08 0e 00 0a            	addb	%dl, 167775752(%rip)  # a00886d
    7a65: 00 00                        	addb	%al, (%rax)
    7a67: 00 15 08 01 00 0d            	addb	%dl, 218104072(%rip)  # d007b75
    7a6d: 00 00                        	addb	%al, (%rax)
    7a6f: 00 05 00 08 00 00            	addb	%al, 2048(%rip)  # 8275 <entrypoint+0x7cd5>
    7a75: 00 00                        	addb	%al, (%rax)
    7a77: 00 b7 03 00 00 72            	addb	%dh, 1912602627(%rdi)
    7a7d: 00 00                        	addb	%al, (%rax)
    7a7f: 00 05 00 48 00 00            	addb	%al, 18432(%rip)  # c285
    7a85: 00 00                        	addb	%al, (%rax)
    7a87: 00 15 08 03 00 22            	addb	%dl, 570426120(%rip)  # 22007d95
    7a8d: 00 00                        	addb	%al, (%rax)
    7a8f: 00 15 08 02 00 27            	addb	%dl, 654311944(%rip)  # 27007c9d
    7a95: 00 00                        	addb	%al, (%rax)
    7a97: 00 15 08 01 00 5c            	addb	%dl, 1543504136(%rip)  # 5c007ba5
    7a9d: 00 00                        	addb	%al, (%rax)
    7a9f: 00 05 00 02 00 00            	addb	%al, 512(%rip)  # 7ca5 <entrypoint+0x7705>
    7aa5: 00 00                        	addb	%al, (%rax)
    7aa7: 00 bf 83 00 00 00            	addb	%bh, 131(%rdi)
    7aad: 00 00                        	addb	%al, (%rax)
    7aaf: 00 05 00 42 00 00            	addb	%al, 16896(%rip)  # bcb5
    7ab5: 00 00                        	addb	%al, (%rax)
    7ab7: 00 bf 81 00 00 00            	addb	%bh, 129(%rdi)
    7abd: 00 00                        	addb	%al, (%rax)
    7abf: 00 85 10 00 00 20            	addb	%al, 536870928(%rbp)
    7ac5: fa                           	cli
    7ac6: ff ff                        	<unknown>
    7ac8: 15 00 03 00 00               	adcl	$768, %eax
    7acd: 00 00                        	addb	%al, (%rax)
    7acf: 00 05 00 07 00 00            	addb	%al, 1792(%rip)  # 81d5 <entrypoint+0x7c35>
    7ad5: 00 00                        	addb	%al, (%rax)
    7ad7: 00 b7 03 00 00 6e            	addb	%dh, 1845493763(%rdi)
    7add: 00 00                        	addb	%al, (%rax)
    7adf: 00 05 00 3c 00 00            	addb	%al, 15360(%rip)  # b6e5
    7ae5: 00 00                        	addb	%al, (%rax)
    7ae7: 00 bf 81 00 00 00            	addb	%bh, 129(%rdi)
    7aed: 00 00                        	addb	%al, (%rax)
    7aef: 00 85 10 00 00 cc            	addb	%al, -872415216(%rbp)
    7af5: f9                           	stc
    7af6: ff ff                        	<unknown>
    7af8: b7 02                        	movb	$2, %bh
    7afa: 00 00                        	addb	%al, (%rax)
    7afc: 01 00                        	addl	%eax, (%rax)
    7afe: 00 00                        	addb	%al, (%rax)
    7b00: bf 83 00 00 00               	movl	$131, %edi
    7b05: 00 00                        	addb	%al, (%rax)
    7b07: 00 55 00                     	addb	%dl, (%rbp)
    7b0a: 37                           	<unknown>
    7b0b: 00 00                        	addb	%al, (%rax)
    7b0d: 00 00                        	addb	%al, (%rax)
    7b0f: 00 bf 82 00 00 00            	addb	%bh, 130(%rdi)
    7b15: 00 00                        	addb	%al, (%rax)
    7b17: 00 47 02                     	addb	%al, 2(%rdi)
    7b1a: 00 00                        	addb	%al, (%rax)
    7b1c: 01 00                        	addl	%eax, (%rax)
    7b1e: 00 00                        	addb	%al, (%rax)
    7b20: bf 21 00 00 00               	movl	$33, %edi
    7b25: 00 00                        	addb	%al, (%rax)
    7b27: 00 77 01                     	addb	%dh, 1(%rdi)
    7b2a: 00 00                        	addb	%al, (%rax)
    7b2c: 01 00                        	addl	%eax, (%rax)
    7b2e: 00 00                        	addb	%al, (%rax)
    7b30: 4f 12 00                     	adcb	(%r8), %r8b
    7b33: 00 00                        	addb	%al, (%rax)
    7b35: 00 00                        	addb	%al, (%rax)
    7b37: 00 bf 21 00 00 00            	addb	%bh, 33(%rdi)
    7b3d: 00 00                        	addb	%al, (%rax)
    7b3f: 00 77 01                     	addb	%dh, 1(%rdi)
    7b42: 00 00                        	addb	%al, (%rax)
    7b44: 02 00                        	addb	(%rax), %al
    7b46: 00 00                        	addb	%al, (%rax)
    7b48: 4f 12 00                     	adcb	(%r8), %r8b
    7b4b: 00 00                        	addb	%al, (%rax)
    7b4d: 00 00                        	addb	%al, (%rax)
    7b4f: 00 bf 21 00 00 00            	addb	%bh, 33(%rdi)
    7b55: 00 00                        	addb	%al, (%rax)
    7b57: 00 77 01                     	addb	%dh, 1(%rdi)
    7b5a: 00 00                        	addb	%al, (%rax)
    7b5c: 04 00                        	addb	$0, %al
    7b5e: 00 00                        	addb	%al, (%rax)
    7b60: 4f 12 00                     	adcb	(%r8), %r8b
    7b63: 00 00                        	addb	%al, (%rax)
    7b65: 00 00                        	addb	%al, (%rax)
    7b67: 00 69 a1                     	addb	%ch, -95(%rcx)
    7b6a: d8 ff                        	fdivr	%st(7), %st
    7b6c: 00 00                        	addb	%al, (%rax)
    7b6e: 00 00                        	addb	%al, (%rax)
    7b70: 6b 1a f4                     	imull	$-12, (%rdx), %ebx
    7b73: ff 00                        	incl	(%rax)
    7b75: 00 00                        	addb	%al, (%rax)
    7b77: 00 71 a1                     	addb	%dh, -95(%rcx)
    7b7a: da ff                        	<unknown>
    7b7c: 00 00                        	addb	%al, (%rax)
    7b7e: 00 00                        	addb	%al, (%rax)
    7b80: 73 1a                        	jae	0x7b9c <entrypoint+0x75fc>
    7b82: f6 ff                        	idivb	%bh
    7b84: 00 00                        	addb	%al, (%rax)
    7b86: 00 00                        	addb	%al, (%rax)
    7b88: bf 21 00 00 00               	movl	$33, %edi
    7b8d: 00 00                        	addb	%al, (%rax)
    7b8f: 00 77 01                     	addb	%dh, 1(%rdi)
    7b92: 00 00                        	addb	%al, (%rax)
    7b94: 08 00                        	orb	%al, (%rax)
    7b96: 00 00                        	addb	%al, (%rax)
    7b98: 4f 12 00                     	adcb	(%r8), %r8b
    7b9b: 00 00                        	addb	%al, (%rax)
    7b9d: 00 00                        	addb	%al, (%rax)
    7b9f: 00 bf 21 00 00 00            	addb	%bh, 33(%rdi)
    7ba5: 00 00                        	addb	%al, (%rax)
    7ba7: 00 77 01                     	addb	%dh, 1(%rdi)
    7baa: 00 00                        	addb	%al, (%rax)
    7bac: 10 00                        	adcb	%al, (%rax)
    7bae: 00 00                        	addb	%al, (%rax)
    7bb0: 4f 12 00                     	adcb	(%r8), %r8b
    7bb3: 00 00                        	addb	%al, (%rax)
    7bb5: 00 00                        	addb	%al, (%rax)
    7bb7: 00 bf 21 00 00 00            	addb	%bh, 33(%rdi)
    7bbd: 00 00                        	addb	%al, (%rax)
    7bbf: 00 77 01                     	addb	%dh, 1(%rdi)
    7bc2: 00 00                        	addb	%al, (%rax)
    7bc4: 20 00                        	andb	%al, (%rax)
    7bc6: 00 00                        	addb	%al, (%rax)
    7bc8: 4f 12 00                     	adcb	(%r8), %r8b
    7bcb: 00 00                        	addb	%al, (%rax)
    7bcd: 00 00                        	addb	%al, (%rax)
    7bcf: 00 a7 02 00 00 ff            	addb	%ah, -16777214(%rdi)
    7bd5: ff ff                        	<unknown>
    7bd7: ff 18                        	lcalll	*(%rax)
    7bd9: 01 00                        	addl	%eax, (%rax)
    7bdb: 00 55 55                     	addb	%dl, 85(%rbp)
    7bde: 55                           	pushq	%rbp
    7bdf: 55                           	pushq	%rbp
    7be0: 00 00                        	addb	%al, (%rax)
    7be2: 00 00                        	addb	%al, (%rax)
    7be4: 55                           	pushq	%rbp
    7be5: 55                           	pushq	%rbp
    7be6: 55                           	pushq	%rbp
    7be7: 55                           	pushq	%rbp
    7be8: bf 23 00 00 00               	movl	$35, %edi
    7bed: 00 00                        	addb	%al, (%rax)
    7bef: 00 77 03                     	addb	%dh, 3(%rdi)
    7bf2: 00 00                        	addb	%al, (%rax)
    7bf4: 01 00                        	addl	%eax, (%rax)
    7bf6: 00 00                        	addb	%al, (%rax)
    7bf8: 5f                           	popq	%rdi
    7bf9: 13 00                        	adcl	(%rax), %eax
    7bfb: 00 00                        	addb	%al, (%rax)
    7bfd: 00 00                        	addb	%al, (%rax)
    7bff: 00 1f                        	addb	%bl, (%rdi)
    7c01: 32 00                        	xorb	(%rax), %al
    7c03: 00 00                        	addb	%al, (%rax)
    7c05: 00 00                        	addb	%al, (%rax)
    7c07: 00 18                        	addb	%bl, (%rax)
    7c09: 03 00                        	addl	(%rax), %eax
    7c0b: 00 33                        	addb	%dh, (%rbx)
    7c0d: 33 33                        	xorl	(%rbx), %esi
    7c0f: 33 00                        	xorl	(%rax), %eax
    7c11: 00 00                        	addb	%al, (%rax)
    7c13: 00 33                        	addb	%dh, (%rbx)
    7c15: 33 33                        	xorl	(%rbx), %esi
    7c17: 33 bf 21 00 00 00            	xorl	33(%rdi), %edi
    7c1d: 00 00                        	addb	%al, (%rax)
    7c1f: 00 5f 31                     	addb	%bl, 49(%rdi)
    7c22: 00 00                        	addb	%al, (%rax)
    7c24: 00 00                        	addb	%al, (%rax)
    7c26: 00 00                        	addb	%al, (%rax)
    7c28: 77 02                        	ja	0x7c2c <entrypoint+0x768c>
    7c2a: 00 00                        	addb	%al, (%rax)
    7c2c: 02 00                        	addb	(%rax), %al
    7c2e: 00 00                        	addb	%al, (%rax)
    7c30: 5f                           	popq	%rdi
    7c31: 32 00                        	xorb	(%rax), %al
    7c33: 00 00                        	addb	%al, (%rax)
    7c35: 00 00                        	addb	%al, (%rax)
    7c37: 00 0f                        	addb	%cl, (%rdi)
    7c39: 21 00                        	andl	%eax, (%rax)
    7c3b: 00 00                        	addb	%al, (%rax)
    7c3d: 00 00                        	addb	%al, (%rax)
    7c3f: 00 bf 12 00 00 00            	addb	%bh, 18(%rdi)
    7c45: 00 00                        	addb	%al, (%rax)
    7c47: 00 77 02                     	addb	%dh, 2(%rdi)
    7c4a: 00 00                        	addb	%al, (%rax)
    7c4c: 04 00                        	addb	$0, %al
    7c4e: 00 00                        	addb	%al, (%rax)
    7c50: 0f 21 00                     	<unknown>
    7c53: 00 00                        	addb	%al, (%rax)
    7c55: 00 00                        	addb	%al, (%rax)
    7c57: 00 18                        	addb	%bl, (%rax)
    7c59: 02 00                        	addb	(%rax), %al
    7c5b: 00 0f                        	addb	%cl, (%rdi)
    7c5d: 0f 0f 0f 00                  	<unknown>
    7c61: 00 00                        	addb	%al, (%rax)
    7c63: 00 0f                        	addb	%cl, (%rdi)
    7c65: 0f 0f 0f 5f                  	<unknown>
    7c69: 21 00                        	andl	%eax, (%rax)
    7c6b: 00 00                        	addb	%al, (%rax)
    7c6d: 00 00                        	addb	%al, (%rax)
    7c6f: 00 18                        	addb	%bl, (%rax)
    7c71: 02 00                        	addb	(%rax), %al
    7c73: 00 01                        	addb	%al, (%rcx)
    7c75: 01 01                        	addl	%eax, (%rcx)
    7c77: 01 00                        	addl	%eax, (%rax)
    7c79: 00 00                        	addb	%al, (%rax)
    7c7b: 00 01                        	addb	%al, (%rcx)
    7c7d: 01 01                        	addl	%eax, (%rcx)
    7c7f: 01 2f                        	addl	%ebp, (%rdi)
    7c81: 21 00                        	andl	%eax, (%rax)
    7c83: 00 00                        	addb	%al, (%rax)
    7c85: 00 00                        	addb	%al, (%rax)
    7c87: 00 77 01                     	addb	%dh, 1(%rdi)
    7c8a: 00 00                        	addb	%al, (%rax)
    7c8c: 38 00                        	cmpb	%al, (%rax)
    7c8e: 00 00                        	addb	%al, (%rax)
    7c90: 07                           	<unknown>
    7c91: 01 00                        	addl	%eax, (%rax)
    7c93: 00 e0                        	addb	%ah, %al
    7c95: ff ff                        	<unknown>
    7c97: ff 18                        	lcalll	*(%rax)
    7c99: 02 00                        	addb	(%rax), %al
    7c9b: 00 fc                        	addb	%bh, %ah
    7c9d: ff ff                        	<unknown>
    7c9f: ff 00                        	incl	(%rax)
    7ca1: 00 00                        	addb	%al, (%rax)
    7ca3: 00 00                        	addb	%al, (%rax)
    7ca5: 00 00                        	addb	%al, (%rax)
    7ca7: 00 5f 21                     	addb	%bl, 33(%rdi)
    7caa: 00 00                        	addb	%al, (%rax)
    7cac: 00 00                        	addb	%al, (%rax)
    7cae: 00 00                        	addb	%al, (%rax)
    7cb0: b7 02                        	movb	$2, %bh
    7cb2: 00 00                        	addb	%al, (%rax)
    7cb4: 03 00                        	addl	(%rax), %eax
    7cb6: 00 00                        	addb	%al, (%rax)
    7cb8: 77 01                        	ja	0x7cbb <entrypoint+0x771b>
    7cba: 00 00                        	addb	%al, (%rax)
    7cbc: 02 00                        	addb	(%rax), %al
    7cbe: 00 00                        	addb	%al, (%rax)
    7cc0: a7                           	cmpsl	%es:(%rdi), (%rsi)
    7cc1: 01 00                        	addl	%eax, (%rax)
    7cc3: 00 07                        	addb	%al, (%rdi)
    7cc5: 00 00                        	addb	%al, (%rax)
    7cc7: 00 b7 04 00 00 05            	addb	%dh, 83886084(%rdi)
    7ccd: 00 00                        	addb	%al, (%rax)
    7ccf: 00 73 4a                     	addb	%dh, 74(%rbx)
    7cd2: ec                           	inb	%dx, %al
    7cd3: ff 00                        	incl	(%rax)
    7cd5: 00 00                        	addb	%al, (%rax)
    7cd7: 00 63 8a                     	addb	%ah, -118(%rbx)
    7cda: e8 ff 00 00 00               	callq	0x7dde <entrypoint+0x783e>
    7cdf: 00 7b 1a                     	addb	%bh, 26(%rbx)
    7ce2: e0 ff                        	loopne	0x7ce3 <entrypoint+0x7743>
    7ce4: 00 00                        	addb	%al, (%rax)
    7ce6: 00 00                        	addb	%al, (%rax)
    7ce8: 63 3a                        	movslq	(%rdx), %edi
    7cea: dc ff                        	fdivr	%st, %st(7)
    7cec: 00 00                        	addb	%al, (%rax)
    7cee: 00 00                        	addb	%al, (%rax)
    7cf0: 63 2a                        	movslq	(%rdx), %ebp
    7cf2: d8 ff                        	fdivr	%st(7), %st
    7cf4: 00 00                        	addb	%al, (%rax)
    7cf6: 00 00                        	addb	%al, (%rax)
    7cf8: 69 a1 f4 ff 00 00 00 00 6b 1a	imull	$443219968, 65524(%rcx), %esp
    7d02: ed                           	inl	%dx, %eax
    7d03: ff 00                        	incl	(%rax)
    7d05: 00 00                        	addb	%al, (%rax)
    7d07: 00 71 a1                     	addb	%dh, -95(%rcx)
    7d0a: f6 ff                        	idivb	%bh
    7d0c: 00 00                        	addb	%al, (%rax)
    7d0e: 00 00                        	addb	%al, (%rax)
    7d10: 73 1a                        	jae	0x7d2c <entrypoint+0x778c>
    7d12: ef                           	outl	%eax, %dx
    7d13: ff 00                        	incl	(%rax)
    7d15: 00 00                        	addb	%al, (%rax)
    7d17: 00 bf a1 00 00 00            	addb	%bh, 161(%rdi)
    7d1d: 00 00                        	addb	%al, (%rax)
    7d1f: 00 07                        	addb	%al, (%rdi)
    7d21: 01 00                        	addl	%eax, (%rax)
    7d23: 00 c0                        	addb	%al, %al
    7d25: ff ff                        	<unknown>
    7d27: ff bf a2 00 00 00            	<unknown>
    7d2d: 00 00                        	addb	%al, (%rax)
    7d2f: 00 07                        	addb	%al, (%rdi)
    7d31: 02 00                        	addb	(%rax), %al
    7d33: 00 d8                        	addb	%bl, %al
    7d35: ff ff                        	<unknown>
    7d37: ff 85 10 00 00 c8            	incl	-939524080(%rbp)
    7d3d: fb                           	sti
    7d3e: ff ff                        	<unknown>
    7d40: 79 a1                        	jns	0x7ce3 <entrypoint+0x7743>
    7d42: d0 ff                        	sarb	%bh
    7d44: 00 00                        	addb	%al, (%rax)
    7d46: 00 00                        	addb	%al, (%rax)
    7d48: 7b 1a                        	jnp	0x7d64 <entrypoint+0x77c4>
    7d4a: e8 ff 00 00 00               	callq	0x7e4e <entrypoint+0x78ae>
    7d4f: 00 79 a1                     	addb	%bh, -95(%rcx)
    7d52: c8 ff 00 00                  	enter	$255, $0
    7d56: 00 00                        	addb	%al, (%rax)
    7d58: 7b 1a                        	jnp	0x7d74 <entrypoint+0x77d4>
    7d5a: e0 ff                        	loopne	0x7d5b <entrypoint+0x77bb>
    7d5c: 00 00                        	addb	%al, (%rax)
    7d5e: 00 00                        	addb	%al, (%rax)
    7d60: 79 a1                        	jns	0x7d03 <entrypoint+0x7763>
    7d62: c0 ff 00                     	sarb	$0, %bh
    7d65: 00 00                        	addb	%al, (%rax)
    7d67: 00 7b 1a                     	addb	%bh, 26(%rbx)
    7d6a: d8 ff                        	fdivr	%st(7), %st
    7d6c: 00 00                        	addb	%al, (%rax)
    7d6e: 00 00                        	addb	%al, (%rax)
    7d70: 05 00 07 00 00               	addl	$1792, %eax
    7d75: 00 00                        	addb	%al, (%rax)
    7d77: 00 79 61                     	addb	%bh, 97(%rcx)
    7d7a: 20 00                        	andb	%al, (%rax)
    7d7c: 00 00                        	addb	%al, (%rax)
    7d7e: 00 00                        	addb	%al, (%rax)
    7d80: 79 62                        	jns	0x7de4 <entrypoint+0x7844>
    7d82: 28 00                        	subb	%al, (%rax)
    7d84: 00 00                        	addb	%al, (%rax)
    7d86: 00 00                        	addb	%al, (%rax)
    7d88: 79 23                        	jns	0x7dad <entrypoint+0x780d>
    7d8a: 20 00                        	andb	%al, (%rax)
    7d8c: 00 00                        	addb	%al, (%rax)
    7d8e: 00 00                        	addb	%al, (%rax)
    7d90: bf 02 00 00 00               	movl	$2, %edi
    7d95: 00 00                        	addb	%al, (%rax)
    7d97: 00 8d 00 00 00 03            	addb	%cl, 50331648(%rbp)
    7d9d: 00 00                        	addb	%al, (%rax)
    7d9f: 00 15 00 01 00 00            	addb	%dl, 256(%rip)  # 7ea5 <entrypoint+0x7905>
    7da5: 00 00                        	addb	%al, (%rax)
    7da7: 00 05 00 8f ff 00            	addb	%al, 16748288(%rip)  # 1000cad
    7dad: 00 00                        	addb	%al, (%rax)
    7daf: 00 bf a1 00 00 00            	addb	%bh, 161(%rdi)
    7db5: 00 00                        	addb	%al, (%rax)
    7db7: 00 07                        	addb	%al, (%rdi)
    7db9: 01 00                        	addl	%eax, (%rax)
    7dbb: 00 d8                        	addb	%bl, %al
    7dbd: ff ff                        	<unknown>
    7dbf: ff 85 10 00 00 b3            	incl	-1291845616(%rbp)
    7dc5: fb                           	sti
    7dc6: ff ff                        	<unknown>
    7dc8: 67 00 00                     	addb	%al, (%eax)
    7dcb: 00 20                        	addb	%ah, (%rax)
    7dcd: 00 00                        	addb	%al, (%rax)
    7dcf: 00 77 00                     	addb	%dh, (%rdi)
    7dd2: 00 00                        	addb	%al, (%rax)
    7dd4: 20 00                        	andb	%al, (%rax)
    7dd6: 00 00                        	addb	%al, (%rax)
    7dd8: 55                           	pushq	%rbp
    7dd9: 00 f3                        	addb	%dh, %bl
    7ddb: ff 00                        	incl	(%rax)
    7ddd: 00 11                        	addb	%dl, (%rcx)
    7ddf: 00 79 61                     	addb	%bh, 97(%rcx)
    7de2: 20 00                        	andb	%al, (%rax)
    7de4: 00 00                        	addb	%al, (%rax)
    7de6: 00 00                        	addb	%al, (%rax)
    7de8: 79 62                        	jns	0x7e4c <entrypoint+0x78ac>
    7dea: 28 00                        	subb	%al, (%rax)
    7dec: 00 00                        	addb	%al, (%rax)
    7dee: 00 00                        	addb	%al, (%rax)
    7df0: 79 23                        	jns	0x7e15 <entrypoint+0x7875>
    7df2: 20 00                        	andb	%al, (%rax)
    7df4: 00 00                        	addb	%al, (%rax)
    7df6: 00 00                        	addb	%al, (%rax)
    7df8: b7 02                        	movb	$2, %bh
    7dfa: 00 00                        	addb	%al, (%rax)
    7dfc: 27                           	<unknown>
    7dfd: 00 00                        	addb	%al, (%rax)
    7dff: 00 8d 00 00 00 03            	addb	%cl, 50331648(%rbp)
    7e05: 00 00                        	addb	%al, (%rax)
    7e07: 00 bf 07 00 00 00            	addb	%bh, 7(%rdi)
    7e0d: 00 00                        	addb	%al, (%rax)
    7e0f: 00 05 00 82 ff 00            	addb	%al, 16744960(%rip)  # 1000015
    7e15: 00 00                        	addb	%al, (%rax)
    7e17: 00 bf 21 00 00 00            	addb	%bh, 33(%rdi)
    7e1d: 00 00                        	addb	%al, (%rax)
    7e1f: 00 18                        	addb	%bl, (%rax)
    7e21: 02 00                        	addb	(%rax), %al
    7e23: 00 84 99 00 00 00 00         	addb	%al, (%rcx,%rbx,4)
    7e2a: 00 00                        	addb	%al, (%rax)
    7e2c: 00 00                        	addb	%al, (%rax)
    7e2e: 00 00                        	addb	%al, (%rax)
    7e30: b7 03                        	movb	$3, %bh
    7e32: 00 00                        	addb	%al, (%rax)
    7e34: 02 00                        	addb	(%rax), %al
    7e36: 00 00                        	addb	%al, (%rax)
    7e38: 85 10                        	testl	%edx, (%rax)
    7e3a: 00 00                        	addb	%al, (%rax)
    7e3c: 74 fe                        	je	0x7e3c <entrypoint+0x789c>
    7e3e: ff ff                        	<unknown>
    7e40: 95                           	xchgl	%ebp, %eax
    7e41: 00 00                        	addb	%al, (%rax)
    7e43: 00 00                        	addb	%al, (%rax)
    7e45: 00 00                        	addb	%al, (%rax)
    7e47: 00 79 13                     	addb	%bh, 19(%rcx)
    7e4a: 00 00                        	addb	%al, (%rax)
    7e4c: 00 00                        	addb	%al, (%rax)
    7e4e: 00 00                        	addb	%al, (%rax)
    7e50: 79 11                        	jns	0x7e63 <entrypoint+0x78c3>
    7e52: 08 00                        	orb	%al, (%rax)
    7e54: 00 00                        	addb	%al, (%rax)
    7e56: 00 00                        	addb	%al, (%rax)
    7e58: 79 14                        	jns	0x7e6e <entrypoint+0x78ce>
    7e5a: 18 00                        	sbbb	%al, (%rax)
    7e5c: 00 00                        	addb	%al, (%rax)
    7e5e: 00 00                        	addb	%al, (%rax)
    7e60: bf 31 00 00 00               	movl	$49, %edi
    7e65: 00 00                        	addb	%al, (%rax)
    7e67: 00 8d 00 00 00 04            	addb	%cl, 67108864(%rbp)
    7e6d: 00 00                        	addb	%al, (%rax)
    7e6f: 00 95 00 00 00 00            	addb	%dl, (%rbp)
    7e75: 00 00                        	addb	%al, (%rax)
    7e77: 00 bf 24 00 00 00            	addb	%bh, 36(%rdi)
    7e7d: 00 00                        	addb	%al, (%rax)
    7e7f: 00 79 13                     	addb	%bh, 19(%rcx)
    7e82: 08 00                        	orb	%al, (%rax)
    7e84: 00 00                        	addb	%al, (%rax)
    7e86: 00 00                        	addb	%al, (%rax)
    7e88: 79 12                        	jns	0x7e9c <entrypoint+0x78fc>
    7e8a: 00 00                        	addb	%al, (%rax)
    7e8c: 00 00                        	addb	%al, (%rax)
    7e8e: 00 00                        	addb	%al, (%rax)
    7e90: bf 41 00 00 00               	movl	$65, %edi
    7e95: 00 00                        	addb	%al, (%rax)
    7e97: 00 85 10 00 00 68            	addb	%al, 1744830480(%rbp)
    7e9d: fe ff                        	<unknown>
    7e9f: ff 95 00 00 00 00            	callq	*(%rbp)
    7ea5: 00 00                        	addb	%al, (%rax)
    7ea7: 00 18                        	addb	%bl, (%rax)
    7ea9: 00 00                        	addb	%al, (%rax)
    7eab: 00 1d 72 c3 74 00            	addb	%bl, 7652210(%rip)  # 754223
    7eb1: 00 00                        	addb	%al, (%rax)
    7eb3: 00 57 8d                     	addb	%dl, -115(%rdi)
    7eb6: 2a 70 95                     	subb	-107(%rax), %dh
    7eb9: 00 00                        	addb	%al, (%rax)
    7ebb: 00 00                        	addb	%al, (%rax)
    7ebd: 00 00                        	addb	%al, (%rax)
    7ebf: 00 95 00 00 00 00            	addb	%dl, (%rbp)
    7ec5: 00 00                        	addb	%al, (%rax)
    7ec7: 00 bf 10 00 00 00            	addb	%bh, 16(%rdi)
    7ecd: 00 00                        	addb	%al, (%rax)
    7ecf: 00 95 00 00 00 00            	addb	%dl, (%rbp)
    7ed5: 00 00                        	addb	%al, (%rax)
    7ed7: 00 95 00 00 00 00            	addb	%dl, (%rbp)
    7edd: 00 00                        	addb	%al, (%rax)
    7edf: 00 79 12                     	addb	%bh, 18(%rcx)
    7ee2: 10 00                        	adcb	%al, (%rax)
    7ee4: 00 00                        	addb	%al, (%rax)
    7ee6: 00 00                        	addb	%al, (%rax)
    7ee8: 79 13                        	jns	0x7efd <entrypoint+0x795d>
    7eea: 18 00                        	sbbb	%al, (%rax)
    7eec: 00 00                        	addb	%al, (%rax)
    7eee: 00 00                        	addb	%al, (%rax)
    7ef0: 79 14                        	jns	0x7f06 <entrypoint+0x7966>
    7ef2: 20 00                        	andb	%al, (%rax)
    7ef4: 00 00                        	addb	%al, (%rax)
    7ef6: 00 00                        	addb	%al, (%rax)
    7ef8: 79 15                        	jns	0x7f0f <entrypoint+0x796f>
    7efa: 00 00                        	addb	%al, (%rax)
    7efc: 00 00                        	addb	%al, (%rax)
    7efe: 00 00                        	addb	%al, (%rax)
    7f00: 79 11                        	jns	0x7f13 <entrypoint+0x7973>
    7f02: 08 00                        	orb	%al, (%rax)
    7f04: 00 00                        	addb	%al, (%rax)
    7f06: 00 00                        	addb	%al, (%rax)
    7f08: b7 00                        	movb	$0, %bh
    7f0a: 00 00                        	addb	%al, (%rax)
    7f0c: 08 00                        	orb	%al, (%rax)
    7f0e: 00 00                        	addb	%al, (%rax)
    7f10: 7b 0a                        	jnp	0x7f1c <entrypoint+0x797c>
    7f12: c8 ff 00 00                  	enter	$255, $0
    7f16: 00 00                        	addb	%al, (%rax)
    7f18: b7 00                        	movb	$0, %bh
    7f1a: 00 00                        	addb	%al, (%rax)
    7f1c: 00 00                        	addb	%al, (%rax)
    7f1e: 00 00                        	addb	%al, (%rax)
    7f20: 7b 0a                        	jnp	0x7f2c <entrypoint+0x798c>
    7f22: d0 ff                        	sarb	%bh
    7f24: 00 00                        	addb	%al, (%rax)
    7f26: 00 00                        	addb	%al, (%rax)
    7f28: 7b 0a                        	jnp	0x7f34 <entrypoint+0x7994>
    7f2a: b8 ff 00 00 00               	movl	$255, %eax
    7f2f: 00 b7 00 00 00 01            	addb	%dh, 16777216(%rdi)
    7f35: 00 00                        	addb	%al, (%rax)
    7f37: 00 7b 0a                     	addb	%bh, 10(%rbx)
    7f3a: b0 ff                        	movb	$-1, %al
    7f3c: 00 00                        	addb	%al, (%rax)
    7f3e: 00 00                        	addb	%al, (%rax)
    7f40: bf a0 00 00 00               	movl	$160, %edi
    7f45: 00 00                        	addb	%al, (%rax)
    7f47: 00 07                        	addb	%al, (%rdi)
    7f49: 00 00                        	addb	%al, (%rax)
    7f4b: 00 d8                        	addb	%bl, %al
    7f4d: ff ff                        	<unknown>
    7f4f: ff 7b 0a                     	<unknown>
    7f52: a8 ff                        	testb	$-1, %al
    7f54: 00 00                        	addb	%al, (%rax)
    7f56: 00 00                        	addb	%al, (%rax)
    7f58: 7b 1a                        	jnp	0x7f74 <entrypoint+0x79d4>
    7f5a: e0 ff                        	loopne	0x7f5b <entrypoint+0x79bb>
    7f5c: 00 00                        	addb	%al, (%rax)
    7f5e: 00 00                        	addb	%al, (%rax)
    7f60: 7b 5a                        	jnp	0x7fbc <entrypoint+0x7a1c>
    7f62: d8 ff                        	fdivr	%st(7), %st
    7f64: 00 00                        	addb	%al, (%rax)
    7f66: 00 00                        	addb	%al, (%rax)
    7f68: 7b 4a                        	jnp	0x7fb4 <entrypoint+0x7a14>
    7f6a: f8                           	clc
    7f6b: ff 00                        	incl	(%rax)
    7f6d: 00 00                        	addb	%al, (%rax)
    7f6f: 00 7b 3a                     	addb	%bh, 58(%rbx)
    7f72: f0                           	lock
    7f73: ff 00                        	incl	(%rax)
    7f75: 00 00                        	addb	%al, (%rax)
    7f77: 00 7b 2a                     	addb	%bh, 42(%rbx)
    7f7a: e8 ff 00 00 00               	callq	0x807e <entrypoint+0x7ade>
    7f7f: 00 bf a1 00 00 00            	addb	%bh, 161(%rdi)
    7f85: 00 00                        	addb	%al, (%rax)
    7f87: 00 07                        	addb	%al, (%rdi)
    7f89: 01 00                        	addl	%eax, (%rax)
    7f8b: 00 a8 ff ff ff bf            	addb	%ch, -1073741825(%rax)
    7f91: a2 00 00 00 00 00 00 07 02   	movabsb	%al, 146085512912830464
    7f9a: 00 00                        	addb	%al, (%rax)
    7f9c: e8 ff ff ff 85               	callq	0xffffffff86007fa0
    7fa1: 10 00                        	adcb	%al, (%rax)
    7fa3: 00 2a                        	addb	%ch, (%rdx)
    7fa5: 00 00                        	addb	%al, (%rax)
    7fa7: 00 85 10 00 00 ff            	addb	%al, -16777200(%rbp)
    7fad: ff ff                        	<unknown>
    7faf: ff bf 16 00 00 00            	<unknown>
    7fb5: 00 00                        	addb	%al, (%rax)
    7fb7: 00 7b 3a                     	addb	%bh, 58(%rbx)
    7fba: a8 ff                        	testb	$-1, %al
    7fbc: 00 00                        	addb	%al, (%rax)
    7fbe: 00 00                        	addb	%al, (%rax)
    7fc0: 7b 2a                        	jnp	0x7fec <entrypoint+0x7a4c>
    7fc2: a0 ff 00 00 00 00 bf a1 00   	movabsb	45527477971321087, %al
    7fcb: 00 00                        	addb	%al, (%rax)
    7fcd: 00 00                        	addb	%al, (%rax)
    7fcf: 00 07                        	addb	%al, (%rdi)
    7fd1: 01 00                        	addl	%eax, (%rax)
    7fd3: 00 90 ff ff ff bf            	addb	%dl, -1073741825(%rax)
    7fd9: a2 00 00 00 00 00 00 07 02   	movabsb	%al, 146085512912830464
    7fe2: 00 00                        	addb	%al, (%rax)
    7fe4: a8 ff                        	testb	$-1, %al
    7fe6: ff ff                        	<unknown>
    7fe8: 18 03                        	sbbb	%al, (%rbx)
    7fea: 00 00                        	addb	%al, (%rax)
    7fec: c8 84 00 00                  	enter	$132, $0
		...
    7ff8: 85 10                        	testl	%edx, (%rax)
    7ffa: 00 00                        	addb	%al, (%rax)
    7ffc: 7e fb                        	jle	0x7ff9 <entrypoint+0x7a59>
    7ffe: ff ff                        	<unknown>
    8000: 79 a7                        	jns	0x7fa9 <entrypoint+0x7a09>
    8002: 90                           	nop
    8003: ff 00                        	incl	(%rax)
    8005: 00 00                        	addb	%al, (%rax)
    8007: 00 79 a8                     	addb	%bh, -88(%rcx)
    800a: 98                           	cwtl
    800b: ff 00                        	incl	(%rax)
    800d: 00 00                        	addb	%al, (%rax)
    800f: 00 bf a1 00 00 00            	addb	%bh, 161(%rdi)
    8015: 00 00                        	addb	%al, (%rax)
    8017: 00 07                        	addb	%al, (%rdi)
    8019: 01 00                        	addl	%eax, (%rax)
    801b: 00 80 ff ff ff bf            	addb	%al, -1073741825(%rax)
    8021: a2 00 00 00 00 00 00 07 02   	movabsb	%al, 146085512912830464
    802a: 00 00                        	addb	%al, (%rax)
    802c: a0 ff ff ff 18 03 00 00 c8   	movabsb	-4035225252819632129, %al
    8035: 84 00                        	testb	%al, (%rax)
		...
    803f: 00 85 10 00 00 75            	addb	%al, 1962934288(%rbp)
    8045: fb                           	sti
    8046: ff ff                        	<unknown>
    8048: 7b 8a                        	jnp	0x7fd4 <entrypoint+0x7a34>
    804a: e8 ff 00 00 00               	callq	0x814e <entrypoint+0x7bae>
    804f: 00 7b 7a                     	addb	%bh, 122(%rbx)
    8052: e0 ff                        	loopne	0x8053 <entrypoint+0x7ab3>
    8054: 00 00                        	addb	%al, (%rax)
    8056: 00 00                        	addb	%al, (%rax)
    8058: bf a1 00 00 00               	movl	$161, %edi
    805d: 00 00                        	addb	%al, (%rax)
    805f: 00 07                        	addb	%al, (%rdi)
    8061: 01 00                        	addl	%eax, (%rax)
    8063: 00 e0                        	addb	%ah, %al
    8065: ff ff                        	<unknown>
    8067: ff 7b 1a                     	<unknown>
    806a: d0 ff                        	sarb	%bh
    806c: 00 00                        	addb	%al, (%rax)
    806e: 00 00                        	addb	%al, (%rax)
    8070: b7 01                        	movb	$1, %bh
    8072: 00 00                        	addb	%al, (%rax)
    8074: 00 00                        	addb	%al, (%rax)
    8076: 00 00                        	addb	%al, (%rax)
    8078: 7b 1a                        	jnp	0x8094 <entrypoint+0x7af4>
    807a: c0 ff 00                     	sarb	$0, %bh
    807d: 00 00                        	addb	%al, (%rax)
    807f: 00 b7 01 00 00 02            	addb	%dh, 33554433(%rdi)
    8085: 00 00                        	addb	%al, (%rax)
    8087: 00 7b 1a                     	addb	%bh, 26(%rbx)
    808a: d8 ff                        	fdivr	%st(7), %st
    808c: 00 00                        	addb	%al, (%rax)
    808e: 00 00                        	addb	%al, (%rax)
    8090: 7b 1a                        	jnp	0x80ac <entrypoint+0x7b0c>
    8092: b8 ff 00 00 00               	movl	$255, %eax
    8097: 00 18                        	addb	%bl, (%rax)
    8099: 01 00                        	addl	%eax, (%rax)
    809b: 00 78 a5                     	addb	%bh, -91(%rax)
		...
    80a6: 00 00                        	addb	%al, (%rax)
    80a8: 7b 1a                        	jnp	0x80c4 <entrypoint+0x7b24>
    80aa: b0 ff                        	movb	$-1, %al
    80ac: 00 00                        	addb	%al, (%rax)
    80ae: 00 00                        	addb	%al, (%rax)
    80b0: 79 a1                        	jns	0x8053 <entrypoint+0x7ab3>
    80b2: 88 ff                        	movb	%bh, %bh
    80b4: 00 00                        	addb	%al, (%rax)
    80b6: 00 00                        	addb	%al, (%rax)
    80b8: 7b 1a                        	jnp	0x80d4 <entrypoint+0x7b34>
    80ba: f8                           	clc
    80bb: ff 00                        	incl	(%rax)
    80bd: 00 00                        	addb	%al, (%rax)
    80bf: 00 79 a1                     	addb	%bh, -95(%rcx)
    80c2: 80 ff 00                     	cmpb	$0, %bh
    80c5: 00 00                        	addb	%al, (%rax)
    80c7: 00 7b 1a                     	addb	%bh, 26(%rbx)
    80ca: f0                           	lock
    80cb: ff 00                        	incl	(%rax)
    80cd: 00 00                        	addb	%al, (%rax)
    80cf: 00 bf a1 00 00 00            	addb	%bh, 161(%rdi)
    80d5: 00 00                        	addb	%al, (%rax)
    80d7: 00 07                        	addb	%al, (%rdi)
    80d9: 01 00                        	addl	%eax, (%rax)
    80db: 00 b0 ff ff ff bf            	addb	%dh, -1073741825(%rax)
    80e1: 62                           	<unknown>
    80e2: 00 00                        	addb	%al, (%rax)
    80e4: 00 00                        	addb	%al, (%rax)
    80e6: 00 00                        	addb	%al, (%rax)
    80e8: 85 10                        	testl	%edx, (%rax)
    80ea: 00 00                        	addb	%al, (%rax)
    80ec: 01 00                        	addl	%eax, (%rax)
    80ee: 00 00                        	addb	%al, (%rax)
    80f0: 85 10                        	testl	%edx, (%rax)
    80f2: 00 00                        	addb	%al, (%rax)
    80f4: ff ff                        	<unknown>
    80f6: ff ff                        	<unknown>
    80f8: bf 16 00 00 00               	movl	$22, %edi
    80fd: 00 00                        	addb	%al, (%rax)
    80ff: 00 61 25                     	addb	%ah, 37(%rcx)
    8102: 14 00                        	adcb	$0, %al
    8104: 00 00                        	addb	%al, (%rax)
    8106: 00 00                        	addb	%al, (%rax)
    8108: 61                           	<unknown>
    8109: 24 10                        	andb	$16, %al
    810b: 00 00                        	addb	%al, (%rax)
    810d: 00 00                        	addb	%al, (%rax)
    810f: 00 79 23                     	addb	%bh, 35(%rcx)
    8112: 08 00                        	orb	%al, (%rax)
    8114: 00 00                        	addb	%al, (%rax)
    8116: 00 00                        	addb	%al, (%rax)
    8118: 79 22                        	jns	0x813c <entrypoint+0x7b9c>
    811a: 00 00                        	addb	%al, (%rax)
    811c: 00 00                        	addb	%al, (%rax)
    811e: 00 00                        	addb	%al, (%rax)
    8120: bf a1 00 00 00               	movl	$161, %edi
    8125: 00 00                        	addb	%al, (%rax)
    8127: 00 07                        	addb	%al, (%rdi)
    8129: 01 00                        	addl	%eax, (%rax)
    812b: 00 d0                        	addb	%dl, %al
    812d: ff ff                        	<unknown>
    812f: ff 85 10 00 00 8f            	incl	-1895825392(%rbp)
    8135: f4                           	hlt
    8136: ff ff                        	<unknown>
    8138: 7b 6a                        	jnp	0x81a4 <entrypoint+0x7c04>
    813a: b0 ff                        	movb	$-1, %al
    813c: 00 00                        	addb	%al, (%rax)
    813e: 00 00                        	addb	%al, (%rax)
    8140: 18 01                        	sbbb	%al, (%rcx)
    8142: 00 00                        	addb	%al, (%rax)
    8144: 58                           	popq	%rax
    8145: a5                           	movsl	(%rsi), %es:(%rdi)
		...
    814e: 00 00                        	addb	%al, (%rax)
    8150: 7b 1a                        	jnp	0x816c <entrypoint+0x7bcc>
    8152: a8 ff                        	testb	$-1, %al
    8154: 00 00                        	addb	%al, (%rax)
    8156: 00 00                        	addb	%al, (%rax)
    8158: b7 01                        	movb	$1, %bh
    815a: 00 00                        	addb	%al, (%rax)
    815c: 01 00                        	addl	%eax, (%rax)
    815e: 00 00                        	addb	%al, (%rax)
    8160: 7b 1a                        	jnp	0x817c <entrypoint+0x7bdc>
    8162: a0 ff 00 00 00 00 79 a1 d0   	movabsb	-3413314001663164161, %al
    816b: ff 00                        	incl	(%rax)
    816d: 00 00                        	addb	%al, (%rax)
    816f: 00 7b 1a                     	addb	%bh, 26(%rbx)
    8172: b8 ff 00 00 00               	movl	$255, %eax
    8177: 00 79 a1                     	addb	%bh, -95(%rcx)
    817a: d8 ff                        	fdivr	%st(7), %st
    817c: 00 00                        	addb	%al, (%rax)
    817e: 00 00                        	addb	%al, (%rax)
    8180: 7b 1a                        	jnp	0x819c <entrypoint+0x7bfc>
    8182: c0 ff 00                     	sarb	$0, %bh
    8185: 00 00                        	addb	%al, (%rax)
    8187: 00 79 a1                     	addb	%bh, -95(%rcx)
    818a: e0 ff                        	loopne	0x818b <entrypoint+0x7beb>
    818c: 00 00                        	addb	%al, (%rax)
    818e: 00 00                        	addb	%al, (%rax)
    8190: 7b 1a                        	jnp	0x81ac <entrypoint+0x7c0c>
    8192: c8 ff 00 00                  	enter	$255, $0
    8196: 00 00                        	addb	%al, (%rax)
    8198: bf a1 00 00 00               	movl	$161, %edi
    819d: 00 00                        	addb	%al, (%rax)
    819f: 00 07                        	addb	%al, (%rdi)
    81a1: 01 00                        	addl	%eax, (%rax)
    81a3: 00 a0 ff ff ff 85            	addb	%ah, -2046820353(%rax)
    81a9: 10 00                        	adcb	%al, (%rax)
    81ab: 00 b4 f3 ff ff 85 10         	addb	%dh, 277217279(%rbx,%rsi,8)
    81b2: 00 00                        	addb	%al, (%rax)
    81b4: ff ff                        	<unknown>
    81b6: ff ff                        	<unknown>
    81b8: b7 03                        	movb	$3, %bh
    81ba: 00 00                        	addb	%al, (%rax)
    81bc: 00 00                        	addb	%al, (%rax)
    81be: 00 00                        	addb	%al, (%rax)
    81c0: 15 02 02 00 00               	adcl	$514, %eax
    81c5: 00 00                        	addb	%al, (%rax)
    81c7: 00 b7 03 00 00 01            	addb	%dh, 16777219(%rdi)
    81cd: 00 00                        	addb	%al, (%rax)
    81cf: 00 71 24                     	addb	%dh, 36(%rcx)
    81d2: 00 00                        	addb	%al, (%rax)
    81d4: 00 00                        	addb	%al, (%rax)
    81d6: 00 00                        	addb	%al, (%rax)
    81d8: 73 41                        	jae	0x821b <entrypoint+0x7c7b>
    81da: 01 00                        	addl	%eax, (%rax)
    81dc: 00 00                        	addb	%al, (%rax)
    81de: 00 00                        	addb	%al, (%rax)
    81e0: 73 31                        	jae	0x8213 <entrypoint+0x7c73>
    81e2: 00 00                        	addb	%al, (%rax)
    81e4: 00 00                        	addb	%al, (%rax)
    81e6: 00 00                        	addb	%al, (%rax)
    81e8: 95                           	xchgl	%ebp, %eax
    81e9: 00 00                        	addb	%al, (%rax)
    81eb: 00 00                        	addb	%al, (%rax)
    81ed: 00 00                        	addb	%al, (%rax)
    81ef: 00 bf 36 00 00 00            	addb	%bh, 54(%rdi)
    81f5: 00 00                        	addb	%al, (%rax)
    81f7: 00 b7 04 00 00 27            	addb	%dh, 654311428(%rdi)
    81fd: 00 00                        	addb	%al, (%rax)
    81ff: 00 18                        	addb	%bl, (%rax)
    8201: 05 00 00 b8 9b               	addl	$2612527104, %eax
		...
    820e: 00 00                        	addb	%al, (%rax)
    8210: 79 53                        	jns	0x8265 <entrypoint+0x7cc5>
    8212: 00 00                        	addb	%al, (%rax)
    8214: 00 00                        	addb	%al, (%rax)
    8216: 00 00                        	addb	%al, (%rax)
    8218: b7 00                        	movb	$0, %bh
    821a: 00 00                        	addb	%al, (%rax)
    821c: 10 27                        	adcb	%ah, (%rdi)
    821e: 00 00                        	addb	%al, (%rax)
    8220: 2d 10 22 00 00               	subl	$8720, %eax
    8225: 00 00                        	addb	%al, (%rax)
    8227: 00 7b 2a                     	addb	%bh, 42(%rbx)
    822a: d0 ff                        	sarb	%bh
    822c: 00 00                        	addb	%al, (%rax)
    822e: 00 00                        	addb	%al, (%rax)
    8230: bf 62 00 00 00               	movl	$98, %edi
    8235: 00 00                        	addb	%al, (%rax)
    8237: 00 b7 04 00 00 00            	addb	%dh, 4(%rdi)
    823d: 00 00                        	addb	%al, (%rax)
    823f: 00 bf 10 00 00 00            	addb	%bh, 16(%rdi)
    8245: 00 00                        	addb	%al, (%rax)
    8247: 00 bf a6 00 00 00            	addb	%bh, 166(%rdi)
    824d: 00 00                        	addb	%al, (%rax)
    824f: 00 07                        	addb	%al, (%rdi)
    8251: 06                           	<unknown>
    8252: 00 00                        	addb	%al, (%rax)
    8254: d9 ff                        	fcos
    8256: ff ff                        	<unknown>
    8258: 0f 46 00                     	cmovbel	(%rax), %eax
    825b: 00 00                        	addb	%al, (%rax)
    825d: 00 00                        	addb	%al, (%rax)
    825f: 00 37                        	addb	%dh, (%rdi)
    8261: 01 00                        	addl	%eax, (%rax)
    8263: 00 10                        	addb	%dl, (%rax)
    8265: 27                           	<unknown>
    8266: 00 00                        	addb	%al, (%rax)
    8268: bf 17 00 00 00               	movl	$23, %edi
    826d: 00 00                        	addb	%al, (%rax)
    826f: 00 27                        	addb	%ah, (%rdi)
    8271: 07                           	<unknown>
    8272: 00 00                        	addb	%al, (%rax)
    8274: 10 27                        	adcb	%ah, (%rdi)
    8276: 00 00                        	addb	%al, (%rax)
    8278: bf 08 00 00 00               	movl	$8, %edi
    827d: 00 00                        	addb	%al, (%rax)
    827f: 00 1f                        	addb	%bl, (%rdi)
    8281: 78 00                        	js	0x8283 <entrypoint+0x7ce3>
    8283: 00 00                        	addb	%al, (%rax)
    8285: 00 00                        	addb	%al, (%rax)
    8287: 00 bf 87 00 00 00            	addb	%bh, 135(%rdi)
    828d: 00 00                        	addb	%al, (%rax)
    828f: 00 57 07                     	addb	%dl, 7(%rdi)
    8292: 00 00                        	addb	%al, (%rax)
    8294: ff ff                        	<unknown>
    8296: 00 00                        	addb	%al, (%rax)
    8298: 37                           	<unknown>
    8299: 07                           	<unknown>
    829a: 00 00                        	addb	%al, (%rax)
    829c: 64 00 00                     	addb	%al, %fs:(%rax)
    829f: 00 bf 79 00 00 00            	addb	%bh, 121(%rdi)
    82a5: 00 00                        	addb	%al, (%rax)
    82a7: 00 67 09                     	addb	%ah, 9(%rdi)
    82aa: 00 00                        	addb	%al, (%rax)
    82ac: 01 00                        	addl	%eax, (%rax)
    82ae: 00 00                        	addb	%al, (%rax)
    82b0: bf 35 00 00 00               	movl	$53, %edi
    82b5: 00 00                        	addb	%al, (%rax)
    82b7: 00 0f                        	addb	%cl, (%rdi)
    82b9: 95                           	xchgl	%ebp, %eax
    82ba: 00 00                        	addb	%al, (%rax)
    82bc: 00 00                        	addb	%al, (%rax)
    82be: 00 00                        	addb	%al, (%rax)
    82c0: 69 55 00 00 00 00 00         	imull	$0, (%rbp), %edx
    82c7: 00 6b 56                     	addb	%ch, 86(%rbx)
    82ca: 23 00                        	andl	(%rax), %eax
    82cc: 00 00                        	addb	%al, (%rax)
    82ce: 00 00                        	addb	%al, (%rax)
    82d0: 27                           	<unknown>
    82d1: 07                           	<unknown>
    82d2: 00 00                        	addb	%al, (%rax)
    82d4: 64 00 00                     	addb	%al, %fs:(%rax)
    82d7: 00 1f                        	addb	%bl, (%rdi)
    82d9: 78 00                        	js	0x82db <entrypoint+0x7d3b>
    82db: 00 00                        	addb	%al, (%rax)
    82dd: 00 00                        	addb	%al, (%rax)
    82df: 00 57 08                     	addb	%dl, 8(%rdi)
    82e2: 00 00                        	addb	%al, (%rax)
    82e4: ff ff                        	<unknown>
    82e6: 00 00                        	addb	%al, (%rax)
    82e8: 67 08 00                     	orb	%al, (%eax)
    82eb: 00 01                        	addb	%al, (%rcx)
    82ed: 00 00                        	addb	%al, (%rax)
    82ef: 00 bf 35 00 00 00            	addb	%bh, 53(%rdi)
    82f5: 00 00                        	addb	%al, (%rax)
    82f7: 00 0f                        	addb	%cl, (%rdi)
    82f9: 85 00                        	testl	%eax, (%rax)
    82fb: 00 00                        	addb	%al, (%rax)
    82fd: 00 00                        	addb	%al, (%rax)
    82ff: 00 69 55                     	addb	%ch, 85(%rcx)
    8302: 00 00                        	addb	%al, (%rax)
    8304: 00 00                        	addb	%al, (%rax)
    8306: 00 00                        	addb	%al, (%rax)
    8308: 6b 56 25 00                  	imull	$0, 37(%rsi), %edx
    830c: 00 00                        	addb	%al, (%rax)
    830e: 00 00                        	addb	%al, (%rax)
    8310: 07                           	<unknown>
    8311: 04 00                        	addb	$0, %al
    8313: 00 fc                        	addb	%bh, %ah
    8315: ff ff                        	<unknown>
    8317: ff 25 00 e4 ff ff            	jmpq	*-7168(%rip)  # 671d <entrypoint+0x617d>
    831d: e0 f5                        	loopne	0x8314 <entrypoint+0x7d74>
    831f: 05 07 04 00 00               	addl	$1031, %eax
    8324: 27                           	<unknown>
    8325: 00 00                        	addb	%al, (%rax)
    8327: 00 bf 26 00 00 00            	addb	%bh, 38(%rdi)
    832d: 00 00                        	addb	%al, (%rax)
    832f: 00 79 a2                     	addb	%bh, -94(%rcx)
    8332: d0 ff                        	sarb	%bh
    8334: 00 00                        	addb	%al, (%rax)
    8336: 00 00                        	addb	%al, (%rax)
    8338: 65 01 01                     	addl	%eax, %gs:(%rcx)
    833b: 00 63 00                     	addb	%ah, (%rbx)
    833e: 00 00                        	addb	%al, (%rax)
    8340: 05 00 11 00 00               	addl	$4352, %eax
    8345: 00 00                        	addb	%al, (%rax)
    8347: 00 bf 15 00 00 00            	addb	%bh, 21(%rdi)
    834d: 00 00                        	addb	%al, (%rax)
    834f: 00 57 05                     	addb	%dl, 5(%rdi)
    8352: 00 00                        	addb	%al, (%rax)
    8354: ff ff                        	<unknown>
    8356: 00 00                        	addb	%al, (%rax)
    8358: 37                           	<unknown>
    8359: 05 00 00 64 00               	addl	$6553600, %eax
    835e: 00 00                        	addb	%al, (%rax)
    8360: bf 50 00 00 00               	movl	$80, %edi
    8365: 00 00                        	addb	%al, (%rax)
    8367: 00 27                        	addb	%ah, (%rdi)
    8369: 00 00                        	addb	%al, (%rax)
    836b: 00 64 00 00                  	addb	%ah, (%rax,%rax)
    836f: 00 1f                        	addb	%bl, (%rdi)
    8371: 01 00                        	addl	%eax, (%rax)
    8373: 00 00                        	addb	%al, (%rax)
    8375: 00 00                        	addb	%al, (%rax)
    8377: 00 57 01                     	addb	%dl, 1(%rdi)
    837a: 00 00                        	addb	%al, (%rax)
    837c: ff ff                        	<unknown>
    837e: 00 00                        	addb	%al, (%rax)
    8380: 67 01 00                     	addl	%eax, (%eax)
    8383: 00 01                        	addb	%al, (%rcx)
    8385: 00 00                        	addb	%al, (%rax)
    8387: 00 bf 30 00 00 00            	addb	%bh, 48(%rdi)
    838d: 00 00                        	addb	%al, (%rax)
    838f: 00 0f                        	addb	%cl, (%rdi)
    8391: 10 00                        	adcb	%al, (%rax)
    8393: 00 00                        	addb	%al, (%rax)
    8395: 00 00                        	addb	%al, (%rax)
    8397: 00 07                        	addb	%al, (%rdi)
    8399: 04 00                        	addb	$0, %al
    839b: 00 fe                        	addb	%bh, %dh
    839d: ff ff                        	<unknown>
    839f: ff bf a1 00 00 00            	<unknown>
    83a5: 00 00                        	addb	%al, (%rax)
    83a7: 00 07                        	addb	%al, (%rdi)
    83a9: 01 00                        	addl	%eax, (%rax)
    83ab: 00 d9                        	addb	%bl, %cl
    83ad: ff ff                        	<unknown>
    83af: ff 0f                        	decl	(%rdi)
    83b1: 41 00 00                     	addb	%al, (%r8)
    83b4: 00 00                        	addb	%al, (%rax)
    83b6: 00 00                        	addb	%al, (%rax)
    83b8: 69 00 00 00 00 00            	imull	$0, (%rax), %eax
    83be: 00 00                        	addb	%al, (%rax)
    83c0: 6b 01 00                     	imull	$0, (%rcx), %eax
    83c3: 00 00                        	addb	%al, (%rax)
    83c5: 00 00                        	addb	%al, (%rax)
    83c7: 00 bf 51 00 00 00            	addb	%bh, 81(%rdi)
    83cd: 00 00                        	addb	%al, (%rax)
    83cf: 00 b7 05 00 00 0a            	addb	%dh, 167772165(%rdi)
    83d5: 00 00                        	addb	%al, (%rax)
    83d7: 00 6d 15                     	addb	%ch, 21(%rbp)
    83da: 09 00                        	orl	%eax, (%rax)
    83dc: 00 00                        	addb	%al, (%rax)
    83de: 00 00                        	addb	%al, (%rax)
    83e0: 67 01 00                     	addl	%eax, (%eax)
    83e3: 00 01                        	addb	%al, (%rcx)
    83e5: 00 00                        	addb	%al, (%rax)
    83e7: 00 0f                        	addb	%cl, (%rdi)
    83e9: 13 00                        	adcl	(%rax), %eax
    83eb: 00 00                        	addb	%al, (%rax)
    83ed: 00 00                        	addb	%al, (%rax)
    83ef: 00 07                        	addb	%al, (%rdi)
    83f1: 04 00                        	addb	$0, %al
    83f3: 00 fe                        	addb	%bh, %dh
    83f5: ff ff                        	<unknown>
    83f7: ff bf a1 00 00 00            	<unknown>
    83fd: 00 00                        	addb	%al, (%rax)
    83ff: 00 07                        	addb	%al, (%rdi)
    8401: 01 00                        	addl	%eax, (%rax)
    8403: 00 d9                        	addb	%bl, %cl
    8405: ff ff                        	<unknown>
    8407: ff 0f                        	decl	(%rdi)
    8409: 41 00 00                     	addb	%al, (%r8)
    840c: 00 00                        	addb	%al, (%rax)
    840e: 00 00                        	addb	%al, (%rax)
    8410: 69 33 00 00 00 00            	imull	$0, (%rbx), %esi
    8416: 00 00                        	addb	%al, (%rax)
    8418: 6b 31 00                     	imull	$0, (%rcx), %esi
    841b: 00 00                        	addb	%al, (%rax)
    841d: 00 00                        	addb	%al, (%rax)
    841f: 00 05 00 06 00 00            	addb	%al, 1536(%rip)  # 8a25
    8425: 00 00                        	addb	%al, (%rax)
    8427: 00 07                        	addb	%al, (%rdi)
    8429: 04 00                        	addb	$0, %al
    842b: 00 ff                        	addb	%bh, %bh
    842d: ff ff                        	<unknown>
    842f: ff bf a3 00 00 00            	<unknown>
    8435: 00 00                        	addb	%al, (%rax)
    8437: 00 07                        	addb	%al, (%rdi)
    8439: 03 00                        	addl	(%rax), %eax
    843b: 00 d9                        	addb	%bl, %cl
    843d: ff ff                        	<unknown>
    843f: ff 0f                        	decl	(%rdi)
    8441: 43 00 00                     	addb	%al, (%r8)
    8444: 00 00                        	addb	%al, (%rax)
    8446: 00 00                        	addb	%al, (%rax)
    8448: 07                           	<unknown>
    8449: 01 00                        	addl	%eax, (%rax)
    844b: 00 30                        	addb	%dh, (%rax)
    844d: 00 00                        	addb	%al, (%rax)
    844f: 00 73 13                     	addb	%dh, 19(%rbx)
    8452: 00 00                        	addb	%al, (%rax)
    8454: 00 00                        	addb	%al, (%rax)
    8456: 00 00                        	addb	%al, (%rax)
    8458: bf a1 00 00 00               	movl	$161, %edi
    845d: 00 00                        	addb	%al, (%rax)
    845f: 00 07                        	addb	%al, (%rdi)
    8461: 01 00                        	addl	%eax, (%rax)
    8463: 00 d9                        	addb	%bl, %cl
    8465: ff ff                        	<unknown>
    8467: ff 0f                        	decl	(%rdi)
    8469: 41 00 00                     	addb	%al, (%r8)
    846c: 00 00                        	addb	%al, (%rax)
    846e: 00 00                        	addb	%al, (%rax)
    8470: 7b 1a                        	jnp	0x848c <entrypoint+0x7eec>
    8472: 00 f0                        	addb	%dh, %al
    8474: 00 00                        	addb	%al, (%rax)
    8476: 00 00                        	addb	%al, (%rax)
    8478: b7 01                        	movb	$1, %bh
    847a: 00 00                        	addb	%al, (%rax)
    847c: 27                           	<unknown>
    847d: 00 00                        	addb	%al, (%rax)
    847f: 00 1f                        	addb	%bl, (%rdi)
    8481: 41 00 00                     	addb	%al, (%r8)
    8484: 00 00                        	addb	%al, (%rax)
    8486: 00 00                        	addb	%al, (%rax)
    8488: 7b 1a                        	jnp	0x84a4 <entrypoint+0x7f04>
    848a: 08 f0                        	orb	%dh, %al
    848c: 00 00                        	addb	%al, (%rax)
    848e: 00 00                        	addb	%al, (%rax)
    8490: bf a5 00 00 00               	movl	$165, %edi
    8495: 00 00                        	addb	%al, (%rax)
    8497: 00 bf 61 00 00 00            	addb	%bh, 97(%rdi)
    849d: 00 00                        	addb	%al, (%rax)
    849f: 00 18                        	addb	%bl, (%rax)
    84a1: 03 00                        	addl	(%rax), %eax
    84a3: 00 98 99 00 00 00            	addb	%bl, 153(%rax)
    84a9: 00 00                        	addb	%al, (%rax)
    84ab: 00 00                        	addb	%al, (%rax)
    84ad: 00 00                        	addb	%al, (%rax)
    84af: 00 b7 04 00 00 00            	addb	%dh, 4(%rdi)
    84b5: 00 00                        	addb	%al, (%rax)
    84b7: 00 85 10 00 00 77            	addb	%al, 1996488720(%rbp)
    84bd: fc                           	cld
    84be: ff ff                        	<unknown>
    84c0: 95                           	xchgl	%ebp, %eax
    84c1: 00 00                        	addb	%al, (%rax)
    84c3: 00 00                        	addb	%al, (%rax)
    84c5: 00 00                        	addb	%al, (%rax)
    84c7: 00 bf 26 00 00 00            	addb	%bh, 38(%rdi)
    84cd: 00 00                        	addb	%al, (%rax)
    84cf: 00 85 10 00 00 c7            	addb	%al, -956301296(%rbp)
    84d5: f3 ff ff                     	<unknown>
    84d8: bf 01 00 00 00               	movl	$1, %edi
    84dd: 00 00                        	addb	%al, (%rax)
    84df: 00 b7 02 00 00 01            	addb	%dh, 16777218(%rdi)
    84e5: 00 00                        	addb	%al, (%rax)
    84e7: 00 bf 63 00 00 00            	addb	%bh, 99(%rdi)
    84ed: 00 00                        	addb	%al, (%rax)
    84ef: 00 85 10 00 00 9f            	addb	%al, -1627389936(%rbp)
    84f5: ff ff                        	<unknown>
    84f7: ff 95 00 00 00 00            	callq	*(%rbp)
    84fd: 00 00                        	addb	%al, (%rax)
    84ff: 00 bf 10 00 00 00            	addb	%bh, 16(%rdi)
    8505: 00 00                        	addb	%al, (%rax)
    8507: 00 15 03 08 00 00            	addb	%dl, 2051(%rip)  # 8d10
    850d: 00 00                        	addb	%al, (%rax)
    850f: 00 bf 01 00 00 00            	addb	%bh, 1(%rdi)
    8515: 00 00                        	addb	%al, (%rax)
    8517: 00 71 24                     	addb	%dh, 36(%rcx)
    851a: 00 00                        	addb	%al, (%rax)
    851c: 00 00                        	addb	%al, (%rax)
    851e: 00 00                        	addb	%al, (%rax)
    8520: 73 41                        	jae	0x8563 <entrypoint+0x7fc3>
    8522: 00 00                        	addb	%al, (%rax)
    8524: 00 00                        	addb	%al, (%rax)
    8526: 00 00                        	addb	%al, (%rax)
    8528: 07                           	<unknown>
    8529: 01 00                        	addl	%eax, (%rax)
    852b: 00 01                        	addb	%al, (%rcx)
    852d: 00 00                        	addb	%al, (%rax)
    852f: 00 07                        	addb	%al, (%rdi)
    8531: 02 00                        	addb	(%rax), %al
    8533: 00 01                        	addb	%al, (%rcx)
    8535: 00 00                        	addb	%al, (%rax)
    8537: 00 07                        	addb	%al, (%rdi)
    8539: 03 00                        	addl	(%rax), %eax
    853b: 00 ff                        	addb	%bh, %bh
    853d: ff ff                        	<unknown>
    853f: ff 15 03 01 00 00            	callq	*259(%rip)  # 8648 <entrypoint+0x80a8>
    8545: 00 00                        	addb	%al, (%rax)
    8547: 00 05 00 f9 ff 00            	addb	%al, 16775424(%rip)  # 1007e4d
    854d: 00 00                        	addb	%al, (%rax)
    854f: 00 95 00 00 00 00            	addb	%dl, (%rbp)
    8555: 00 00                        	addb	%al, (%rax)
    8557: 00 bf 10 00 00 00            	addb	%bh, 16(%rdi)
    855d: 00 00                        	addb	%al, (%rax)
    855f: 00 15 03 06 00 00            	addb	%dl, 1539(%rip)  # 8b68
    8565: 00 00                        	addb	%al, (%rax)
    8567: 00 bf 01 00 00 00            	addb	%bh, 1(%rdi)
    856d: 00 00                        	addb	%al, (%rax)
    856f: 00 73 21                     	addb	%dh, 33(%rbx)
    8572: 00 00                        	addb	%al, (%rax)
    8574: 00 00                        	addb	%al, (%rax)
    8576: 00 00                        	addb	%al, (%rax)
    8578: 07                           	<unknown>
    8579: 01 00                        	addl	%eax, (%rax)
    857b: 00 01                        	addb	%al, (%rcx)
    857d: 00 00                        	addb	%al, (%rax)
    857f: 00 07                        	addb	%al, (%rdi)
    8581: 03 00                        	addl	(%rax), %eax
    8583: 00 ff                        	addb	%bh, %bh
    8585: ff ff                        	<unknown>
    8587: ff 15 03 01 00 00            	callq	*259(%rip)  # 8690 <entrypoint+0x80f0>
    858d: 00 00                        	addb	%al, (%rax)
    858f: 00 05 00 fb ff 00            	addb	%al, 16775936(%rip)  # 1008095
    8595: 00 00                        	addb	%al, (%rax)
    8597: 00 95 00 00 00 00            	addb	%dl, (%rbp)
    859d: 00 00                        	addb	%al, (%rax)
    859f: 00 b7 00 00 00 00            	addb	%dh, (%rdi)
    85a5: 00 00                        	addb	%al, (%rax)
    85a7: 00 15 03 0a 00 00            	addb	%dl, 2563(%rip)  # 8fb0
    85ad: 00 00                        	addb	%al, (%rax)
    85af: 00 05 00 04 00 00            	addb	%al, 1024(%rip)  # 89b5
    85b5: 00 00                        	addb	%al, (%rax)
    85b7: 00 07                        	addb	%al, (%rdi)
    85b9: 02 00                        	addb	(%rax), %al
    85bb: 00 01                        	addb	%al, (%rcx)
    85bd: 00 00                        	addb	%al, (%rax)
    85bf: 00 07                        	addb	%al, (%rdi)
    85c1: 01 00                        	addl	%eax, (%rax)
    85c3: 00 01                        	addb	%al, (%rcx)
    85c5: 00 00                        	addb	%al, (%rax)
    85c7: 00 07                        	addb	%al, (%rdi)
    85c9: 03 00                        	addl	(%rax), %eax
    85cb: 00 ff                        	addb	%bh, %bh
    85cd: ff ff                        	<unknown>
    85cf: ff 15 03 05 00 00            	callq	*1283(%rip)  # 8ad8
    85d5: 00 00                        	addb	%al, (%rax)
    85d7: 00 71 24                     	addb	%dh, 36(%rcx)
    85da: 00 00                        	addb	%al, (%rax)
    85dc: 00 00                        	addb	%al, (%rax)
    85de: 00 00                        	addb	%al, (%rax)
    85e0: 71 15                        	jno	0x85f7 <entrypoint+0x8057>
    85e2: 00 00                        	addb	%al, (%rax)
    85e4: 00 00                        	addb	%al, (%rax)
    85e6: 00 00                        	addb	%al, (%rax)
    85e8: 1d 45 f9 ff 00               	sbbl	$16775493, %eax
    85ed: 00 00                        	addb	%al, (%rax)
    85ef: 00 1f                        	addb	%bl, (%rdi)
    85f1: 45 00 00                     	addb	%r8b, (%r8)
    85f4: 00 00                        	addb	%al, (%rax)
    85f6: 00 00                        	addb	%al, (%rax)
    85f8: bf 50 00 00 00               	movl	$80, %edi
    85fd: 00 00                        	addb	%al, (%rax)
    85ff: 00 95 00 00 00 00            	addb	%dl, (%rbp)
    8605: 00 00                        	addb	%al, (%rax)
    8607: 00 2f                        	addb	%ch, (%rdi)
    8609: 43 00 00                     	addb	%al, (%r8)
    860c: 00 00                        	addb	%al, (%rax)
    860e: 00 00                        	addb	%al, (%rax)
    8610: 2f                           	<unknown>
    8611: 25 00 00 00 00               	andl	$0, %eax
    8616: 00 00                        	addb	%al, (%rax)
    8618: 0f 35                        	sysexitl
    861a: 00 00                        	addb	%al, (%rax)
    861c: 00 00                        	addb	%al, (%rax)
    861e: 00 00                        	addb	%al, (%rax)
    8620: bf 20 00 00 00               	movl	$32, %edi
    8625: 00 00                        	addb	%al, (%rax)
    8627: 00 77 00                     	addb	%dh, (%rdi)
    862a: 00 00                        	addb	%al, (%rax)
    862c: 20 00                        	andb	%al, (%rax)
    862e: 00 00                        	addb	%al, (%rax)
    8630: bf 43 00 00 00               	movl	$67, %edi
    8635: 00 00                        	addb	%al, (%rax)
    8637: 00 77 03                     	addb	%dh, 3(%rdi)
    863a: 00 00                        	addb	%al, (%rax)
    863c: 20 00                        	andb	%al, (%rax)
    863e: 00 00                        	addb	%al, (%rax)
    8640: bf 36 00 00 00               	movl	$54, %edi
    8645: 00 00                        	addb	%al, (%rax)
    8647: 00 2f                        	addb	%ch, (%rdi)
    8649: 06                           	<unknown>
    864a: 00 00                        	addb	%al, (%rax)
    864c: 00 00                        	addb	%al, (%rax)
    864e: 00 00                        	addb	%al, (%rax)
    8650: 0f 65 00                     	pcmpgtw	(%rax), %mm0
    8653: 00 00                        	addb	%al, (%rax)
    8655: 00 00                        	addb	%al, (%rax)
    8657: 00 67 04                     	addb	%ah, 4(%rdi)
    865a: 00 00                        	addb	%al, (%rax)
    865c: 20 00                        	andb	%al, (%rax)
    865e: 00 00                        	addb	%al, (%rax)
    8660: 77 04                        	ja	0x8666 <entrypoint+0x80c6>
    8662: 00 00                        	addb	%al, (%rax)
    8664: 20 00                        	andb	%al, (%rax)
    8666: 00 00                        	addb	%al, (%rax)
    8668: bf 46 00 00 00               	movl	$70, %edi
    866d: 00 00                        	addb	%al, (%rax)
    866f: 00 2f                        	addb	%ch, (%rdi)
    8671: 06                           	<unknown>
    8672: 00 00                        	addb	%al, (%rax)
    8674: 00 00                        	addb	%al, (%rax)
    8676: 00 00                        	addb	%al, (%rax)
    8678: 67 02 00                     	addb	(%eax), %al
    867b: 00 20                        	addb	%ah, (%rax)
    867d: 00 00                        	addb	%al, (%rax)
    867f: 00 77 02                     	addb	%dh, 2(%rdi)
    8682: 00 00                        	addb	%al, (%rax)
    8684: 20 00                        	andb	%al, (%rax)
    8686: 00 00                        	addb	%al, (%rax)
    8688: 2f                           	<unknown>
    8689: 24 00                        	andb	$0, %al
    868b: 00 00                        	addb	%al, (%rax)
    868d: 00 00                        	addb	%al, (%rax)
    868f: 00 bf 40 00 00 00            	addb	%bh, 64(%rdi)
    8695: 00 00                        	addb	%al, (%rax)
    8697: 00 77 00                     	addb	%dh, (%rdi)
    869a: 00 00                        	addb	%al, (%rax)
    869c: 20 00                        	andb	%al, (%rax)
    869e: 00 00                        	addb	%al, (%rax)
    86a0: 0f 60 00                     	punpcklbw	(%rax), %mm0
    86a3: 00 00                        	addb	%al, (%rax)
    86a5: 00 00                        	addb	%al, (%rax)
    86a7: 00 bf 06 00 00 00            	addb	%bh, 6(%rdi)
    86ad: 00 00                        	addb	%al, (%rax)
    86af: 00 77 06                     	addb	%dh, 6(%rdi)
    86b2: 00 00                        	addb	%al, (%rax)
    86b4: 20 00                        	andb	%al, (%rax)
    86b6: 00 00                        	addb	%al, (%rax)
    86b8: 0f 65 00                     	pcmpgtw	(%rax), %mm0
    86bb: 00 00                        	addb	%al, (%rax)
    86bd: 00 00                        	addb	%al, (%rax)
    86bf: 00 2f                        	addb	%ch, (%rdi)
    86c1: 23 00                        	andl	(%rax), %eax
    86c3: 00 00                        	addb	%al, (%rax)
    86c5: 00 00                        	addb	%al, (%rax)
    86c7: 00 67 00                     	addb	%ah, (%rdi)
    86ca: 00 00                        	addb	%al, (%rax)
    86cc: 20 00                        	andb	%al, (%rax)
    86ce: 00 00                        	addb	%al, (%rax)
    86d0: 77 00                        	ja	0x86d2 <entrypoint+0x8132>
    86d2: 00 00                        	addb	%al, (%rax)
    86d4: 20 00                        	andb	%al, (%rax)
    86d6: 00 00                        	addb	%al, (%rax)
    86d8: 0f 30                        	wrmsr
    86da: 00 00                        	addb	%al, (%rax)
    86dc: 00 00                        	addb	%al, (%rax)
    86de: 00 00                        	addb	%al, (%rax)
    86e0: bf 02 00 00 00               	movl	$2, %edi
    86e5: 00 00                        	addb	%al, (%rax)
    86e7: 00 77 02                     	addb	%dh, 2(%rdi)
    86ea: 00 00                        	addb	%al, (%rax)
    86ec: 20 00                        	andb	%al, (%rax)
    86ee: 00 00                        	addb	%al, (%rax)
    86f0: 0f 25                        	<unknown>
    86f2: 00 00                        	addb	%al, (%rax)
    86f4: 00 00                        	addb	%al, (%rax)
    86f6: 00 00                        	addb	%al, (%rax)
    86f8: 7b 51                        	jnp	0x874b
    86fa: 08 00                        	orb	%al, (%rax)
    86fc: 00 00                        	addb	%al, (%rax)
    86fe: 00 00                        	addb	%al, (%rax)
    8700: 67 00 00                     	addb	%al, (%eax)
    8703: 00 20                        	addb	%ah, (%rax)
    8705: 00 00                        	addb	%al, (%rax)
    8707: 00 67 04                     	addb	%ah, 4(%rdi)
    870a: 00 00                        	addb	%al, (%rax)
    870c: 20 00                        	andb	%al, (%rax)
    870e: 00 00                        	addb	%al, (%rax)
    8710: 77 04                        	ja	0x8716 <entrypoint+0x8176>
    8712: 00 00                        	addb	%al, (%rax)
    8714: 20 00                        	andb	%al, (%rax)
    8716: 00 00                        	addb	%al, (%rax)
    8718: 4f 40                        	<unknown>
    871a: 00 00                        	addb	%al, (%rax)
    871c: 00 00                        	addb	%al, (%rax)
    871e: 00 00                        	addb	%al, (%rax)
    8720: 7b 01                        	jnp	0x8723 <entrypoint+0x8183>
    8722: 00 00                        	addb	%al, (%rax)
    8724: 00 00                        	addb	%al, (%rax)
    8726: 00 00                        	addb	%al, (%rax)
    8728: 95                           	xchgl	%ebp, %eax
    8729: 00 00                        	addb	%al, (%rax)
    872b: 00 00                        	addb	%al, (%rax)
    872d: 00 00                        	addb	%al, (%rax)
    872f: 00                           	<unknown>
